Archive member included because of file (symbol)

../PM_FW_COMMON/Srv/Scheduler/lib/CORE1/cagOsCORE1-0.a(sysCpuALib.o)
                              (_start)
../PM_FW_COMMON/Srv/Scheduler/lib/CORE1/cagOsCORE1-0.a(sysCpuLib.o)
                              ../PM_FW_COMMON/Srv/Scheduler/lib/CORE1/cagOsCORE1-0.a(sysCpuALib.o) (sysEntry)
../PM_FW_COMMON/Srv/Scheduler/lib/CORE1/cagOsCORE1-0.a(sysE500Tlb.o)
                              ../PM_FW_COMMON/Srv/Scheduler/lib/CORE1/cagOsCORE1-0.a(sysCpuLib.o) (mmuE500TlbStaticInvalidate)
../PM_FW_COMMON/Srv/Scheduler/lib/CORE1/cagOsCORE1-0.a(sysEntry.o)
                              ../PM_FW_COMMON/Srv/Scheduler/lib/CORE1/cagOsCORE1-0.a(sysCpuALib.o) (OSTCBCurPtr)
../PM_FW_COMMON/Srv/Scheduler/lib/CORE1/cagOsCORE1-0.a(sysExcArchALib.o)
                              ../PM_FW_COMMON/Srv/Scheduler/lib/CORE1/cagOsCORE1-0.a(sysCpuLib.o) (sysSdaInit)
../PM_FW_COMMON/Srv/Scheduler/lib/CORE1/cagOsCORE1-0.a(sysExcArchLib.o)
                              ../PM_FW_COMMON/Srv/Scheduler/lib/CORE1/cagOsCORE1-0.a(sysCpuLib.o) (excVecInit)
../PM_FW_COMMON/Srv/Scheduler/lib/CORE1/cagOsCORE1-0.a(sysExcLib.o)
                              ../PM_FW_COMMON/Srv/Scheduler/lib/CORE1/cagOsCORE1-0.a(sysExcArchLib.o) (exceInit)
../PM_FW_COMMON/Srv/Scheduler/lib/CORE1/cagOsCORE1-0.a(sysGpio.o)
                              ../PM_FW_COMMON/Srv/Scheduler/lib/CORE1/cagOsCORE1-0.a(sysEntry.o) (sysGpioLineConfig)
../PM_FW_COMMON/Srv/Scheduler/lib/CORE1/cagOsCORE1-0.a(sysInt.o)
                              ../PM_FW_COMMON/Srv/Scheduler/lib/CORE1/cagOsCORE1-0.a(sysCpuALib.o) (OSIntHandler)
../PM_FW_COMMON/Srv/Scheduler/lib/CORE1/cagOsCORE1-0.a(sysL2Cache.o)
                              ../PM_FW_COMMON/Srv/Scheduler/lib/CORE1/cagOsCORE1-0.a(sysCpuLib.o) (l2CacheLineNum)
../PM_FW_COMMON/Srv/Scheduler/lib/CORE1/cagOsCORE1-0.a(sysOsSwitchLib.o)
                              ../PM_FW_COMMON/Srv/Scheduler/lib/CORE1/cagOsCORE1-0.a(sysCpuLib.o) (powerpcIntDisable)
../PM_FW_COMMON/Srv/Scheduler/lib/CORE1/cagOsCORE1-0.a(sysPic.o)
                              ../PM_FW_COMMON/Srv/Scheduler/lib/CORE1/cagOsCORE1-0.a(sysInt.o) (sysEpicIntAckReg)
../PM_FW_COMMON/Srv/Scheduler/lib/CORE1/cagOsCORE1-0.a(sysSpeExcLib.o)
                              ../PM_FW_COMMON/Srv/Scheduler/lib/CORE1/cagOsCORE1-0.a(sysCpuLib.o) (speExcInit)
../PM_FW_COMMON/Srv/Scheduler/lib/CORE1/cagOsCORE1-0.a(sysTask.o)
                              ../PM_FW_COMMON/Srv/Scheduler/lib/CORE1/cagOsCORE1-0.a(sysEntry.o) (OSTaskCreate)
../PM_FW_COMMON/Srv/Scheduler/lib/CORE1/cagOsCORE1-0.a(sysTbl.o)
                              ../PM_FW_COMMON/Srv/Scheduler/lib/CORE1/cagOsCORE1-0.a(sysCpuLib.o) (getTblms)
../PM_FW_COMMON/Srv/Scheduler/lib/CORE1/cagOsCORE1-0.a(sysTick.o)
                              ../PM_FW_COMMON/Srv/Scheduler/lib/CORE1/cagOsCORE1-0.a(sysTask.o) (OS_TickListRemove)
../PM_FW_COMMON/Srv/Scheduler/lib/CORE1/cagOsCORE1-0.a(sysTime.o)
                              ../PM_FW_COMMON/Srv/Scheduler/lib/CORE1/cagOsCORE1-0.a(sysEntry.o) (OSTimeDly)
../PM_FW_COMMON/Srv/Scheduler/lib/CORE1/cagOsCORE1-0.a(update.o)
                              ../PM_FW_COMMON/Srv/Scheduler/lib/CORE1/cagOsCORE1-0.a(sysCpuLib.o) (sysCycloneFlush)
../PM_FW_COMMON/Srv/Scheduler/lib/CORE1/cagOsCORE1-0.a(dfs.o)
                              ../PM_FW_COMMON/Srv/Scheduler/lib/CORE1/cagOsCORE1-0.a(sysCpuLib.o) (dfs_init)
../PM_FW_COMMON/Srv/Scheduler/lib/CORE1/cagOsCORE1-0.a(hw_init.o)
                              ../PM_FW_COMMON/Srv/Scheduler/lib/CORE1/cagOsCORE1-0.a(sysCpuLib.o) (sffs_idx3)
../PM_FW_COMMON/Srv/Scheduler/lib/CORE1/cagOsCORE1-0.a(lld.o)
                              ../PM_FW_COMMON/Srv/Scheduler/lib/CORE1/cagOsCORE1-0.a(hw_init.o) (nor_flash_errno)
../PM_FW_COMMON/Srv/Scheduler/lib/CORE1/cagOsCORE1-0.a(memcpy.o)
                              ../PM_FW_COMMON/Srv/Scheduler/lib/CORE1/cagOsCORE1-0.a(sysCpuLib.o) (memcpy)
../PM_FW_COMMON/Srv/Scheduler/lib/CORE1/cagOsCORE1-0.a(memset.o)
                              ../PM_FW_COMMON/Srv/Scheduler/lib/CORE1/cagOsCORE1-0.a(sysExcLib.o) (memset)
../PM_FW_COMMON/Srv/Scheduler/lib/CORE1/cagOsCORE1-0.a(ns16550.o)
                              ../PM_FW_COMMON/Srv/Scheduler/lib/CORE1/cagOsCORE1-0.a(sysCpuLib.o) (ns16550DevInit)
../PM_FW_COMMON/Srv/Scheduler/lib/CORE1/cagOsCORE1-0.a(printk.o)
                              ../PM_FW_COMMON/Srv/Scheduler/lib/CORE1/cagOsCORE1-0.a(sysCpuLib.o) (printf)
../PM_FW_COMMON/Srv/Scheduler/lib/CORE1/cagOsCORE1-0.a(sffs.o)
                              ../PM_FW_COMMON/Srv/Scheduler/lib/CORE1/cagOsCORE1-0.a(dfs.o) (NOLOG)
../PM_FW_COMMON/Srv/Scheduler/lib/CORE1/cagOsCORE1-0.a(sf.o)
                              ../PM_FW_COMMON/Srv/Scheduler/lib/CORE1/cagOsCORE1-0.a(hw_init.o) (sf2_flash_errno)
../PM_FW_COMMON/Srv/Scheduler/lib/CORE1/cagOsCORE1-0.a(strcpy.o)
                              ../PM_FW_COMMON/Srv/Scheduler/lib/CORE1/cagOsCORE1-0.a(printk.o) (strcpy)
../PM_FW_COMMON/Srv/Scheduler/lib/CORE1/cagOsCORE1-0.a(strlen.o)
                              ../PM_FW_COMMON/Srv/Scheduler/lib/CORE1/cagOsCORE1-0.a(hw_init.o) (strlen)
../PM_FW_COMMON/Srv/Scheduler/lib/CORE1/cagOsCORE1-0.a(strncpy.o)
                              ../PM_FW_COMMON/Srv/Scheduler/lib/CORE1/cagOsCORE1-0.a(sysExcLib.o) (strncpy)
../PM_FW_COMMON/Srv/Scheduler/lib/CORE1/cagOsCORE1-0.a(sysAccess.o)
                              ../PM_FW_COMMON/Srv/Scheduler/lib/CORE1/cagOsCORE1-0.a(ns16550.o) (readb)
../PM_FW_COMMON/Srv/Scheduler/lib/CORE1/cagOsCORE1-0.a(sysBanner.o)
                              ../PM_FW_COMMON/Srv/Scheduler/lib/CORE1/cagOsCORE1-0.a(sysCpuLib.o) (sysBanner)
../PM_FW_COMMON/Srv/Scheduler/lib/CORE1/cagOsCORE1-0.a(sysBoard.o)
                              ../PM_FW_COMMON/Srv/Scheduler/lib/CORE1/cagOsCORE1-0.a(sysTbl.o) (sysClkFreqGet)
../PM_FW_COMMON/Srv/Scheduler/lib/CORE1/cagOsCORE1-0.a(sysCacheE500Lib.o)
                              ../PM_FW_COMMON/Srv/Scheduler/lib/CORE1/cagOsCORE1-0.a(sysL2Cache.o) (_pSysL2CacheInvFunc)
../PM_FW_COMMON/Srv/Scheduler/lib/CORE1/cagOsCORE1-0.a(sysCfg.o)
                              ../PM_FW_COMMON/Srv/Scheduler/lib/CORE1/cagOsCORE1-0.a(sysTask.o) (OSCfg_StkSizeMin)
../PM_FW_COMMON/Srv/Scheduler/lib/CORE1/cagOsCORE1-0.a(sysCore.o)
                              ../PM_FW_COMMON/Srv/Scheduler/lib/CORE1/cagOsCORE1-0.a(sysTask.o) (synchronization)
../PM_FW_COMMON/Srv/Scheduler/lib/CORE1/cagOsCORE1-0.a(sysCpuE500ALib.o)
                              ../PM_FW_COMMON/Srv/Scheduler/lib/CORE1/cagOsCORE1-0.a(sysCacheE500Lib.o) (intCpuLock)
../PM_FW_COMMON/Srv/Scheduler/lib/CORE1/cagOsCORE1-0.a(sysCpuE500Lib.o)
                              ../PM_FW_COMMON/Srv/Scheduler/lib/CORE1/cagOsCORE1-0.a(sysCpuLib.o) (mmuE500TlbStaticInit1)
../PM_FW_COMMON/Srv/Scheduler/lib/CORE1/cagOsCORE1-0.a(sysDec.o)
                              ../PM_FW_COMMON/Srv/Scheduler/lib/CORE1/cagOsCORE1-0.a(sysEntry.o) (clockTaskStart)
../PM_FW_COMMON/Srv/Scheduler/lib/CORE1/cagOsCORE1-0.a(sysMsg.o)
                              ../PM_FW_COMMON/Srv/Scheduler/lib/CORE1/cagOsCORE1-0.a(sysCore.o) (OS_MsgPoolInit)
../PM_FW_COMMON/Srv/Scheduler/lib/CORE1/cagOsCORE1-0.a(sysMutex.o)
                              ../PM_FW_COMMON/Srv/Scheduler/lib/CORE1/cagOsCORE1-0.a(sysTask.o) (OS_MutexGrpPrioFindHighest)
../PM_FW_COMMON/Srv/Scheduler/lib/CORE1/cagOsCORE1-0.a(sysOsIrq.o)
                              ../PM_FW_COMMON/Srv/Scheduler/lib/CORE1/cagOsCORE1-0.a(sysCore.o) (OSIntCtxSw)
../PM_FW_COMMON/Srv/Scheduler/lib/CORE1/cagOsCORE1-0.a(sysOsSwitchALib.o)
                              ../PM_FW_COMMON/Srv/Scheduler/lib/CORE1/cagOsCORE1-0.a(sysCore.o) (OSStartHighRdy)
../PM_FW_COMMON/Srv/Scheduler/lib/CORE1/cagOsCORE1-0.a(sysPrio.o)
                              ../PM_FW_COMMON/Srv/Scheduler/lib/CORE1/cagOsCORE1-0.a(sysCore.o) (OS_PrioInit)
../PM_FW_COMMON/Srv/Scheduler/lib/CORE1/cagOsCORE1-0.a(sysQueue.o)
                              ../PM_FW_COMMON/Srv/Scheduler/lib/CORE1/cagOsCORE1-0.a(sysCore.o) (OS_QInit)
../PM_FW_COMMON/Srv/Scheduler/lib/CORE1/cagOsCORE1-0.a(sysSem.o)
                              ../PM_FW_COMMON/Srv/Scheduler/lib/CORE1/cagOsCORE1-0.a(sysCore.o) (OS_SemInit)
../PM_FW_COMMON/Srv/Scheduler/lib/CORE1/cagOsCORE1-0.a(sysSpeVectorALib.o)
                              ../PM_FW_COMMON/Srv/Scheduler/lib/CORE1/cagOsCORE1-0.a(sysOsSwitchALib.o) (speRestore)
../PM_FW_COMMON/Srv/Scheduler/lib/CORE1/cagOsCORE1-0.a(bits.o)
                              ../PM_FW_COMMON/Srv/Scheduler/lib/CORE1/cagOsCORE1-0.a(sffs.o) (get_bit_val)
../PM_FW_COMMON/Srv/Scheduler/lib/CORE1/cagOsCORE1-0.a(bLib.o)
                              ../PM_FW_COMMON/Srv/Scheduler/lib/CORE1/cagOsCORE1-0.a(memset.o) (bfill)
../PM_FW_COMMON/Srv/Scheduler/lib/CORE1/cagOsCORE1-0.a(fpga.o)
                              ../PM_FW_COMMON/Srv/Scheduler/lib/CORE1/cagOsCORE1-0.a(sf.o) (fpga_read)
../PM_FW_COMMON/Srv/Scheduler/lib/CORE1/cagOsCORE1-0.a(fs_api.o)
                              ../PM_FW_COMMON/Srv/Scheduler/lib/CORE1/cagOsCORE1-0.a(hw_init.o) (fs_mount2)
../PM_FW_COMMON/Srv/Scheduler/lib/CORE1/cagOsCORE1-0.a(strcmp.o)
                              ../PM_FW_COMMON/Srv/Scheduler/lib/CORE1/cagOsCORE1-0.a(sysCore.o) (strcmp)
../PM_FW_COMMON/Srv/Scheduler/lib/CORE1/cagOsCORE1-0.a(sysApi.o)
                              ../PM_FW_COMMON/Srv/Scheduler/lib/CORE1/cagOsCORE1-0.a(sysCore.o) (rts_var_init)
../PM_FW_COMMON/Srv/Scheduler/lib/CORE1/cagOsCORE1-0.a(sysCacheE500ALib.o)
                              ../PM_FW_COMMON/Srv/Scheduler/lib/CORE1/cagOsCORE1-0.a(sysCacheE500Lib.o) (cacheE500EnableI_Impl)
../PM_FW_COMMON/Srv/Scheduler/lib/CORE1/cagOsCORE1-0.a(sysCount.o)
                              ../PM_FW_COMMON/Srv/Scheduler/lib/CORE1/cagOsCORE1-0.a(sysPrio.o) (CPU_CntLeadZeros)
/vagrant/workspace/PM_FW_COMMON/Srv/Scheduler/lib/libgcc.a(_udivdi3.o)
                              ../PM_FW_COMMON/Srv/Scheduler/lib/CORE1/cagOsCORE1-0.a(sysTbl.o) (__udivdi3)
/vagrant/workspace/PM_FW_COMMON/Srv/Scheduler/lib/libgcc.a(_umoddi3.o)
                              ../PM_FW_COMMON/Srv/Scheduler/lib/CORE1/cagOsCORE1-0.a(sysTbl.o) (__umoddi3)
/vagrant/workspace/PM_FW_COMMON/Srv/Scheduler/lib/libc.a(strncmp.o)
                              ../PM_FW_COMMON/Srv/Scheduler/lib/CORE1/cagOsCORE1-0.a(sffs.o) (strncmp)
/vagrant/workspace/PM_FW_COMMON/Srv/Sys/src/libSysCommon.a(CommSysMonitor.o)
                              ../PM_FW_COMMON/Srv/SharedMem/src/SharedConfig.o (SysSetOutputPollFlg)
/vagrant/workspace/PM_FW_COMMON/Srv/Sys/src/libSysCommon.a(SysHardware.o)
                              ../PM_FW_COMMON/Srv/SharedMem/src/LED.o (UpdateStateLED)
/vagrant/workspace/PM_FW_COMMON/Srv/IPBUS/src/libIPBUS.a(IPBUS.o)
                              ../PM_FW_COMMON/Srv/SharedMem/src/SharedConfig.o (IPBUSSetSlaveInputAddr)
App/Main/src/libMain.a(main.o)
                              ../PM_FW_COMMON/Srv/Scheduler/lib/CORE1/cagOsCORE1-0.a(sysEntry.o) (main)
App/Main/src/libMain.a(Task.o)
                              App/Main/src/libMain.a(main.o) (SysStart)
App/Comm/src/libComm.a(Comm.o)
                              App/Main/src/libMain.a(Task.o) (CommInit)
App/Diag/src/libDiag.a(Diag.o)
                              App/Main/src/libMain.a(Task.o) (DiagInit)
App/FileManager/src/libFileManager.a(FileManager.o)
                              App/Main/src/libMain.a(Task.o) (FileManagerInit)
App/Manager/src/libManager.a(Manager.o)
                              App/Main/src/libMain.a(Task.o) (ManagerInit)
App/Manager/src/libManager.a(Key.o)
                              App/Manager/src/libManager.a(Manager.o) (KeyManagerInit)
App/Manager/src/libManager.a(Watchdog.o)
                              App/Manager/src/libManager.a(Manager.o) (WatchdogManagerInit)
App/Monitor/src/libMonitor.a(Monitor.o)
                              App/Main/src/libMain.a(Task.o) (MonitorInit)
App/ProjectConfig/src/libProjectConfig.a(Config.o)
                              App/Manager/src/libManager.a(Manager.o) (ConfigInit)
App/Sync/src/libSync.a(Sync.o)
                              App/Manager/src/libManager.a(Manager.o) (SyncInit)
App/SysStateManager/src/libSysStateManager.a(StateMngt.o)
                              App/Manager/src/libManager.a(Manager.o) (StateMngtInit)
Srv/CommProtocol/src/libCMBusProtocol.a(CMBusProtocol.o)
                              App/Main/src/libMain.a(Task.o) (CMBusProtocolInit)
Srv/CommProtocol/src/libCMBusProtocol.a(CMTable.o)
                              Srv/CommProtocol/src/libCMBusProtocol.a(CMBusProtocol.o) (CMTableInit)
Srv/SysResource/src/libSys.a(SysCfgFile.o)
                              App/Comm/src/libComm.a(Comm.o) (SysCfgFileInit)
Srv/SysResource/src/libSys.a(SysCMBus.o)
                              App/Comm/src/libComm.a(Comm.o) (SysGetMsg)
Srv/SysResource/src/libSys.a(SysCommon.o)
                              App/Main/src/libMain.a(Task.o) (SysInit)
Srv/SysResource/src/libSys.a(SysFileManager.o)
                              Srv/SysResource/src/libSys.a(SysCommon.o) (SysFileManagerInit)
Srv/SysResource/src/libSys.a(SysModbus.o)
                              Srv/SysResource/src/libSys.a(SysCommon.o) (SysModbusInit)
Srv/SysResource/src/libSys.a(SysP2P.o)
                              Srv/SysResource/src/libSys.a(SysCommon.o) (SysP2PInit)
Srv/SysResource/src/libSys.a(SysRTData.o)
                              Srv/SysResource/src/libSys.a(SysCommon.o) (SysRTDataInit)
Srv/SysResource/src/libSys.a(SysMonitor.o)
                              App/Manager/src/libManager.a(Key.o) (SysSwitchPosInit)
Srv/SysResource/src/libSys.a(SysSync.o)
                              App/Sync/src/libSync.a(Sync.o) (SysSyncInit)
Srv/SysResource/src/libSys.a(SysStateMngt.o)
                              App/SysStateManager/src/libSysStateManager.a(StateMngt.o) (SysStateMngtInit)
Srv/SysResource/src/libSys.a(SysPMConfig.o)
                              App/ProjectConfig/src/libProjectConfig.a(Config.o) (SysConfigModDownLoadVernInit)
/vagrant/workspace/PM_FW_COMMON/Srv/Scheduler/lib/CORE1/cagOsCORE1-0.a(cmbus.o)
                              Srv/CommProtocol/src/libCMBusProtocol.a(CMBusProtocol.o) (copy_to_cmbuf)
/vagrant/workspace/PM_FW_COMMON/Srv/Scheduler/lib/CORE1/cagOsCORE1-0.a(ipbus.o)
                              /vagrant/workspace/PM_FW_COMMON/Srv/IPBUS/src/libIPBUS.a(IPBUS.o) (ipbus_write)
/vagrant/workspace/PM_FW_COMMON/Srv/Scheduler/lib/CORE1/cagOsCORE1-0.a(pcie.o)
                              /vagrant/workspace/PM_FW_COMMON/Srv/Scheduler/lib/CORE1/cagOsCORE1-0.a(cmbus.o) (pcie_read)
/vagrant/workspace/PM_FW_COMMON/Srv/Scheduler/lib/CORE1/cagOsCORE1-0.a(pmbus.o)
                              Srv/CommProtocol/src/libCMBusProtocol.a(CMBusProtocol.o) (set_pm_slot)
/vagrant/workspace/PM_FW_COMMON/Srv/Scheduler/lib/libgcc.a(_divdi3.o)
                              /vagrant/workspace/PM_FW_COMMON/Srv/Sys/src/libSysCommon.a(SysHardware.o) (__divdi3)
/vagrant/workspace/PM_FW_COMMON/Srv/Scheduler/lib/libgcc.a(_moddi3.o)
                              /vagrant/workspace/PM_FW_COMMON/Srv/Sys/src/libSysCommon.a(SysHardware.o) (__moddi3)
/vagrant/workspace/PM_FW_COMMON/Srv/SharedMem/src/libSharedMem.a(SharedRetain.o)
                              App/Main/src/libMain.a(Task.o) (SharedSetTask0RetainData)
/vagrant/workspace/PM_FW_COMMON/Srv/Algrithm/src/libAlgrithm.a(Algrithm.o)
                              App/Comm/src/libComm.a(Comm.o) (SysCrc32Cal)
/vagrant/workspace/PM_FW_COMMON/Srv/Diag/src/libCDiag.a(DiagCommon.o)
                              App/Diag/src/libDiag.a(Diag.o) (BoardDiagErrHandle)
/vagrant/workspace/PM_FW_COMMON/Srv/Diag/src/libCDiag.a(BoardDiag.o)
                              App/Diag/src/libDiag.a(Diag.o) (Core1DiagInit)
/vagrant/workspace/PM_FW_COMMON/Srv/Diag/src/libCDiag.a(ExceptionTest.o)
                              /vagrant/workspace/PM_FW_COMMON/Srv/Diag/src/libCDiag.a(BoardDiag.o) (ExceptionTestInit)
/vagrant/workspace/PM_FW_COMMON/Srv/Diag/src/libCDiag.a(DataCacheTest.o)
                              /vagrant/workspace/PM_FW_COMMON/Srv/Diag/src/libCDiag.a(BoardDiag.o) (DataCacheTestInit)
/vagrant/workspace/PM_FW_COMMON/Srv/Diag/src/libCDiag.a(CPUTest.o)
                              /vagrant/workspace/PM_FW_COMMON/Srv/Diag/src/libCDiag.a(BoardDiag.o) (CPUTestInit)
/vagrant/workspace/PM_FW_COMMON/Srv/Diag/src/libCDiag.a(CodeTest.o)
                              /vagrant/workspace/PM_FW_COMMON/Srv/Diag/src/libCDiag.a(BoardDiag.o) (CodeTestInit)
/vagrant/workspace/PM_FW_COMMON/Srv/Diag/src/libCDiag.a(SysTest.o)
                              /vagrant/workspace/PM_FW_COMMON/Srv/Diag/src/libCDiag.a(BoardDiag.o) (SysGetCurExeIndex)
/vagrant/workspace/PM_FW_COMMON/Srv/Diag/src/libCDiag.a(RamTest.o)
                              /vagrant/workspace/PM_FW_COMMON/Srv/Diag/src/libCDiag.a(BoardDiag.o) (RamTestInit)
/vagrant/workspace/PM_FW_COMMON/Srv/Log/src/libLog.a(Log.o)
                              Srv/SysResource/src/libSys.a(SysCommon.o) (LogInit)
/vagrant/workspace/PM_FW_COMMON/Srv/Log/src/libLog.a(LogCore0.o)
                              /vagrant/workspace/PM_FW_COMMON/Srv/Log/src/libLog.a(Log.o) (LogInitCore0)
/vagrant/workspace/PM_FW_COMMON/Srv/Log/src/libLog.a(LogCore1.o)
                              /vagrant/workspace/PM_FW_COMMON/Srv/Log/src/libLog.a(Log.o) (LogInitCore1)
/vagrant/workspace/PM_FW_COMMON/Srv/Log/src/libLog.a(LogUser.o)
                              /vagrant/workspace/PM_FW_COMMON/Srv/Log/src/libLog.a(Log.o) (LogInitUser)
/vagrant/workspace/PM_FW_COMMON/Srv/PMBUS/src/libPMBUS.a(PMBUS.o)
                              App/Sync/src/libSync.a(Sync.o) (PMBUS_Send)
/vagrant/workspace/PM_FW_COMMON/Srv/SafetyProtocol/src/libSafetyProtocol.a(P2PSafetyComm.o)
                              App/Comm/src/libComm.a(Comm.o) (P2PCommInitSend)
/vagrant/workspace/PM_FW_COMMON/Srv/SafetyProtocol/src/libSafetyProtocol.a(SafetyCommon.o)
                              /vagrant/workspace/PM_FW_COMMON/Srv/SafetyProtocol/src/libSafetyProtocol.a(P2PSafetyComm.o) (UpdateTolInfo)
/vagrant/workspace/PM_FW_COMMON/Srv/Sys/src/libSysCommon.a(CommSysCommom.o)
                              App/Main/src/libMain.a(Task.o) (SysGetLocalPMID)
/vagrant/workspace/PM_FW_COMMON/Srv/Sys/src/libSysCommon.a(CommSysConfig.o)
                              App/Comm/src/libComm.a(Comm.o) (SysCheckCMSlotID)
/vagrant/workspace/PM_FW_COMMON/Srv/Sys/src/libSysCommon.a(CommSysSync.o)
                              App/Sync/src/libSync.a(Sync.o) (CommSysSyncInit)
/vagrant/workspace/PM_FW_COMMON/Srv/Ver/src/libVer.a(Ver.o)
                              App/Main/src/libMain.a(Task.o) (ShowVersion)
App/LEDManager/src/libLEDManager.a(LEDManager.o)
                              App/Manager/src/libManager.a(Manager.o) (LEDManagerInit)
/vagrant/workspace/PM_FW_COMMON/Srv/Scheduler/lib/CORE1/cagOsCORE1-0.a(sysCacheSb.o)
                              /vagrant/workspace/PM_FW_COMMON/Srv/Diag/src/libCDiag.a(DataCacheTest.o) (L1cacheAddr)
/vagrant/workspace/PM_FW_COMMON/Srv/Diag/asm/libAsmDiag.a(BPU_cond_branch_test_bca.o)
                              /vagrant/workspace/PM_FW_COMMON/Srv/Diag/src/libCDiag.a(CPUTest.o) (BPUConBranchBcaTest)
/vagrant/workspace/PM_FW_COMMON/Srv/Diag/asm/libAsmDiag.a(BPU_cond_branch_test_bcla.o)
                              /vagrant/workspace/PM_FW_COMMON/Srv/Diag/src/libCDiag.a(CPUTest.o) (BPUConBranchBclaTest)
/vagrant/workspace/PM_FW_COMMON/Srv/Diag/asm/libAsmDiag.a(BPU_cond_branch_test.o)
                              /vagrant/workspace/PM_FW_COMMON/Srv/Diag/src/libCDiag.a(CPUTest.o) (BPUConBranchTest)
/vagrant/workspace/PM_FW_COMMON/Srv/Diag/asm/libAsmDiag.a(BPU_uncond_branch_test_ba_bla.o)
                              /vagrant/workspace/PM_FW_COMMON/Srv/Diag/src/libCDiag.a(CPUTest.o) (BPUBranchUnconBaBlaTest)
/vagrant/workspace/PM_FW_COMMON/Srv/Diag/asm/libAsmDiag.a(BPU_uncond_branch_test.o)
                              /vagrant/workspace/PM_FW_COMMON/Srv/Diag/src/libCDiag.a(CPUTest.o) (BPUBranchUnconTest)
/vagrant/workspace/PM_FW_COMMON/Srv/Diag/asm/libAsmDiag.a(cr_test.o)
                              /vagrant/workspace/PM_FW_COMMON/Srv/Diag/src/libCDiag.a(CPUTest.o) (TestCR)
/vagrant/workspace/PM_FW_COMMON/Srv/Diag/asm/libAsmDiag.a(data_cache_test.o)
                              /vagrant/workspace/PM_FW_COMMON/Srv/Diag/src/libCDiag.a(CPUTest.o) (DataCacheTest)
/vagrant/workspace/PM_FW_COMMON/Srv/Diag/asm/libAsmDiag.a(GPR_interword_test.o)
                              /vagrant/workspace/PM_FW_COMMON/Srv/Diag/src/libCDiag.a(CPUTest.o) (GPRInterWordTest)
/vagrant/workspace/PM_FW_COMMON/Srv/Diag/asm/libAsmDiag.a(GPR_intraword_test.o)
                              /vagrant/workspace/PM_FW_COMMON/Srv/Diag/src/libCDiag.a(CPUTest.o) (GPRIntraWordTest)
/vagrant/workspace/PM_FW_COMMON/Srv/Diag/asm/libAsmDiag.a(IU1_test.o)
                              /vagrant/workspace/PM_FW_COMMON/Srv/Diag/src/libCDiag.a(CPUTest.o) (IU1Test)
/vagrant/workspace/PM_FW_COMMON/Srv/Diag/asm/libAsmDiag.a(IU2_test.o)
                              /vagrant/workspace/PM_FW_COMMON/Srv/Diag/src/libCDiag.a(CPUTest.o) (IU2Test)
/vagrant/workspace/PM_FW_COMMON/Srv/Diag/asm/libAsmDiag.a(lr_test.o)
                              /vagrant/workspace/PM_FW_COMMON/Srv/Diag/src/libCDiag.a(CPUTest.o) (TestLR)
/vagrant/workspace/PM_FW_COMMON/Srv/Diag/asm/libAsmDiag.a(LSU_data_test.o)
                              /vagrant/workspace/PM_FW_COMMON/Srv/Diag/src/libCDiag.a(CPUTest.o) (LSUDataTest)
/vagrant/workspace/PM_FW_COMMON/Srv/Diag/asm/libAsmDiag.a(LSU_ea_calc_test.o)
                              /vagrant/workspace/PM_FW_COMMON/Srv/Diag/src/libCDiag.a(CPUTest.o) (LSUEffectiveAddressTest)
/vagrant/workspace/PM_FW_COMMON/Srv/Diag/asm/libAsmDiag.a(SPR_interword_test.o)
                              /vagrant/workspace/PM_FW_COMMON/Srv/Diag/src/libCDiag.a(CPUTest.o) (SPRInterwordTest)
/vagrant/workspace/PM_FW_COMMON/Srv/Diag/asm/libAsmDiag.a(SPR_intraword_test.o)
                              /vagrant/workspace/PM_FW_COMMON/Srv/Diag/src/libCDiag.a(CPUTest.o) (SPRIntrawordTest)
/vagrant/workspace/PM_FW_COMMON/Srv/Diag/asm/libAsmDiag.a(SPRG_test.o)
                              /vagrant/workspace/PM_FW_COMMON/Srv/Diag/src/libCDiag.a(CPUTest.o) (SPRGTest)
/vagrant/workspace/PM_FW_COMMON/Srv/Diag/asm/libAsmDiag.a(Pipeline_test.o)
                              /vagrant/workspace/PM_FW_COMMON/Srv/Diag/src/libCDiag.a(CPUTest.o) (PipelineTest)

Allocating common symbols
Common symbol       size              file

OSSchedLockNestingCtr
                    0x1               ../PM_FW_COMMON/Srv/Scheduler/lib/CORE1/cagOsCORE1-0.a(sysEntry.o)
OS_AppTaskReturnHookPtr
                    0x4               ../PM_FW_COMMON/Srv/Scheduler/lib/CORE1/cagOsCORE1-0.a(sysEntry.o)
e500_spe_exc_mask   0x4               ../PM_FW_COMMON/Srv/Scheduler/lib/CORE1/cagOsCORE1-0.a(sysSpeExcLib.o)
s29gl512pOps2       0x34              ../PM_FW_COMMON/Srv/Scheduler/lib/CORE1/cagOsCORE1-0.a(hw_init.o)
OSRunning           0x1               ../PM_FW_COMMON/Srv/Scheduler/lib/CORE1/cagOsCORE1-0.a(sysEntry.o)
OSRdyList           0x60              ../PM_FW_COMMON/Srv/Scheduler/lib/CORE1/cagOsCORE1-0.a(sysEntry.o)
cachePpcReadOrigin  0x4               ../PM_FW_COMMON/Srv/Scheduler/lib/CORE1/cagOsCORE1-0.a(sysCpuLib.o)
OSPrioHighRdy       0x1               ../PM_FW_COMMON/Srv/Scheduler/lib/CORE1/cagOsCORE1-0.a(sysEntry.o)
g_suspend_sector    0x4               ../PM_FW_COMMON/Srv/Scheduler/lib/CORE1/cagOsCORE1-0.a(lld.o)
rts_msgq            0x230             ../PM_FW_COMMON/Srv/Scheduler/lib/CORE1/cagOsCORE1-0.a(sysApi.o)
firstStaticDesc     0x8               ../PM_FW_COMMON/Srv/Scheduler/lib/CORE1/cagOsCORE1-0.a(sysCpuE500Lib.o)
OS_AppTaskCreateHookPtr
                    0x4               ../PM_FW_COMMON/Srv/Scheduler/lib/CORE1/cagOsCORE1-0.a(sysEntry.o)
AppTaskStartTCB     0x8c              ../PM_FW_COMMON/Srv/Scheduler/lib/CORE1/cagOsCORE1-0.a(sysEntry.o)
sffs_idx            0x4               ../PM_FW_COMMON/Srv/Scheduler/lib/CORE1/cagOsCORE1-0.a(hw_init.o)
OSPrioCur           0x1               ../PM_FW_COMMON/Srv/Scheduler/lib/CORE1/cagOsCORE1-0.a(sysEntry.o)
s_stSysDownLoadFile
                    0x16              Srv/SysResource/src/libSys.a(SysCommon.o)
MainTaskStartTCB    0x8c              ../PM_FW_COMMON/Srv/Scheduler/lib/CORE1/cagOsCORE1-0.a(sysEntry.o)
nor_dfd             0x4               ../PM_FW_COMMON/Srv/Scheduler/lib/CORE1/cagOsCORE1-0.a(dfs.o)
OSTCBCurPtr         0x4               ../PM_FW_COMMON/Srv/Scheduler/lib/CORE1/cagOsCORE1-0.a(sysEntry.o)
rts_sem             0x1e0             ../PM_FW_COMMON/Srv/Scheduler/lib/CORE1/cagOsCORE1-0.a(sysApi.o)
OSCfg_MsgPool       0x640             ../PM_FW_COMMON/Srv/Scheduler/lib/CORE1/cagOsCORE1-0.a(sysCfg.o)
OSQQty              0x2               ../PM_FW_COMMON/Srv/Scheduler/lib/CORE1/cagOsCORE1-0.a(sysEntry.o)
sysEpicIntAckReg    0x4               ../PM_FW_COMMON/Srv/Scheduler/lib/CORE1/cagOsCORE1-0.a(sysPic.o)
OSPrioSaved         0x1               ../PM_FW_COMMON/Srv/Scheduler/lib/CORE1/cagOsCORE1-0.a(sysEntry.o)
OSTCBHighRdyPtr     0x4               ../PM_FW_COMMON/Srv/Scheduler/lib/CORE1/cagOsCORE1-0.a(sysEntry.o)
OS_AppTaskDelHookPtr
                    0x4               ../PM_FW_COMMON/Srv/Scheduler/lib/CORE1/cagOsCORE1-0.a(sysEntry.o)
OS_AppTimeTickHookPtr
                    0x4               ../PM_FW_COMMON/Srv/Scheduler/lib/CORE1/cagOsCORE1-0.a(sysEntry.o)
s29gl512pOps        0x34              ../PM_FW_COMMON/Srv/Scheduler/lib/CORE1/cagOsCORE1-0.a(hw_init.o)
OSTaskCtxSwCtr      0x4               ../PM_FW_COMMON/Srv/Scheduler/lib/CORE1/cagOsCORE1-0.a(sysEntry.o)
sffs_idx2           0x4               ../PM_FW_COMMON/Srv/Scheduler/lib/CORE1/cagOsCORE1-0.a(hw_init.o)
OSIntNestingCtr     0x1               ../PM_FW_COMMON/Srv/Scheduler/lib/CORE1/cagOsCORE1-0.a(sysEntry.o)
s_bCM_slot_table    0x10              Srv/CommProtocol/src/libCMBusProtocol.a(CMBusProtocol.o)
OSTaskQty           0x2               ../PM_FW_COMMON/Srv/Scheduler/lib/CORE1/cagOsCORE1-0.a(sysEntry.o)
OSMsgPool           0x8               ../PM_FW_COMMON/Srv/Scheduler/lib/CORE1/cagOsCORE1-0.a(sysEntry.o)
stSysActiveStatus   0x14              Srv/SysResource/src/libSys.a(SysSync.o)
OSIdleTaskTCB       0x8c              ../PM_FW_COMMON/Srv/Scheduler/lib/CORE1/cagOsCORE1-0.a(sysEntry.o)
clockTaskStartTCB   0x8c              ../PM_FW_COMMON/Srv/Scheduler/lib/CORE1/cagOsCORE1-0.a(sysEntry.o)
exceptionDescTable  0x150             ../PM_FW_COMMON/Srv/Scheduler/lib/CORE1/cagOsCORE1-0.a(sysExcLib.o)
OSSemQty            0x2               ../PM_FW_COMMON/Srv/Scheduler/lib/CORE1/cagOsCORE1-0.a(sysEntry.o)
s29gl512pSt         0x14              ../PM_FW_COMMON/Srv/Scheduler/lib/CORE1/cagOsCORE1-0.a(hw_init.o)
ppcE500DCACHE_FLUSH_NUM
                    0x4               ../PM_FW_COMMON/Srv/Scheduler/lib/CORE1/cagOsCORE1-0.a(sysCpuLib.o)
OSSchedRoundRobinDfltTimeQuanta
                    0x4               ../PM_FW_COMMON/Srv/Scheduler/lib/CORE1/cagOsCORE1-0.a(sysEntry.o)
sffs_idx3           0x4               ../PM_FW_COMMON/Srv/Scheduler/lib/CORE1/cagOsCORE1-0.a(hw_init.o)
i2c_dfd             0x4               ../PM_FW_COMMON/Srv/Scheduler/lib/CORE1/cagOsCORE1-0.a(dfs.o)
OS_AppIdleTaskHookPtr
                    0x4               ../PM_FW_COMMON/Srv/Scheduler/lib/CORE1/cagOsCORE1-0.a(sysEntry.o)
OSTickCtr           0x4               ../PM_FW_COMMON/Srv/Scheduler/lib/CORE1/cagOsCORE1-0.a(sysEntry.o)
OS_AppTaskSwHookPtr
                    0x4               ../PM_FW_COMMON/Srv/Scheduler/lib/CORE1/cagOsCORE1-0.a(sysEntry.o)
systemFreq          0x4               ../PM_FW_COMMON/Srv/Scheduler/lib/CORE1/cagOsCORE1-0.a(sysBoard.o)
s_stPMStateInfo     0x12c             Srv/SysResource/src/libSys.a(SysStateMngt.o)
OSIdleTaskCtr       0x4               ../PM_FW_COMMON/Srv/Scheduler/lib/CORE1/cagOsCORE1-0.a(sysEntry.o)
emSyncAjust         0x4               /vagrant/workspace/PM_FW_COMMON/Srv/Sys/src/libSysCommon.a(CommSysSync.o)
g_writebuffer_sector
                    0x4               ../PM_FW_COMMON/Srv/Scheduler/lib/CORE1/cagOsCORE1-0.a(lld.o)
OS_AppStatTaskHookPtr
                    0x4               ../PM_FW_COMMON/Srv/Scheduler/lib/CORE1/cagOsCORE1-0.a(sysEntry.o)
numberStaticAvail   0x8               ../PM_FW_COMMON/Srv/Scheduler/lib/CORE1/cagOsCORE1-0.a(sysCpuE500Lib.o)
fpgaflashSt         0x14              ../PM_FW_COMMON/Srv/Scheduler/lib/CORE1/cagOsCORE1-0.a(hw_init.o)
rts_tcbs            0x578             ../PM_FW_COMMON/Srv/Scheduler/lib/CORE1/cagOsCORE1-0.a(sysApi.o)
fpgaflashOps2       0x34              ../PM_FW_COMMON/Srv/Scheduler/lib/CORE1/cagOsCORE1-0.a(hw_init.o)
rts_mutex           0x280             ../PM_FW_COMMON/Srv/Scheduler/lib/CORE1/cagOsCORE1-0.a(sysApi.o)
sffs_slot           0x1570            ../PM_FW_COMMON/Srv/Scheduler/lib/CORE1/cagOsCORE1-0.a(sffs.o)
spi_dfd             0x4               ../PM_FW_COMMON/Srv/Scheduler/lib/CORE1/cagOsCORE1-0.a(dfs.o)
OSMutexQty          0x2               ../PM_FW_COMMON/Srv/Scheduler/lib/CORE1/cagOsCORE1-0.a(sysEntry.o)
e500_spe_exc_enable
                    0x4               ../PM_FW_COMMON/Srv/Scheduler/lib/CORE1/cagOsCORE1-0.a(sysSpeExcLib.o)
OSPrioTbl           0x4               ../PM_FW_COMMON/Srv/Scheduler/lib/CORE1/cagOsCORE1-0.a(sysPrio.o)
OSTickTaskTimeMax   0x4               ../PM_FW_COMMON/Srv/Scheduler/lib/CORE1/cagOsCORE1-0.a(sysEntry.o)
OSSchedRoundRobinEn
                    0x1               ../PM_FW_COMMON/Srv/Scheduler/lib/CORE1/cagOsCORE1-0.a(sysEntry.o)
OSTickListDly       0x4               ../PM_FW_COMMON/Srv/Scheduler/lib/CORE1/cagOsCORE1-0.a(sysEntry.o)
OSTickListTimeout   0x4               ../PM_FW_COMMON/Srv/Scheduler/lib/CORE1/cagOsCORE1-0.a(sysEntry.o)
s29gl512pSt2        0x14              ../PM_FW_COMMON/Srv/Scheduler/lib/CORE1/cagOsCORE1-0.a(hw_init.o)
fpgaflashOps        0x34              ../PM_FW_COMMON/Srv/Scheduler/lib/CORE1/cagOsCORE1-0.a(hw_init.o)
OSCfg_IdleTaskStk   0xfa0             ../PM_FW_COMMON/Srv/Scheduler/lib/CORE1/cagOsCORE1-0.a(sysCfg.o)
g_stSharedRtData    0x50868           ../PM_FW_COMMON/Srv/SharedMem/src/SharedRtData.o
irqDeseTable        0xf70             ../PM_FW_COMMON/Srv/Scheduler/lib/CORE1/cagOsCORE1-0.a(sysInt.o)

Discarded input sections

 .text          0x0000000000000000        0x0 ./App/Main/src/RTSTaskExeEntryBin0.o
 .data          0x0000000000000000        0x0 ./App/Main/src/RTSTaskExeEntryBin0.o
 .bss           0x0000000000000000        0x0 ./App/Main/src/RTSTaskExeEntryBin0.o
 .text          0x0000000000000000        0x0 ./App/Main/src/DiagTaskExeEntryBin0.o
 .data          0x0000000000000000        0x0 ./App/Main/src/DiagTaskExeEntryBin0.o
 .bss           0x0000000000000000        0x0 ./App/Main/src/DiagTaskExeEntryBin0.o
 .text          0x0000000000000000        0x0 ./App/Main/src/FileTaskExeEntryBin0.o
 .data          0x0000000000000000        0x0 ./App/Main/src/FileTaskExeEntryBin0.o
 .bss           0x0000000000000000        0x0 ./App/Main/src/FileTaskExeEntryBin0.o
 .data.uiTimeWindow1
                0x0000000000000000        0x4 ./App/Main/src/FileTaskExeEntryBin0.o
 .data.uiTimeWindow2
                0x0000000000000000        0x4 ./App/Main/src/FileTaskExeEntryBin0.o
 .text          0x0000000000000000        0x0 ./App/Main/src/CommTaskExeEntryBin0.o
 .data          0x0000000000000000        0x0 ./App/Main/src/CommTaskExeEntryBin0.o
 .bss           0x0000000000000000        0x0 ./App/Main/src/CommTaskExeEntryBin0.o
 .data          0x0000000000000000        0x0 ../PM_FW_COMMON/Srv/Scheduler/lib/CORE1/cagOsCORE1-0.a(sysCpuALib.o)
 .bss           0x0000000000000000        0x0 ../PM_FW_COMMON/Srv/Scheduler/lib/CORE1/cagOsCORE1-0.a(sysCpuALib.o)
 .text          0x0000000000000000        0x0 ../PM_FW_COMMON/Srv/Scheduler/lib/CORE1/cagOsCORE1-0.a(sysCpuLib.o)
 .data          0x0000000000000000        0x0 ../PM_FW_COMMON/Srv/Scheduler/lib/CORE1/cagOsCORE1-0.a(sysCpuLib.o)
 .bss           0x0000000000000000        0x0 ../PM_FW_COMMON/Srv/Scheduler/lib/CORE1/cagOsCORE1-0.a(sysCpuLib.o)
 .rodata.sysStaticTlbDesc1
                0x0000000000000000       0xf0 ../PM_FW_COMMON/Srv/Scheduler/lib/CORE1/cagOsCORE1-0.a(sysCpuLib.o)
 .rodata.sysStaticTlbDesc2
                0x0000000000000000       0xf0 ../PM_FW_COMMON/Srv/Scheduler/lib/CORE1/cagOsCORE1-0.a(sysCpuLib.o)
 .sdata.e500EarlyMapTlbId
                0x0000000000000000        0x4 ../PM_FW_COMMON/Srv/Scheduler/lib/CORE1/cagOsCORE1-0.a(sysCpuLib.o)
 .sdata.e500ImaTlbCnt
                0x0000000000000000        0x4 ../PM_FW_COMMON/Srv/Scheduler/lib/CORE1/cagOsCORE1-0.a(sysCpuLib.o)
 .text.fpgaRomInit
                0x0000000000000000      0x1dc ../PM_FW_COMMON/Srv/Scheduler/lib/CORE1/cagOsCORE1-0.a(sysCpuLib.o)
 .sdata.mmu_stat
                0x0000000000000000        0x4 ../PM_FW_COMMON/Srv/Scheduler/lib/CORE1/cagOsCORE1-0.a(sysCpuLib.o)
 .text.os_get_mmu
                0x0000000000000000       0x20 ../PM_FW_COMMON/Srv/Scheduler/lib/CORE1/cagOsCORE1-0.a(sysCpuLib.o)
 .text.os_get_mno
                0x0000000000000000       0x28 ../PM_FW_COMMON/Srv/Scheduler/lib/CORE1/cagOsCORE1-0.a(sysCpuLib.o)
 .text.os_update_mno
                0x0000000000000000       0x54 ../PM_FW_COMMON/Srv/Scheduler/lib/CORE1/cagOsCORE1-0.a(sysCpuLib.o)
 .text.os_change_mmu
                0x0000000000000000       0xe8 ../PM_FW_COMMON/Srv/Scheduler/lib/CORE1/cagOsCORE1-0.a(sysCpuLib.o)
 .data          0x0000000000000000        0x0 ../PM_FW_COMMON/Srv/Scheduler/lib/CORE1/cagOsCORE1-0.a(sysE500Tlb.o)
 .bss           0x0000000000000000        0x0 ../PM_FW_COMMON/Srv/Scheduler/lib/CORE1/cagOsCORE1-0.a(sysE500Tlb.o)
 .text          0x0000000000000000        0x0 ../PM_FW_COMMON/Srv/Scheduler/lib/CORE1/cagOsCORE1-0.a(sysEntry.o)
 .data          0x0000000000000000        0x0 ../PM_FW_COMMON/Srv/Scheduler/lib/CORE1/cagOsCORE1-0.a(sysEntry.o)
 .bss           0x0000000000000000        0x0 ../PM_FW_COMMON/Srv/Scheduler/lib/CORE1/cagOsCORE1-0.a(sysEntry.o)
 .sdata.booting_stage
                0x0000000000000000        0x4 ../PM_FW_COMMON/Srv/Scheduler/lib/CORE1/cagOsCORE1-0.a(sysEntry.o)
 .text.sysBootstage
                0x0000000000000000       0x58 ../PM_FW_COMMON/Srv/Scheduler/lib/CORE1/cagOsCORE1-0.a(sysEntry.o)
 .text.AppTaskStart
                0x0000000000000000       0x30 ../PM_FW_COMMON/Srv/Scheduler/lib/CORE1/cagOsCORE1-0.a(sysEntry.o)
 .data          0x0000000000000000        0x0 ../PM_FW_COMMON/Srv/Scheduler/lib/CORE1/cagOsCORE1-0.a(sysExcArchALib.o)
 .bss           0x0000000000000000        0x0 ../PM_FW_COMMON/Srv/Scheduler/lib/CORE1/cagOsCORE1-0.a(sysExcArchALib.o)
 .text          0x0000000000000000        0x0 ../PM_FW_COMMON/Srv/Scheduler/lib/CORE1/cagOsCORE1-0.a(sysExcArchLib.o)
 .data          0x0000000000000000        0x0 ../PM_FW_COMMON/Srv/Scheduler/lib/CORE1/cagOsCORE1-0.a(sysExcArchLib.o)
 .bss           0x0000000000000000        0x0 ../PM_FW_COMMON/Srv/Scheduler/lib/CORE1/cagOsCORE1-0.a(sysExcArchLib.o)
 .text.excVecBaseGet
                0x0000000000000000       0x28 ../PM_FW_COMMON/Srv/Scheduler/lib/CORE1/cagOsCORE1-0.a(sysExcArchLib.o)
 .text          0x0000000000000000        0x0 ../PM_FW_COMMON/Srv/Scheduler/lib/CORE1/cagOsCORE1-0.a(sysExcLib.o)
 .data          0x0000000000000000        0x0 ../PM_FW_COMMON/Srv/Scheduler/lib/CORE1/cagOsCORE1-0.a(sysExcLib.o)
 .bss           0x0000000000000000        0x0 ../PM_FW_COMMON/Srv/Scheduler/lib/CORE1/cagOsCORE1-0.a(sysExcLib.o)
 .rodata        0x0000000000000000       0x76 ../PM_FW_COMMON/Srv/Scheduler/lib/CORE1/cagOsCORE1-0.a(sysExcLib.o)
 .text.unregisterException
                0x0000000000000000      0x168 ../PM_FW_COMMON/Srv/Scheduler/lib/CORE1/cagOsCORE1-0.a(sysExcLib.o)
 .text.registerException
                0x0000000000000000      0x1ac ../PM_FW_COMMON/Srv/Scheduler/lib/CORE1/cagOsCORE1-0.a(sysExcLib.o)
 .rodata.__FUNCTION__.1427
                0x0000000000000000       0x14 ../PM_FW_COMMON/Srv/Scheduler/lib/CORE1/cagOsCORE1-0.a(sysExcLib.o)
 .rodata.__FUNCTION__.1435
                0x0000000000000000       0x12 ../PM_FW_COMMON/Srv/Scheduler/lib/CORE1/cagOsCORE1-0.a(sysExcLib.o)
 .text          0x0000000000000000        0x0 ../PM_FW_COMMON/Srv/Scheduler/lib/CORE1/cagOsCORE1-0.a(sysGpio.o)
 .data          0x0000000000000000        0x0 ../PM_FW_COMMON/Srv/Scheduler/lib/CORE1/cagOsCORE1-0.a(sysGpio.o)
 .bss           0x0000000000000000        0x0 ../PM_FW_COMMON/Srv/Scheduler/lib/CORE1/cagOsCORE1-0.a(sysGpio.o)
 .text.sysGpioLineGet
                0x0000000000000000       0x8c ../PM_FW_COMMON/Srv/Scheduler/lib/CORE1/cagOsCORE1-0.a(sysGpio.o)
 .text.sysGpioIntStatusGet
                0x0000000000000000       0xa8 ../PM_FW_COMMON/Srv/Scheduler/lib/CORE1/cagOsCORE1-0.a(sysGpio.o)
 .text.sysGpioIntStatusClear
                0x0000000000000000       0x68 ../PM_FW_COMMON/Srv/Scheduler/lib/CORE1/cagOsCORE1-0.a(sysGpio.o)
 .text.sysGpioReset
                0x0000000000000000       0x80 ../PM_FW_COMMON/Srv/Scheduler/lib/CORE1/cagOsCORE1-0.a(sysGpio.o)
 .text.sysGpioDirGet
                0x0000000000000000       0xa8 ../PM_FW_COMMON/Srv/Scheduler/lib/CORE1/cagOsCORE1-0.a(sysGpio.o)
 .text          0x0000000000000000        0x0 ../PM_FW_COMMON/Srv/Scheduler/lib/CORE1/cagOsCORE1-0.a(sysInt.o)
 .data          0x0000000000000000        0x0 ../PM_FW_COMMON/Srv/Scheduler/lib/CORE1/cagOsCORE1-0.a(sysInt.o)
 .bss           0x0000000000000000        0x0 ../PM_FW_COMMON/Srv/Scheduler/lib/CORE1/cagOsCORE1-0.a(sysInt.o)
 .text.irqUnregister
                0x0000000000000000      0x140 ../PM_FW_COMMON/Srv/Scheduler/lib/CORE1/cagOsCORE1-0.a(sysInt.o)
 .rodata.__FUNCTION__.2193
                0x0000000000000000        0xe ../PM_FW_COMMON/Srv/Scheduler/lib/CORE1/cagOsCORE1-0.a(sysInt.o)
 .text          0x0000000000000000        0x0 ../PM_FW_COMMON/Srv/Scheduler/lib/CORE1/cagOsCORE1-0.a(sysL2Cache.o)
 .data          0x0000000000000000        0x0 ../PM_FW_COMMON/Srv/Scheduler/lib/CORE1/cagOsCORE1-0.a(sysL2Cache.o)
 .bss           0x0000000000000000        0x0 ../PM_FW_COMMON/Srv/Scheduler/lib/CORE1/cagOsCORE1-0.a(sysL2Cache.o)
 .text          0x0000000000000000        0x0 ../PM_FW_COMMON/Srv/Scheduler/lib/CORE1/cagOsCORE1-0.a(sysOsSwitchLib.o)
 .data          0x0000000000000000        0x0 ../PM_FW_COMMON/Srv/Scheduler/lib/CORE1/cagOsCORE1-0.a(sysOsSwitchLib.o)
 .bss           0x0000000000000000        0x0 ../PM_FW_COMMON/Srv/Scheduler/lib/CORE1/cagOsCORE1-0.a(sysOsSwitchLib.o)
 .sdata.rtsdebug
                0x0000000000000000        0x4 ../PM_FW_COMMON/Srv/Scheduler/lib/CORE1/cagOsCORE1-0.a(sysOsSwitchLib.o)
 .text.OSStatTaskHook
                0x0000000000000000       0x4c ../PM_FW_COMMON/Srv/Scheduler/lib/CORE1/cagOsCORE1-0.a(sysOsSwitchLib.o)
 .text.OSTaskSwHook
                0x0000000000000000       0xc4 ../PM_FW_COMMON/Srv/Scheduler/lib/CORE1/cagOsCORE1-0.a(sysOsSwitchLib.o)
 .text          0x0000000000000000        0x0 ../PM_FW_COMMON/Srv/Scheduler/lib/CORE1/cagOsCORE1-0.a(sysPic.o)
 .data          0x0000000000000000        0x0 ../PM_FW_COMMON/Srv/Scheduler/lib/CORE1/cagOsCORE1-0.a(sysPic.o)
 .bss           0x0000000000000000        0x0 ../PM_FW_COMMON/Srv/Scheduler/lib/CORE1/cagOsCORE1-0.a(sysPic.o)
 .text          0x0000000000000000        0x0 ../PM_FW_COMMON/Srv/Scheduler/lib/CORE1/cagOsCORE1-0.a(sysSpeExcLib.o)
 .data          0x0000000000000000        0x0 ../PM_FW_COMMON/Srv/Scheduler/lib/CORE1/cagOsCORE1-0.a(sysSpeExcLib.o)
 .bss           0x0000000000000000        0x0 ../PM_FW_COMMON/Srv/Scheduler/lib/CORE1/cagOsCORE1-0.a(sysSpeExcLib.o)
 .text          0x0000000000000000        0x0 ../PM_FW_COMMON/Srv/Scheduler/lib/CORE1/cagOsCORE1-0.a(sysTask.o)
 .data          0x0000000000000000        0x0 ../PM_FW_COMMON/Srv/Scheduler/lib/CORE1/cagOsCORE1-0.a(sysTask.o)
 .bss           0x0000000000000000        0x0 ../PM_FW_COMMON/Srv/Scheduler/lib/CORE1/cagOsCORE1-0.a(sysTask.o)
 .text.OSTaskResume
                0x0000000000000000       0xa0 ../PM_FW_COMMON/Srv/Scheduler/lib/CORE1/cagOsCORE1-0.a(sysTask.o)
 .text.OSTaskSemPend
                0x0000000000000000      0x33c ../PM_FW_COMMON/Srv/Scheduler/lib/CORE1/cagOsCORE1-0.a(sysTask.o)
 .text.OSTaskSemPendAbort
                0x0000000000000000      0x150 ../PM_FW_COMMON/Srv/Scheduler/lib/CORE1/cagOsCORE1-0.a(sysTask.o)
 .text.OSTaskSemPost
                0x0000000000000000       0xa4 ../PM_FW_COMMON/Srv/Scheduler/lib/CORE1/cagOsCORE1-0.a(sysTask.o)
 .text.OSTaskSemSet
                0x0000000000000000       0xac ../PM_FW_COMMON/Srv/Scheduler/lib/CORE1/cagOsCORE1-0.a(sysTask.o)
 .text.OSTaskStkChk
                0x0000000000000000      0x1a8 ../PM_FW_COMMON/Srv/Scheduler/lib/CORE1/cagOsCORE1-0.a(sysTask.o)
 .text.OSTaskSuspend
                0x0000000000000000       0x88 ../PM_FW_COMMON/Srv/Scheduler/lib/CORE1/cagOsCORE1-0.a(sysTask.o)
 .text.OSTaskTimeQuantaSet
                0x0000000000000000       0xdc ../PM_FW_COMMON/Srv/Scheduler/lib/CORE1/cagOsCORE1-0.a(sysTask.o)
 .text.OS_TaskResume
                0x0000000000000000      0x1c4 ../PM_FW_COMMON/Srv/Scheduler/lib/CORE1/cagOsCORE1-0.a(sysTask.o)
 .rodata.OS_TaskResume
                0x0000000000000000       0x20 ../PM_FW_COMMON/Srv/Scheduler/lib/CORE1/cagOsCORE1-0.a(sysTask.o)
 .text.OS_TaskSemPost
                0x0000000000000000      0x1dc ../PM_FW_COMMON/Srv/Scheduler/lib/CORE1/cagOsCORE1-0.a(sysTask.o)
 .rodata.OS_TaskSemPost
                0x0000000000000000       0x20 ../PM_FW_COMMON/Srv/Scheduler/lib/CORE1/cagOsCORE1-0.a(sysTask.o)
 .text.OS_TaskSuspend
                0x0000000000000000      0x198 ../PM_FW_COMMON/Srv/Scheduler/lib/CORE1/cagOsCORE1-0.a(sysTask.o)
 .rodata.OS_TaskSuspend
                0x0000000000000000       0x20 ../PM_FW_COMMON/Srv/Scheduler/lib/CORE1/cagOsCORE1-0.a(sysTask.o)
 .text          0x0000000000000000        0x0 ../PM_FW_COMMON/Srv/Scheduler/lib/CORE1/cagOsCORE1-0.a(sysTbl.o)
 .data          0x0000000000000000        0x0 ../PM_FW_COMMON/Srv/Scheduler/lib/CORE1/cagOsCORE1-0.a(sysTbl.o)
 .bss           0x0000000000000000        0x0 ../PM_FW_COMMON/Srv/Scheduler/lib/CORE1/cagOsCORE1-0.a(sysTbl.o)
 .text.tbldiv   0x0000000000000000       0xc4 ../PM_FW_COMMON/Srv/Scheduler/lib/CORE1/cagOsCORE1-0.a(sysTbl.o)
 .text.getTblus
                0x0000000000000000       0xb4 ../PM_FW_COMMON/Srv/Scheduler/lib/CORE1/cagOsCORE1-0.a(sysTbl.o)
 .text.get_free
                0x0000000000000000      0x138 ../PM_FW_COMMON/Srv/Scheduler/lib/CORE1/cagOsCORE1-0.a(sysTbl.o)
 .text          0x0000000000000000        0x0 ../PM_FW_COMMON/Srv/Scheduler/lib/CORE1/cagOsCORE1-0.a(sysTick.o)
 .data          0x0000000000000000        0x0 ../PM_FW_COMMON/Srv/Scheduler/lib/CORE1/cagOsCORE1-0.a(sysTick.o)
 .bss           0x0000000000000000        0x0 ../PM_FW_COMMON/Srv/Scheduler/lib/CORE1/cagOsCORE1-0.a(sysTick.o)
 .text.OS_TickListInsertDly
                0x0000000000000000      0x200 ../PM_FW_COMMON/Srv/Scheduler/lib/CORE1/cagOsCORE1-0.a(sysTick.o)
 .text.OS_TickListResetPeak
                0x0000000000000000       0x1c ../PM_FW_COMMON/Srv/Scheduler/lib/CORE1/cagOsCORE1-0.a(sysTick.o)
 .text          0x0000000000000000        0x0 ../PM_FW_COMMON/Srv/Scheduler/lib/CORE1/cagOsCORE1-0.a(sysTime.o)
 .data          0x0000000000000000        0x0 ../PM_FW_COMMON/Srv/Scheduler/lib/CORE1/cagOsCORE1-0.a(sysTime.o)
 .bss           0x0000000000000000        0x0 ../PM_FW_COMMON/Srv/Scheduler/lib/CORE1/cagOsCORE1-0.a(sysTime.o)
 .text.OSTimeDly
                0x0000000000000000      0x154 ../PM_FW_COMMON/Srv/Scheduler/lib/CORE1/cagOsCORE1-0.a(sysTime.o)
 .rodata.OSTimeDly
                0x0000000000000000       0x24 ../PM_FW_COMMON/Srv/Scheduler/lib/CORE1/cagOsCORE1-0.a(sysTime.o)
 .text.OSTimeDlyResume
                0x0000000000000000      0x1c4 ../PM_FW_COMMON/Srv/Scheduler/lib/CORE1/cagOsCORE1-0.a(sysTime.o)
 .rodata.OSTimeDlyResume
                0x0000000000000000       0x20 ../PM_FW_COMMON/Srv/Scheduler/lib/CORE1/cagOsCORE1-0.a(sysTime.o)
 .text.OSTimeGet
                0x0000000000000000       0x58 ../PM_FW_COMMON/Srv/Scheduler/lib/CORE1/cagOsCORE1-0.a(sysTime.o)
 .text.OSTimeSet
                0x0000000000000000       0x54 ../PM_FW_COMMON/Srv/Scheduler/lib/CORE1/cagOsCORE1-0.a(sysTime.o)
 .text          0x0000000000000000        0x0 ../PM_FW_COMMON/Srv/Scheduler/lib/CORE1/cagOsCORE1-0.a(update.o)
 .data          0x0000000000000000        0x0 ../PM_FW_COMMON/Srv/Scheduler/lib/CORE1/cagOsCORE1-0.a(update.o)
 .bss           0x0000000000000000        0x0 ../PM_FW_COMMON/Srv/Scheduler/lib/CORE1/cagOsCORE1-0.a(update.o)
 .text.spi_delay
                0x0000000000000000       0x34 ../PM_FW_COMMON/Srv/Scheduler/lib/CORE1/cagOsCORE1-0.a(update.o)
 .text.sysCycloneInit
                0x0000000000000000       0xcc ../PM_FW_COMMON/Srv/Scheduler/lib/CORE1/cagOsCORE1-0.a(update.o)
 .text.sysSpiReadData
                0x0000000000000000      0x190 ../PM_FW_COMMON/Srv/Scheduler/lib/CORE1/cagOsCORE1-0.a(update.o)
 .text.sysSpiWriteData
                0x0000000000000000      0x174 ../PM_FW_COMMON/Srv/Scheduler/lib/CORE1/cagOsCORE1-0.a(update.o)
 .rodata        0x0000000000000000       0x6c ../PM_FW_COMMON/Srv/Scheduler/lib/CORE1/cagOsCORE1-0.a(update.o)
 .text.cycloneFpgaRx
                0x0000000000000000      0x194 ../PM_FW_COMMON/Srv/Scheduler/lib/CORE1/cagOsCORE1-0.a(update.o)
 .text.cycloneFpgaTx
                0x0000000000000000       0xfc ../PM_FW_COMMON/Srv/Scheduler/lib/CORE1/cagOsCORE1-0.a(update.o)
 .text.sysCycloneFlush
                0x0000000000000000      0x280 ../PM_FW_COMMON/Srv/Scheduler/lib/CORE1/cagOsCORE1-0.a(update.o)
 .text          0x0000000000000000        0x0 ../PM_FW_COMMON/Srv/Scheduler/lib/CORE1/cagOsCORE1-0.a(dfs.o)
 .data          0x0000000000000000        0x0 ../PM_FW_COMMON/Srv/Scheduler/lib/CORE1/cagOsCORE1-0.a(dfs.o)
 .bss           0x0000000000000000        0x0 ../PM_FW_COMMON/Srv/Scheduler/lib/CORE1/cagOsCORE1-0.a(dfs.o)
 .text.dfs_unregister
                0x0000000000000000       0x80 ../PM_FW_COMMON/Srv/Scheduler/lib/CORE1/cagOsCORE1-0.a(dfs.o)
 .text.dfs_cap  0x0000000000000000      0x1e8 ../PM_FW_COMMON/Srv/Scheduler/lib/CORE1/cagOsCORE1-0.a(dfs.o)
 .rodata.dfs_cap
                0x0000000000000000       0x18 ../PM_FW_COMMON/Srv/Scheduler/lib/CORE1/cagOsCORE1-0.a(dfs.o)
 .sbss          0x0000000000000000        0xc ../PM_FW_COMMON/Srv/Scheduler/lib/CORE1/cagOsCORE1-0.a(dfs.o)
 .text          0x0000000000000000        0x0 ../PM_FW_COMMON/Srv/Scheduler/lib/CORE1/cagOsCORE1-0.a(hw_init.o)
 .data          0x0000000000000000        0x0 ../PM_FW_COMMON/Srv/Scheduler/lib/CORE1/cagOsCORE1-0.a(hw_init.o)
 .bss           0x0000000000000000        0x0 ../PM_FW_COMMON/Srv/Scheduler/lib/CORE1/cagOsCORE1-0.a(hw_init.o)
 .sdata.log_index
                0x0000000000000000        0x4 ../PM_FW_COMMON/Srv/Scheduler/lib/CORE1/cagOsCORE1-0.a(hw_init.o)
 .text.record_log
                0x0000000000000000       0x6c ../PM_FW_COMMON/Srv/Scheduler/lib/CORE1/cagOsCORE1-0.a(hw_init.o)
 .text.echo_log
                0x0000000000000000       0x34 ../PM_FW_COMMON/Srv/Scheduler/lib/CORE1/cagOsCORE1-0.a(hw_init.o)
 .text          0x0000000000000000        0x0 ../PM_FW_COMMON/Srv/Scheduler/lib/CORE1/cagOsCORE1-0.a(lld.o)
 .data          0x0000000000000000        0x0 ../PM_FW_COMMON/Srv/Scheduler/lib/CORE1/cagOsCORE1-0.a(lld.o)
 .bss           0x0000000000000000        0x0 ../PM_FW_COMMON/Srv/Scheduler/lib/CORE1/cagOsCORE1-0.a(lld.o)
 .rodata        0x0000000000000000        0x7 ../PM_FW_COMMON/Srv/Scheduler/lib/CORE1/cagOsCORE1-0.a(lld.o)
 .text.lld_GetVersion
                0x0000000000000000       0x80 ../PM_FW_COMMON/Srv/Scheduler/lib/CORE1/cagOsCORE1-0.a(lld.o)
 .text.lld_ResetCmd
                0x0000000000000000       0x44 ../PM_FW_COMMON/Srv/Scheduler/lib/CORE1/cagOsCORE1-0.a(lld.o)
 .text.lld_ProgramSuspendCmd
                0x0000000000000000       0x3c ../PM_FW_COMMON/Srv/Scheduler/lib/CORE1/cagOsCORE1-0.a(lld.o)
 .text.lld_EraseSuspendCmd
                0x0000000000000000       0xf4 ../PM_FW_COMMON/Srv/Scheduler/lib/CORE1/cagOsCORE1-0.a(lld.o)
 .text.lld_EraseResumeCmd
                0x0000000000000000       0x48 ../PM_FW_COMMON/Srv/Scheduler/lib/CORE1/cagOsCORE1-0.a(lld.o)
 .text.lld_ProgramResumeCmd
                0x0000000000000000       0x3c ../PM_FW_COMMON/Srv/Scheduler/lib/CORE1/cagOsCORE1-0.a(lld.o)
 .text.lld_EraseSuspendOp
                0x0000000000000000      0x13c ../PM_FW_COMMON/Srv/Scheduler/lib/CORE1/cagOsCORE1-0.a(lld.o)
 .text.lld_ProgramSuspendOp
                0x0000000000000000      0x13c ../PM_FW_COMMON/Srv/Scheduler/lib/CORE1/cagOsCORE1-0.a(lld.o)
 .text.lld_GetDeviceId
                0x0000000000000000       0xc4 ../PM_FW_COMMON/Srv/Scheduler/lib/CORE1/cagOsCORE1-0.a(lld.o)
 .text.lld_SetConfigRegCmd
                0x0000000000000000       0x7c ../PM_FW_COMMON/Srv/Scheduler/lib/CORE1/cagOsCORE1-0.a(lld.o)
 .text.lld_ReadConfigRegCmd
                0x0000000000000000       0x78 ../PM_FW_COMMON/Srv/Scheduler/lib/CORE1/cagOsCORE1-0.a(lld.o)
 .text.lld_StatusClear
                0x0000000000000000       0x98 ../PM_FW_COMMON/Srv/Scheduler/lib/CORE1/cagOsCORE1-0.a(lld.o)
 .text.lld_StatusGetReg
                0x0000000000000000      0x170 ../PM_FW_COMMON/Srv/Scheduler/lib/CORE1/cagOsCORE1-0.a(lld.o)
 .text          0x0000000000000000        0x0 ../PM_FW_COMMON/Srv/Scheduler/lib/CORE1/cagOsCORE1-0.a(memcpy.o)
 .data          0x0000000000000000        0x0 ../PM_FW_COMMON/Srv/Scheduler/lib/CORE1/cagOsCORE1-0.a(memcpy.o)
 .bss           0x0000000000000000        0x0 ../PM_FW_COMMON/Srv/Scheduler/lib/CORE1/cagOsCORE1-0.a(memcpy.o)
 .text          0x0000000000000000        0x0 ../PM_FW_COMMON/Srv/Scheduler/lib/CORE1/cagOsCORE1-0.a(memset.o)
 .data          0x0000000000000000        0x0 ../PM_FW_COMMON/Srv/Scheduler/lib/CORE1/cagOsCORE1-0.a(memset.o)
 .bss           0x0000000000000000        0x0 ../PM_FW_COMMON/Srv/Scheduler/lib/CORE1/cagOsCORE1-0.a(memset.o)
 .text          0x0000000000000000        0x0 ../PM_FW_COMMON/Srv/Scheduler/lib/CORE1/cagOsCORE1-0.a(ns16550.o)
 .data          0x0000000000000000        0x0 ../PM_FW_COMMON/Srv/Scheduler/lib/CORE1/cagOsCORE1-0.a(ns16550.o)
 .bss           0x0000000000000000        0x0 ../PM_FW_COMMON/Srv/Scheduler/lib/CORE1/cagOsCORE1-0.a(ns16550.o)
 .text.ns16550InputChar
                0x0000000000000000       0x78 ../PM_FW_COMMON/Srv/Scheduler/lib/CORE1/cagOsCORE1-0.a(ns16550.o)
 .text.ns16550SioInit
                0x0000000000000000       0x30 ../PM_FW_COMMON/Srv/Scheduler/lib/CORE1/cagOsCORE1-0.a(ns16550.o)
 .text.ns16550DevInit2
                0x0000000000000000      0x168 ../PM_FW_COMMON/Srv/Scheduler/lib/CORE1/cagOsCORE1-0.a(ns16550.o)
 .text          0x0000000000000000        0x0 ../PM_FW_COMMON/Srv/Scheduler/lib/CORE1/cagOsCORE1-0.a(printk.o)
 .data          0x0000000000000000        0x0 ../PM_FW_COMMON/Srv/Scheduler/lib/CORE1/cagOsCORE1-0.a(printk.o)
 .bss           0x0000000000000000        0x0 ../PM_FW_COMMON/Srv/Scheduler/lib/CORE1/cagOsCORE1-0.a(printk.o)
 .text.sprintf  0x0000000000000000       0x94 ../PM_FW_COMMON/Srv/Scheduler/lib/CORE1/cagOsCORE1-0.a(printk.o)
 .text.strnicmp
                0x0000000000000000      0x1e8 ../PM_FW_COMMON/Srv/Scheduler/lib/CORE1/cagOsCORE1-0.a(printk.o)
 .rodata.__FUNCTION__.1349
                0x0000000000000000        0x9 ../PM_FW_COMMON/Srv/Scheduler/lib/CORE1/cagOsCORE1-0.a(printk.o)
 .text          0x0000000000000000        0x0 ../PM_FW_COMMON/Srv/Scheduler/lib/CORE1/cagOsCORE1-0.a(sffs.o)
 .data          0x0000000000000000        0x0 ../PM_FW_COMMON/Srv/Scheduler/lib/CORE1/cagOsCORE1-0.a(sffs.o)
 .bss           0x0000000000000000        0x0 ../PM_FW_COMMON/Srv/Scheduler/lib/CORE1/cagOsCORE1-0.a(sffs.o)
 .text.sffs_lseek
                0x0000000000000000      0x160 ../PM_FW_COMMON/Srv/Scheduler/lib/CORE1/cagOsCORE1-0.a(sffs.o)
 .text.sffs_umount
                0x0000000000000000       0x4c ../PM_FW_COMMON/Srv/Scheduler/lib/CORE1/cagOsCORE1-0.a(sffs.o)
 .text          0x0000000000000000        0x0 ../PM_FW_COMMON/Srv/Scheduler/lib/CORE1/cagOsCORE1-0.a(sf.o)
 .data          0x0000000000000000        0x0 ../PM_FW_COMMON/Srv/Scheduler/lib/CORE1/cagOsCORE1-0.a(sf.o)
 .bss           0x0000000000000000        0x0 ../PM_FW_COMMON/Srv/Scheduler/lib/CORE1/cagOsCORE1-0.a(sf.o)
 .text          0x0000000000000000        0x0 ../PM_FW_COMMON/Srv/Scheduler/lib/CORE1/cagOsCORE1-0.a(strcpy.o)
 .data          0x0000000000000000        0x0 ../PM_FW_COMMON/Srv/Scheduler/lib/CORE1/cagOsCORE1-0.a(strcpy.o)
 .bss           0x0000000000000000        0x0 ../PM_FW_COMMON/Srv/Scheduler/lib/CORE1/cagOsCORE1-0.a(strcpy.o)
 .text          0x0000000000000000        0x0 ../PM_FW_COMMON/Srv/Scheduler/lib/CORE1/cagOsCORE1-0.a(strlen.o)
 .data          0x0000000000000000        0x0 ../PM_FW_COMMON/Srv/Scheduler/lib/CORE1/cagOsCORE1-0.a(strlen.o)
 .bss           0x0000000000000000        0x0 ../PM_FW_COMMON/Srv/Scheduler/lib/CORE1/cagOsCORE1-0.a(strlen.o)
 .text          0x0000000000000000        0x0 ../PM_FW_COMMON/Srv/Scheduler/lib/CORE1/cagOsCORE1-0.a(strncpy.o)
 .data          0x0000000000000000        0x0 ../PM_FW_COMMON/Srv/Scheduler/lib/CORE1/cagOsCORE1-0.a(strncpy.o)
 .bss           0x0000000000000000        0x0 ../PM_FW_COMMON/Srv/Scheduler/lib/CORE1/cagOsCORE1-0.a(strncpy.o)
 .data          0x0000000000000000        0x0 ../PM_FW_COMMON/Srv/Scheduler/lib/CORE1/cagOsCORE1-0.a(sysAccess.o)
 .bss           0x0000000000000000        0x0 ../PM_FW_COMMON/Srv/Scheduler/lib/CORE1/cagOsCORE1-0.a(sysAccess.o)
 .text          0x0000000000000000        0x0 ../PM_FW_COMMON/Srv/Scheduler/lib/CORE1/cagOsCORE1-0.a(sysBanner.o)
 .data          0x0000000000000000        0x0 ../PM_FW_COMMON/Srv/Scheduler/lib/CORE1/cagOsCORE1-0.a(sysBanner.o)
 .bss           0x0000000000000000        0x0 ../PM_FW_COMMON/Srv/Scheduler/lib/CORE1/cagOsCORE1-0.a(sysBanner.o)
 .text          0x0000000000000000        0x0 ../PM_FW_COMMON/Srv/Scheduler/lib/CORE1/cagOsCORE1-0.a(sysBoard.o)
 .data          0x0000000000000000        0x0 ../PM_FW_COMMON/Srv/Scheduler/lib/CORE1/cagOsCORE1-0.a(sysBoard.o)
 .bss           0x0000000000000000        0x0 ../PM_FW_COMMON/Srv/Scheduler/lib/CORE1/cagOsCORE1-0.a(sysBoard.o)
 .bss.coreFreq  0x0000000000000000        0x4 ../PM_FW_COMMON/Srv/Scheduler/lib/CORE1/cagOsCORE1-0.a(sysBoard.o)
 .bss.core1Freq
                0x0000000000000000        0x4 ../PM_FW_COMMON/Srv/Scheduler/lib/CORE1/cagOsCORE1-0.a(sysBoard.o)
 .bss.ddrFreq   0x0000000000000000        0x4 ../PM_FW_COMMON/Srv/Scheduler/lib/CORE1/cagOsCORE1-0.a(sysBoard.o)
 .data.physTop  0x0000000000000000        0x4 ../PM_FW_COMMON/Srv/Scheduler/lib/CORE1/cagOsCORE1-0.a(sysBoard.o)
 .data.memTop   0x0000000000000000        0x4 ../PM_FW_COMMON/Srv/Scheduler/lib/CORE1/cagOsCORE1-0.a(sysBoard.o)
 .text.coreLbcShow
                0x0000000000000000      0x27c ../PM_FW_COMMON/Srv/Scheduler/lib/CORE1/cagOsCORE1-0.a(sysBoard.o)
 .text.coreLawShow
                0x0000000000000000      0x3f4 ../PM_FW_COMMON/Srv/Scheduler/lib/CORE1/cagOsCORE1-0.a(sysBoard.o)
 .text.coreShow
                0x0000000000000000      0x430 ../PM_FW_COMMON/Srv/Scheduler/lib/CORE1/cagOsCORE1-0.a(sysBoard.o)
 .text.sysModel
                0x0000000000000000      0x188 ../PM_FW_COMMON/Srv/Scheduler/lib/CORE1/cagOsCORE1-0.a(sysBoard.o)
 .text.sysPcbRev
                0x0000000000000000       0xdc ../PM_FW_COMMON/Srv/Scheduler/lib/CORE1/cagOsCORE1-0.a(sysBoard.o)
 .text.sysPhysMemTop
                0x0000000000000000       0x44 ../PM_FW_COMMON/Srv/Scheduler/lib/CORE1/cagOsCORE1-0.a(sysBoard.o)
 .text.sysMemTop
                0x0000000000000000       0x58 ../PM_FW_COMMON/Srv/Scheduler/lib/CORE1/cagOsCORE1-0.a(sysBoard.o)
 .text.boardReset
                0x0000000000000000       0x44 ../PM_FW_COMMON/Srv/Scheduler/lib/CORE1/cagOsCORE1-0.a(sysBoard.o)
 .text.__assert_fail
                0x0000000000000000       0x5c ../PM_FW_COMMON/Srv/Scheduler/lib/CORE1/cagOsCORE1-0.a(sysBoard.o)
 .sbss          0x0000000000000000        0x4 ../PM_FW_COMMON/Srv/Scheduler/lib/CORE1/cagOsCORE1-0.a(sysBoard.o)
 .text          0x0000000000000000        0x0 ../PM_FW_COMMON/Srv/Scheduler/lib/CORE1/cagOsCORE1-0.a(sysCacheE500Lib.o)
 .data          0x0000000000000000        0x0 ../PM_FW_COMMON/Srv/Scheduler/lib/CORE1/cagOsCORE1-0.a(sysCacheE500Lib.o)
 .bss           0x0000000000000000        0x0 ../PM_FW_COMMON/Srv/Scheduler/lib/CORE1/cagOsCORE1-0.a(sysCacheE500Lib.o)
 .text.cacheE500EnableL1D
                0x0000000000000000       0x40 ../PM_FW_COMMON/Srv/Scheduler/lib/CORE1/cagOsCORE1-0.a(sysCacheE500Lib.o)
 .text.cacheE500EnableL2D
                0x0000000000000000       0x7c ../PM_FW_COMMON/Srv/Scheduler/lib/CORE1/cagOsCORE1-0.a(sysCacheE500Lib.o)
 .text.cacheE500DisableI
                0x0000000000000000       0x30 ../PM_FW_COMMON/Srv/Scheduler/lib/CORE1/cagOsCORE1-0.a(sysCacheE500Lib.o)
 .text.cacheE500DisableIFromMmu
                0x0000000000000000       0x40 ../PM_FW_COMMON/Srv/Scheduler/lib/CORE1/cagOsCORE1-0.a(sysCacheE500Lib.o)
 .text.cacheE500InvalidateAllD
                0x0000000000000000       0xa0 ../PM_FW_COMMON/Srv/Scheduler/lib/CORE1/cagOsCORE1-0.a(sysCacheE500Lib.o)
 .text.cacheIsOnI
                0x0000000000000000       0x54 ../PM_FW_COMMON/Srv/Scheduler/lib/CORE1/cagOsCORE1-0.a(sysCacheE500Lib.o)
 .text          0x0000000000000000        0x0 ../PM_FW_COMMON/Srv/Scheduler/lib/CORE1/cagOsCORE1-0.a(sysCfg.o)
 .data          0x0000000000000000        0x0 ../PM_FW_COMMON/Srv/Scheduler/lib/CORE1/cagOsCORE1-0.a(sysCfg.o)
 .bss           0x0000000000000000        0x0 ../PM_FW_COMMON/Srv/Scheduler/lib/CORE1/cagOsCORE1-0.a(sysCfg.o)
 .sdata.OSCfg_IdleTaskStkBasePtr
                0x0000000000000000        0x4 ../PM_FW_COMMON/Srv/Scheduler/lib/CORE1/cagOsCORE1-0.a(sysCfg.o)
 .sdata.OSCfg_IdleTaskStkSizeRAM
                0x0000000000000000        0x4 ../PM_FW_COMMON/Srv/Scheduler/lib/CORE1/cagOsCORE1-0.a(sysCfg.o)
 .sdata.OSCfg_IntQSize
                0x0000000000000000        0x2 ../PM_FW_COMMON/Srv/Scheduler/lib/CORE1/cagOsCORE1-0.a(sysCfg.o)
 .sdata.OSCfg_IntQSizeRAM
                0x0000000000000000        0x4 ../PM_FW_COMMON/Srv/Scheduler/lib/CORE1/cagOsCORE1-0.a(sysCfg.o)
 .sdata.OSCfg_IntQTaskStkBasePtr
                0x0000000000000000        0x4 ../PM_FW_COMMON/Srv/Scheduler/lib/CORE1/cagOsCORE1-0.a(sysCfg.o)
 .sdata.OSCfg_IntQTaskStkLimit
                0x0000000000000000        0x4 ../PM_FW_COMMON/Srv/Scheduler/lib/CORE1/cagOsCORE1-0.a(sysCfg.o)
 .sdata.OSCfg_IntQTaskStkSize
                0x0000000000000000        0x4 ../PM_FW_COMMON/Srv/Scheduler/lib/CORE1/cagOsCORE1-0.a(sysCfg.o)
 .sdata.OSCfg_IntQTaskStkSizeRAM
                0x0000000000000000        0x4 ../PM_FW_COMMON/Srv/Scheduler/lib/CORE1/cagOsCORE1-0.a(sysCfg.o)
 .sdata.OSCfg_MsgPoolSizeRAM
                0x0000000000000000        0x4 ../PM_FW_COMMON/Srv/Scheduler/lib/CORE1/cagOsCORE1-0.a(sysCfg.o)
 .sdata.OSCfg_DataSizeRAM
                0x0000000000000000        0x4 ../PM_FW_COMMON/Srv/Scheduler/lib/CORE1/cagOsCORE1-0.a(sysCfg.o)
 .text          0x0000000000000000        0x0 ../PM_FW_COMMON/Srv/Scheduler/lib/CORE1/cagOsCORE1-0.a(sysCore.o)
 .data          0x0000000000000000        0x0 ../PM_FW_COMMON/Srv/Scheduler/lib/CORE1/cagOsCORE1-0.a(sysCore.o)
 .bss           0x0000000000000000        0x0 ../PM_FW_COMMON/Srv/Scheduler/lib/CORE1/cagOsCORE1-0.a(sysCore.o)
 .sdata.RTSRunFlag
                0x0000000000000000        0x4 ../PM_FW_COMMON/Srv/Scheduler/lib/CORE1/cagOsCORE1-0.a(sysCore.o)
 .sdata.RTSRunTime1
                0x0000000000000000        0x4 ../PM_FW_COMMON/Srv/Scheduler/lib/CORE1/cagOsCORE1-0.a(sysCore.o)
 .sdata.RTSRunTime2
                0x0000000000000000        0x4 ../PM_FW_COMMON/Srv/Scheduler/lib/CORE1/cagOsCORE1-0.a(sysCore.o)
 .sdata.RTSRunExp
                0x0000000000000000        0x4 ../PM_FW_COMMON/Srv/Scheduler/lib/CORE1/cagOsCORE1-0.a(sysCore.o)
 .sdata.CyclyeDiag
                0x0000000000000000        0x4 ../PM_FW_COMMON/Srv/Scheduler/lib/CORE1/cagOsCORE1-0.a(sysCore.o)
 .sdata.Rts_t1  0x0000000000000000        0x4 ../PM_FW_COMMON/Srv/Scheduler/lib/CORE1/cagOsCORE1-0.a(sysCore.o)
 .sdata.Rts_t2  0x0000000000000000        0x4 ../PM_FW_COMMON/Srv/Scheduler/lib/CORE1/cagOsCORE1-0.a(sysCore.o)
 .sdata.RtsNCounter
                0x0000000000000000        0x4 ../PM_FW_COMMON/Srv/Scheduler/lib/CORE1/cagOsCORE1-0.a(sysCore.o)
 .sdata.RtsLoopCounter
                0x0000000000000000        0x4 ../PM_FW_COMMON/Srv/Scheduler/lib/CORE1/cagOsCORE1-0.a(sysCore.o)
 .sdata.RtsPcBak
                0x0000000000000000        0x4 ../PM_FW_COMMON/Srv/Scheduler/lib/CORE1/cagOsCORE1-0.a(sysCore.o)
 .text.OSSchedLock
                0x0000000000000000       0xcc ../PM_FW_COMMON/Srv/Scheduler/lib/CORE1/cagOsCORE1-0.a(sysCore.o)
 .text.OSSchedUnlock
                0x0000000000000000       0xf8 ../PM_FW_COMMON/Srv/Scheduler/lib/CORE1/cagOsCORE1-0.a(sysCore.o)
 .text.OSSchedRoundRobinCfg
                0x0000000000000000       0xb8 ../PM_FW_COMMON/Srv/Scheduler/lib/CORE1/cagOsCORE1-0.a(sysCore.o)
 .text.OSSchedRoundRobinYield
                0x0000000000000000      0x150 ../PM_FW_COMMON/Srv/Scheduler/lib/CORE1/cagOsCORE1-0.a(sysCore.o)
 .text.OS_PendAbort
                0x0000000000000000      0x1c8 ../PM_FW_COMMON/Srv/Scheduler/lib/CORE1/cagOsCORE1-0.a(sysCore.o)
 .rodata.OS_PendAbort
                0x0000000000000000       0x20 ../PM_FW_COMMON/Srv/Scheduler/lib/CORE1/cagOsCORE1-0.a(sysCore.o)
 .text.OS_PendAbort1
                0x0000000000000000       0xa0 ../PM_FW_COMMON/Srv/Scheduler/lib/CORE1/cagOsCORE1-0.a(sysCore.o)
 .text.OS_PendListInsertHead
                0x0000000000000000       0xac ../PM_FW_COMMON/Srv/Scheduler/lib/CORE1/cagOsCORE1-0.a(sysCore.o)
 .text.OS_PendObjDel
                0x0000000000000000      0x1b0 ../PM_FW_COMMON/Srv/Scheduler/lib/CORE1/cagOsCORE1-0.a(sysCore.o)
 .rodata.OS_PendObjDel
                0x0000000000000000       0x20 ../PM_FW_COMMON/Srv/Scheduler/lib/CORE1/cagOsCORE1-0.a(sysCore.o)
 .text.OS_PendObjDel1
                0x0000000000000000       0xa0 ../PM_FW_COMMON/Srv/Scheduler/lib/CORE1/cagOsCORE1-0.a(sysCore.o)
 .data          0x0000000000000000        0x0 ../PM_FW_COMMON/Srv/Scheduler/lib/CORE1/cagOsCORE1-0.a(sysCpuE500ALib.o)
 .bss           0x0000000000000000        0x0 ../PM_FW_COMMON/Srv/Scheduler/lib/CORE1/cagOsCORE1-0.a(sysCpuE500ALib.o)
 .text          0x0000000000000000        0x0 ../PM_FW_COMMON/Srv/Scheduler/lib/CORE1/cagOsCORE1-0.a(sysCpuE500Lib.o)
 .data          0x0000000000000000        0x0 ../PM_FW_COMMON/Srv/Scheduler/lib/CORE1/cagOsCORE1-0.a(sysCpuE500Lib.o)
 .bss           0x0000000000000000        0x0 ../PM_FW_COMMON/Srv/Scheduler/lib/CORE1/cagOsCORE1-0.a(sysCpuE500Lib.o)
 .sdata.totalStaticDesc
                0x0000000000000000        0x4 ../PM_FW_COMMON/Srv/Scheduler/lib/CORE1/cagOsCORE1-0.a(sysCpuE500Lib.o)
 .rodata        0x0000000000000000       0xe6 ../PM_FW_COMMON/Srv/Scheduler/lib/CORE1/cagOsCORE1-0.a(sysCpuE500Lib.o)
 .text.cpuE500Show
                0x0000000000000000      0x21c ../PM_FW_COMMON/Srv/Scheduler/lib/CORE1/cagOsCORE1-0.a(sysCpuE500Lib.o)
 .text.mmuE500TlbStaticInit
                0x0000000000000000       0xd8 ../PM_FW_COMMON/Srv/Scheduler/lib/CORE1/cagOsCORE1-0.a(sysCpuE500Lib.o)
 .sbss          0x0000000000000000       0x10 ../PM_FW_COMMON/Srv/Scheduler/lib/CORE1/cagOsCORE1-0.a(sysCpuE500Lib.o)
 .text          0x0000000000000000        0x0 ../PM_FW_COMMON/Srv/Scheduler/lib/CORE1/cagOsCORE1-0.a(sysDec.o)
 .data          0x0000000000000000        0x0 ../PM_FW_COMMON/Srv/Scheduler/lib/CORE1/cagOsCORE1-0.a(sysDec.o)
 .bss           0x0000000000000000        0x0 ../PM_FW_COMMON/Srv/Scheduler/lib/CORE1/cagOsCORE1-0.a(sysDec.o)
 .text.OSDecHandler
                0x0000000000000000       0x34 ../PM_FW_COMMON/Srv/Scheduler/lib/CORE1/cagOsCORE1-0.a(sysDec.o)
 .text          0x0000000000000000        0x0 ../PM_FW_COMMON/Srv/Scheduler/lib/CORE1/cagOsCORE1-0.a(sysMsg.o)
 .data          0x0000000000000000        0x0 ../PM_FW_COMMON/Srv/Scheduler/lib/CORE1/cagOsCORE1-0.a(sysMsg.o)
 .bss           0x0000000000000000        0x0 ../PM_FW_COMMON/Srv/Scheduler/lib/CORE1/cagOsCORE1-0.a(sysMsg.o)
 .text.OS_MsgQFreeAll
                0x0000000000000000      0x104 ../PM_FW_COMMON/Srv/Scheduler/lib/CORE1/cagOsCORE1-0.a(sysMsg.o)
 .text.OS_MsgQInit
                0x0000000000000000       0x58 ../PM_FW_COMMON/Srv/Scheduler/lib/CORE1/cagOsCORE1-0.a(sysMsg.o)
 .text.OS_MsgQGet
                0x0000000000000000      0x198 ../PM_FW_COMMON/Srv/Scheduler/lib/CORE1/cagOsCORE1-0.a(sysMsg.o)
 .text.OS_MsgQPut
                0x0000000000000000      0x1f8 ../PM_FW_COMMON/Srv/Scheduler/lib/CORE1/cagOsCORE1-0.a(sysMsg.o)
 .text          0x0000000000000000        0x0 ../PM_FW_COMMON/Srv/Scheduler/lib/CORE1/cagOsCORE1-0.a(sysMutex.o)
 .data          0x0000000000000000        0x0 ../PM_FW_COMMON/Srv/Scheduler/lib/CORE1/cagOsCORE1-0.a(sysMutex.o)
 .bss           0x0000000000000000        0x0 ../PM_FW_COMMON/Srv/Scheduler/lib/CORE1/cagOsCORE1-0.a(sysMutex.o)
 .text.OSMutexCreate
                0x0000000000000000       0xf8 ../PM_FW_COMMON/Srv/Scheduler/lib/CORE1/cagOsCORE1-0.a(sysMutex.o)
 .text.OSMutexDel
                0x0000000000000000      0x2bc ../PM_FW_COMMON/Srv/Scheduler/lib/CORE1/cagOsCORE1-0.a(sysMutex.o)
 .text.OSMutexPend
                0x0000000000000000      0x374 ../PM_FW_COMMON/Srv/Scheduler/lib/CORE1/cagOsCORE1-0.a(sysMutex.o)
 .rodata.OSMutexPend
                0x0000000000000000       0x10 ../PM_FW_COMMON/Srv/Scheduler/lib/CORE1/cagOsCORE1-0.a(sysMutex.o)
 .text.OSMutexPendAbort
                0x0000000000000000      0x278 ../PM_FW_COMMON/Srv/Scheduler/lib/CORE1/cagOsCORE1-0.a(sysMutex.o)
 .text.OSMutexPost
                0x0000000000000000      0x2e0 ../PM_FW_COMMON/Srv/Scheduler/lib/CORE1/cagOsCORE1-0.a(sysMutex.o)
 .text.OS_MutexClr
                0x0000000000000000       0x80 ../PM_FW_COMMON/Srv/Scheduler/lib/CORE1/cagOsCORE1-0.a(sysMutex.o)
 .data          0x0000000000000000        0x0 ../PM_FW_COMMON/Srv/Scheduler/lib/CORE1/cagOsCORE1-0.a(sysOsIrq.o)
 .bss           0x0000000000000000        0x0 ../PM_FW_COMMON/Srv/Scheduler/lib/CORE1/cagOsCORE1-0.a(sysOsIrq.o)
 .data          0x0000000000000000        0x0 ../PM_FW_COMMON/Srv/Scheduler/lib/CORE1/cagOsCORE1-0.a(sysOsSwitchALib.o)
 .bss           0x0000000000000000        0x0 ../PM_FW_COMMON/Srv/Scheduler/lib/CORE1/cagOsCORE1-0.a(sysOsSwitchALib.o)
 .text          0x0000000000000000        0x0 ../PM_FW_COMMON/Srv/Scheduler/lib/CORE1/cagOsCORE1-0.a(sysPrio.o)
 .data          0x0000000000000000        0x0 ../PM_FW_COMMON/Srv/Scheduler/lib/CORE1/cagOsCORE1-0.a(sysPrio.o)
 .bss           0x0000000000000000        0x0 ../PM_FW_COMMON/Srv/Scheduler/lib/CORE1/cagOsCORE1-0.a(sysPrio.o)
 .text          0x0000000000000000        0x0 ../PM_FW_COMMON/Srv/Scheduler/lib/CORE1/cagOsCORE1-0.a(sysQueue.o)
 .data          0x0000000000000000        0x0 ../PM_FW_COMMON/Srv/Scheduler/lib/CORE1/cagOsCORE1-0.a(sysQueue.o)
 .bss           0x0000000000000000        0x0 ../PM_FW_COMMON/Srv/Scheduler/lib/CORE1/cagOsCORE1-0.a(sysQueue.o)
 .text.OSQCreate
                0x0000000000000000      0x10c ../PM_FW_COMMON/Srv/Scheduler/lib/CORE1/cagOsCORE1-0.a(sysQueue.o)
 .text.OSQDel   0x0000000000000000      0x1fc ../PM_FW_COMMON/Srv/Scheduler/lib/CORE1/cagOsCORE1-0.a(sysQueue.o)
 .text.OSQFlush
                0x0000000000000000       0xb4 ../PM_FW_COMMON/Srv/Scheduler/lib/CORE1/cagOsCORE1-0.a(sysQueue.o)
 .text.OSQPend  0x0000000000000000      0x344 ../PM_FW_COMMON/Srv/Scheduler/lib/CORE1/cagOsCORE1-0.a(sysQueue.o)
 .rodata.OSQPend
                0x0000000000000000       0x10 ../PM_FW_COMMON/Srv/Scheduler/lib/CORE1/cagOsCORE1-0.a(sysQueue.o)
 .text.OSQPendAbort
                0x0000000000000000      0x1b8 ../PM_FW_COMMON/Srv/Scheduler/lib/CORE1/cagOsCORE1-0.a(sysQueue.o)
 .text.OSQPost  0x0000000000000000      0x134 ../PM_FW_COMMON/Srv/Scheduler/lib/CORE1/cagOsCORE1-0.a(sysQueue.o)
 .text.OS_QClr  0x0000000000000000       0x74 ../PM_FW_COMMON/Srv/Scheduler/lib/CORE1/cagOsCORE1-0.a(sysQueue.o)
 .text.OS_QPost
                0x0000000000000000      0x194 ../PM_FW_COMMON/Srv/Scheduler/lib/CORE1/cagOsCORE1-0.a(sysQueue.o)
 .text          0x0000000000000000        0x0 ../PM_FW_COMMON/Srv/Scheduler/lib/CORE1/cagOsCORE1-0.a(sysSem.o)
 .data          0x0000000000000000        0x0 ../PM_FW_COMMON/Srv/Scheduler/lib/CORE1/cagOsCORE1-0.a(sysSem.o)
 .bss           0x0000000000000000        0x0 ../PM_FW_COMMON/Srv/Scheduler/lib/CORE1/cagOsCORE1-0.a(sysSem.o)
 .text.OSSemDel
                0x0000000000000000      0x1fc ../PM_FW_COMMON/Srv/Scheduler/lib/CORE1/cagOsCORE1-0.a(sysSem.o)
 .text.OSSemPendAbort
                0x0000000000000000      0x1b8 ../PM_FW_COMMON/Srv/Scheduler/lib/CORE1/cagOsCORE1-0.a(sysSem.o)
 .text.OSSemSet
                0x0000000000000000       0xe8 ../PM_FW_COMMON/Srv/Scheduler/lib/CORE1/cagOsCORE1-0.a(sysSem.o)
 .text.OS_SemClr
                0x0000000000000000       0x68 ../PM_FW_COMMON/Srv/Scheduler/lib/CORE1/cagOsCORE1-0.a(sysSem.o)
 .data          0x0000000000000000        0x0 ../PM_FW_COMMON/Srv/Scheduler/lib/CORE1/cagOsCORE1-0.a(sysSpeVectorALib.o)
 .bss           0x0000000000000000        0x0 ../PM_FW_COMMON/Srv/Scheduler/lib/CORE1/cagOsCORE1-0.a(sysSpeVectorALib.o)
 .text          0x0000000000000000        0x0 ../PM_FW_COMMON/Srv/Scheduler/lib/CORE1/cagOsCORE1-0.a(bits.o)
 .data          0x0000000000000000        0x0 ../PM_FW_COMMON/Srv/Scheduler/lib/CORE1/cagOsCORE1-0.a(bits.o)
 .bss           0x0000000000000000        0x0 ../PM_FW_COMMON/Srv/Scheduler/lib/CORE1/cagOsCORE1-0.a(bits.o)
 .text.get_all_one
                0x0000000000000000       0x68 ../PM_FW_COMMON/Srv/Scheduler/lib/CORE1/cagOsCORE1-0.a(bits.o)
 .text          0x0000000000000000        0x0 ../PM_FW_COMMON/Srv/Scheduler/lib/CORE1/cagOsCORE1-0.a(bLib.o)
 .data          0x0000000000000000        0x0 ../PM_FW_COMMON/Srv/Scheduler/lib/CORE1/cagOsCORE1-0.a(bLib.o)
 .bss           0x0000000000000000        0x0 ../PM_FW_COMMON/Srv/Scheduler/lib/CORE1/cagOsCORE1-0.a(bLib.o)
 .text.bcmp     0x0000000000000000       0xdc ../PM_FW_COMMON/Srv/Scheduler/lib/CORE1/cagOsCORE1-0.a(bLib.o)
 .text.binvert  0x0000000000000000       0x98 ../PM_FW_COMMON/Srv/Scheduler/lib/CORE1/cagOsCORE1-0.a(bLib.o)
 .text.bswap    0x0000000000000000       0x90 ../PM_FW_COMMON/Srv/Scheduler/lib/CORE1/cagOsCORE1-0.a(bLib.o)
 .text.swab     0x0000000000000000       0xa0 ../PM_FW_COMMON/Srv/Scheduler/lib/CORE1/cagOsCORE1-0.a(bLib.o)
 .text.uswab    0x0000000000000000       0xac ../PM_FW_COMMON/Srv/Scheduler/lib/CORE1/cagOsCORE1-0.a(bLib.o)
 .text.bzero    0x0000000000000000       0x44 ../PM_FW_COMMON/Srv/Scheduler/lib/CORE1/cagOsCORE1-0.a(bLib.o)
 .text.bcopyBytes
                0x0000000000000000      0x11c ../PM_FW_COMMON/Srv/Scheduler/lib/CORE1/cagOsCORE1-0.a(bLib.o)
 .text.bcopyWords
                0x0000000000000000      0x134 ../PM_FW_COMMON/Srv/Scheduler/lib/CORE1/cagOsCORE1-0.a(bLib.o)
 .text.bcopyLongs
                0x0000000000000000      0x12c ../PM_FW_COMMON/Srv/Scheduler/lib/CORE1/cagOsCORE1-0.a(bLib.o)
 .text.bcopyQuads
                0x0000000000000000      0x140 ../PM_FW_COMMON/Srv/Scheduler/lib/CORE1/cagOsCORE1-0.a(bLib.o)
 .text.bfillBytes
                0x0000000000000000       0x6c ../PM_FW_COMMON/Srv/Scheduler/lib/CORE1/cagOsCORE1-0.a(bLib.o)
 .text.index    0x0000000000000000       0x98 ../PM_FW_COMMON/Srv/Scheduler/lib/CORE1/cagOsCORE1-0.a(bLib.o)
 .text.rindex   0x0000000000000000       0x9c ../PM_FW_COMMON/Srv/Scheduler/lib/CORE1/cagOsCORE1-0.a(bLib.o)
 .text          0x0000000000000000        0x0 ../PM_FW_COMMON/Srv/Scheduler/lib/CORE1/cagOsCORE1-0.a(fpga.o)
 .data          0x0000000000000000        0x0 ../PM_FW_COMMON/Srv/Scheduler/lib/CORE1/cagOsCORE1-0.a(fpga.o)
 .bss           0x0000000000000000        0x0 ../PM_FW_COMMON/Srv/Scheduler/lib/CORE1/cagOsCORE1-0.a(fpga.o)
 .text          0x0000000000000000        0x0 ../PM_FW_COMMON/Srv/Scheduler/lib/CORE1/cagOsCORE1-0.a(fs_api.o)
 .data          0x0000000000000000        0x0 ../PM_FW_COMMON/Srv/Scheduler/lib/CORE1/cagOsCORE1-0.a(fs_api.o)
 .bss           0x0000000000000000        0x0 ../PM_FW_COMMON/Srv/Scheduler/lib/CORE1/cagOsCORE1-0.a(fs_api.o)
 .text.fs_flash_read
                0x0000000000000000       0x58 ../PM_FW_COMMON/Srv/Scheduler/lib/CORE1/cagOsCORE1-0.a(fs_api.o)
 .text.fs_mount
                0x0000000000000000       0x6c ../PM_FW_COMMON/Srv/Scheduler/lib/CORE1/cagOsCORE1-0.a(fs_api.o)
 .text.fs_umount
                0x0000000000000000      0x158 ../PM_FW_COMMON/Srv/Scheduler/lib/CORE1/cagOsCORE1-0.a(fs_api.o)
 .text.fs_umount2
                0x0000000000000000       0x60 ../PM_FW_COMMON/Srv/Scheduler/lib/CORE1/cagOsCORE1-0.a(fs_api.o)
 .text.fs_file_len2
                0x0000000000000000      0x1b0 ../PM_FW_COMMON/Srv/Scheduler/lib/CORE1/cagOsCORE1-0.a(fs_api.o)
 .text.fs_rename2
                0x0000000000000000      0x168 ../PM_FW_COMMON/Srv/Scheduler/lib/CORE1/cagOsCORE1-0.a(fs_api.o)
 .text.fs_lseek
                0x0000000000000000      0x230 ../PM_FW_COMMON/Srv/Scheduler/lib/CORE1/cagOsCORE1-0.a(fs_api.o)
 .text.fs_free  0x0000000000000000      0x154 ../PM_FW_COMMON/Srv/Scheduler/lib/CORE1/cagOsCORE1-0.a(fs_api.o)
 .text.fs_free2
                0x0000000000000000      0x1d0 ../PM_FW_COMMON/Srv/Scheduler/lib/CORE1/cagOsCORE1-0.a(fs_api.o)
 .text.fs_used  0x0000000000000000      0x154 ../PM_FW_COMMON/Srv/Scheduler/lib/CORE1/cagOsCORE1-0.a(fs_api.o)
 .text.fs_used2
                0x0000000000000000      0x1d0 ../PM_FW_COMMON/Srv/Scheduler/lib/CORE1/cagOsCORE1-0.a(fs_api.o)
 .text.fs_remove2
                0x0000000000000000      0x160 ../PM_FW_COMMON/Srv/Scheduler/lib/CORE1/cagOsCORE1-0.a(fs_api.o)
 .text.fs_format2
                0x0000000000000000      0x158 ../PM_FW_COMMON/Srv/Scheduler/lib/CORE1/cagOsCORE1-0.a(fs_api.o)
 .text.fs_ls2   0x0000000000000000      0x6c8 ../PM_FW_COMMON/Srv/Scheduler/lib/CORE1/cagOsCORE1-0.a(fs_api.o)
 .text          0x0000000000000000        0x0 ../PM_FW_COMMON/Srv/Scheduler/lib/CORE1/cagOsCORE1-0.a(strcmp.o)
 .data          0x0000000000000000        0x0 ../PM_FW_COMMON/Srv/Scheduler/lib/CORE1/cagOsCORE1-0.a(strcmp.o)
 .bss           0x0000000000000000        0x0 ../PM_FW_COMMON/Srv/Scheduler/lib/CORE1/cagOsCORE1-0.a(strcmp.o)
 .text          0x0000000000000000        0x0 ../PM_FW_COMMON/Srv/Scheduler/lib/CORE1/cagOsCORE1-0.a(sysApi.o)
 .data          0x0000000000000000        0x0 ../PM_FW_COMMON/Srv/Scheduler/lib/CORE1/cagOsCORE1-0.a(sysApi.o)
 .bss           0x0000000000000000        0x0 ../PM_FW_COMMON/Srv/Scheduler/lib/CORE1/cagOsCORE1-0.a(sysApi.o)
 .sdata.rts_name
                0x0000000000000000        0x8 ../PM_FW_COMMON/Srv/Scheduler/lib/CORE1/cagOsCORE1-0.a(sysApi.o)
 .text.os_get_prio
                0x0000000000000000       0x2c ../PM_FW_COMMON/Srv/Scheduler/lib/CORE1/cagOsCORE1-0.a(sysApi.o)
 .text.os_get_pos
                0x0000000000000000       0x2c ../PM_FW_COMMON/Srv/Scheduler/lib/CORE1/cagOsCORE1-0.a(sysApi.o)
 .text.os_del_task
                0x0000000000000000       0xe0 ../PM_FW_COMMON/Srv/Scheduler/lib/CORE1/cagOsCORE1-0.a(sysApi.o)
 .text.os_resume_task
                0x0000000000000000       0xb4 ../PM_FW_COMMON/Srv/Scheduler/lib/CORE1/cagOsCORE1-0.a(sysApi.o)
 .text.os_suspend_task
                0x0000000000000000       0xb4 ../PM_FW_COMMON/Srv/Scheduler/lib/CORE1/cagOsCORE1-0.a(sysApi.o)
 .text.os_task_set_ts
                0x0000000000000000       0xbc ../PM_FW_COMMON/Srv/Scheduler/lib/CORE1/cagOsCORE1-0.a(sysApi.o)
 .text.os_delay_task
                0x0000000000000000       0x48 ../PM_FW_COMMON/Srv/Scheduler/lib/CORE1/cagOsCORE1-0.a(sysApi.o)
 .text.os_queue_create
                0x0000000000000000      0x100 ../PM_FW_COMMON/Srv/Scheduler/lib/CORE1/cagOsCORE1-0.a(sysApi.o)
 .text.os_queue_del
                0x0000000000000000       0xf8 ../PM_FW_COMMON/Srv/Scheduler/lib/CORE1/cagOsCORE1-0.a(sysApi.o)
 .text.os_queue_post
                0x0000000000000000      0x108 ../PM_FW_COMMON/Srv/Scheduler/lib/CORE1/cagOsCORE1-0.a(sysApi.o)
 .text.os_queue_get
                0x0000000000000000      0x128 ../PM_FW_COMMON/Srv/Scheduler/lib/CORE1/cagOsCORE1-0.a(sysApi.o)
 .text.os_sem_del
                0x0000000000000000       0xf4 ../PM_FW_COMMON/Srv/Scheduler/lib/CORE1/cagOsCORE1-0.a(sysApi.o)
 .text.os_mutex_create
                0x0000000000000000       0xe0 ../PM_FW_COMMON/Srv/Scheduler/lib/CORE1/cagOsCORE1-0.a(sysApi.o)
 .text.os_mutex_del
                0x0000000000000000       0xe4 ../PM_FW_COMMON/Srv/Scheduler/lib/CORE1/cagOsCORE1-0.a(sysApi.o)
 .text.os_mutex_pend
                0x0000000000000000      0x108 ../PM_FW_COMMON/Srv/Scheduler/lib/CORE1/cagOsCORE1-0.a(sysApi.o)
 .text.os_mutex_post
                0x0000000000000000       0xe4 ../PM_FW_COMMON/Srv/Scheduler/lib/CORE1/cagOsCORE1-0.a(sysApi.o)
 .text.os_copy_data
                0x0000000000000000       0x84 ../PM_FW_COMMON/Srv/Scheduler/lib/CORE1/cagOsCORE1-0.a(sysApi.o)
 .text.os_copy_stack
                0x0000000000000000       0x9c ../PM_FW_COMMON/Srv/Scheduler/lib/CORE1/cagOsCORE1-0.a(sysApi.o)
 .text.os_clear_stack
                0x0000000000000000       0x8c ../PM_FW_COMMON/Srv/Scheduler/lib/CORE1/cagOsCORE1-0.a(sysApi.o)
 .text.os_clear_data
                0x0000000000000000       0x84 ../PM_FW_COMMON/Srv/Scheduler/lib/CORE1/cagOsCORE1-0.a(sysApi.o)
 .text.os_get_tno
                0x0000000000000000       0xcc ../PM_FW_COMMON/Srv/Scheduler/lib/CORE1/cagOsCORE1-0.a(sysApi.o)
 .data          0x0000000000000000        0x0 ../PM_FW_COMMON/Srv/Scheduler/lib/CORE1/cagOsCORE1-0.a(sysCacheE500ALib.o)
 .bss           0x0000000000000000        0x0 ../PM_FW_COMMON/Srv/Scheduler/lib/CORE1/cagOsCORE1-0.a(sysCacheE500ALib.o)
 .text          0x0000000000000000        0x0 ../PM_FW_COMMON/Srv/Scheduler/lib/CORE1/cagOsCORE1-0.a(sysCount.o)
 .data          0x0000000000000000        0x0 ../PM_FW_COMMON/Srv/Scheduler/lib/CORE1/cagOsCORE1-0.a(sysCount.o)
 .bss           0x0000000000000000        0x0 ../PM_FW_COMMON/Srv/Scheduler/lib/CORE1/cagOsCORE1-0.a(sysCount.o)
 .text          0x0000000000000000        0x0 ../PM_FW_COMMON/Srv/SharedMem/src/SharedRtData.o
 .data          0x0000000000000000        0x0 ../PM_FW_COMMON/Srv/SharedMem/src/SharedRtData.o
 .bss           0x0000000000000000        0x0 ../PM_FW_COMMON/Srv/SharedMem/src/SharedRtData.o
 .text          0x0000000000000000        0x0 ../PM_FW_COMMON/Srv/SharedMem/src/SharedComm.o
 .data          0x0000000000000000        0x0 ../PM_FW_COMMON/Srv/SharedMem/src/SharedComm.o
 .bss           0x0000000000000000        0x0 ../PM_FW_COMMON/Srv/SharedMem/src/SharedComm.o
 .text          0x0000000000000000        0x0 ../PM_FW_COMMON/Srv/SharedMem/src/SharedConfig.o
 .data          0x0000000000000000        0x0 ../PM_FW_COMMON/Srv/SharedMem/src/SharedConfig.o
 .bss           0x0000000000000000        0x0 ../PM_FW_COMMON/Srv/SharedMem/src/SharedConfig.o
 .text.SharedGetLogicInfo
                0x0000000000000000       0x88 ../PM_FW_COMMON/Srv/SharedMem/src/SharedConfig.o
 .text.SharedGetExLibInfo
                0x0000000000000000       0x88 ../PM_FW_COMMON/Srv/SharedMem/src/SharedConfig.o
 .text.SharedGetModbusMasterInfo
                0x0000000000000000       0x90 ../PM_FW_COMMON/Srv/SharedMem/src/SharedConfig.o
 .text.SharedGetModbusSlaveInfo
                0x0000000000000000       0x90 ../PM_FW_COMMON/Srv/SharedMem/src/SharedConfig.o
 .text.SharedGetVOTEConfigInfo
                0x0000000000000000       0x90 ../PM_FW_COMMON/Srv/SharedMem/src/SharedConfig.o
 .text.SharedGetRetainVarInfo
                0x0000000000000000       0x88 ../PM_FW_COMMON/Srv/SharedMem/src/SharedConfig.o
 .text.SysClearDownloadAllStartFlag
                0x0000000000000000       0x40 ../PM_FW_COMMON/Srv/SharedMem/src/SharedConfig.o
 .text.SharedSwitchLogicInfo
                0x0000000000000000       0xa8 ../PM_FW_COMMON/Srv/SharedMem/src/SharedConfig.o
 .text.SharedSwitchExLibInfo
                0x0000000000000000       0xa8 ../PM_FW_COMMON/Srv/SharedMem/src/SharedConfig.o
 .text.SharedSwitchIoModInfo
                0x0000000000000000       0xa8 ../PM_FW_COMMON/Srv/SharedMem/src/SharedConfig.o
 .text.SharedSwitchCtrlStationInfo
                0x0000000000000000       0xa8 ../PM_FW_COMMON/Srv/SharedMem/src/SharedConfig.o
 .text.SharedSwitchSOEConfigInfo
                0x0000000000000000       0xa8 ../PM_FW_COMMON/Srv/SharedMem/src/SharedConfig.o
 .text.SharedSwitchP2PConfigInfo
                0x0000000000000000       0xa8 ../PM_FW_COMMON/Srv/SharedMem/src/SharedConfig.o
 .text.SharedSwitchModbusMasterInfo
                0x0000000000000000       0xa8 ../PM_FW_COMMON/Srv/SharedMem/src/SharedConfig.o
 .text.SharedSwitchModbusSlaveInfo
                0x0000000000000000       0xa8 ../PM_FW_COMMON/Srv/SharedMem/src/SharedConfig.o
 .text.SharedSwitchVOTEConfigInfo
                0x0000000000000000       0xa8 ../PM_FW_COMMON/Srv/SharedMem/src/SharedConfig.o
 .text.SharedSwitchRetainVarInfo
                0x0000000000000000       0xa8 ../PM_FW_COMMON/Srv/SharedMem/src/SharedConfig.o
 .text.SharedSwitchCMConfigInfo
                0x0000000000000000       0xa8 ../PM_FW_COMMON/Srv/SharedMem/src/SharedConfig.o
 .text.SharedSwitchCMSlotIdTabl
                0x0000000000000000       0xa8 ../PM_FW_COMMON/Srv/SharedMem/src/SharedConfig.o
 .text.SharedSwitchAllConfigInfo
                0x0000000000000000       0x70 ../PM_FW_COMMON/Srv/SharedMem/src/SharedConfig.o
 .text.SysGetPrjShedTime
                0x0000000000000000       0xc4 ../PM_FW_COMMON/Srv/SharedMem/src/SharedConfig.o
 .text.SharedGetCodeArea
                0x0000000000000000      0x128 ../PM_FW_COMMON/Srv/SharedMem/src/SharedConfig.o
 .text.SharedSwitchCodeArea
                0x0000000000000000       0xa8 ../PM_FW_COMMON/Srv/SharedMem/src/SharedConfig.o
 .text.SharedGetTaskCodeEntry
                0x0000000000000000      0x1d4 ../PM_FW_COMMON/Srv/SharedMem/src/SharedConfig.o
 .text.SharedGetTaskGlobalInitEntry
                0x0000000000000000      0x15c ../PM_FW_COMMON/Srv/SharedMem/src/SharedConfig.o
 .text.SharedGetTaskChangeGlobalInitEntry
                0x0000000000000000      0x15c ../PM_FW_COMMON/Srv/SharedMem/src/SharedConfig.o
 .text.SharedGetTaskActive
                0x0000000000000000       0xc4 ../PM_FW_COMMON/Srv/SharedMem/src/SharedConfig.o
 .text.SysGetTaskSingleStepFlg
                0x0000000000000000       0x6c ../PM_FW_COMMON/Srv/SharedMem/src/SharedConfig.o
 .text.SysSetTaskSingleStepFlg
                0x0000000000000000       0x70 ../PM_FW_COMMON/Srv/SharedMem/src/SharedConfig.o
 .text.SharedGetModType
                0x0000000000000000       0xb4 ../PM_FW_COMMON/Srv/SharedMem/src/SharedConfig.o
 .text.SharedGetVoteInfo
                0x0000000000000000       0x90 ../PM_FW_COMMON/Srv/SharedMem/src/SharedConfig.o
 .text.SharedGetVoteTolerate
                0x0000000000000000       0x6c ../PM_FW_COMMON/Srv/SharedMem/src/SharedConfig.o
 .text.SharedGetP2PBlockRecvActive
                0x0000000000000000       0xc4 ../PM_FW_COMMON/Srv/SharedMem/src/SharedConfig.o
 .text.SharedGetP2PRecvBlockInfo
                0x0000000000000000       0xf4 ../PM_FW_COMMON/Srv/SharedMem/src/SharedConfig.o
 .text.SharedGetPowerOnConfigSwitchFlg
                0x0000000000000000       0x40 ../PM_FW_COMMON/Srv/SharedMem/src/SharedConfig.o
 .text.SharedSwitchUsedParaBufID
                0x0000000000000000       0x98 ../PM_FW_COMMON/Srv/SharedMem/src/SharedConfig.o
 .text.SharedRecordTmpAvailable
                0x0000000000000000      0x120 ../PM_FW_COMMON/Srv/SharedMem/src/SharedConfig.o
 .text.SharedClearIOTmpAvailable
                0x0000000000000000       0x64 ../PM_FW_COMMON/Srv/SharedMem/src/SharedConfig.o
 .text.SharedClearCSTmpAvailable
                0x0000000000000000       0x64 ../PM_FW_COMMON/Srv/SharedMem/src/SharedConfig.o
 .text.SharedClearCodeTmpAvailable
                0x0000000000000000       0x64 ../PM_FW_COMMON/Srv/SharedMem/src/SharedConfig.o
 .text.SharedClearSOETmpAvailable
                0x0000000000000000       0x64 ../PM_FW_COMMON/Srv/SharedMem/src/SharedConfig.o
 .text.SharedOnlineDownLoadFillDualDataTable
                0x0000000000000000      0x48c ../PM_FW_COMMON/Srv/SharedMem/src/SharedConfig.o
 .text.SharedGetModConfigChangeFlg
                0x0000000000000000       0x60 ../PM_FW_COMMON/Srv/SharedMem/src/SharedConfig.o
 .text.SharedGetDisableRecoverFlg
                0x0000000000000000       0x40 ../PM_FW_COMMON/Srv/SharedMem/src/SharedConfig.o
 .text          0x0000000000000000        0x0 ../PM_FW_COMMON/Srv/SharedMem/src/SharedMem.o
 .data          0x0000000000000000        0x0 ../PM_FW_COMMON/Srv/SharedMem/src/SharedMem.o
 .bss           0x0000000000000000        0x0 ../PM_FW_COMMON/Srv/SharedMem/src/SharedMem.o
 .text.SharedGetIECErrTime
                0x0000000000000000       0x74 ../PM_FW_COMMON/Srv/SharedMem/src/SharedMem.o
 .text.SharedAddIECErrTime
                0x0000000000000000       0xa8 ../PM_FW_COMMON/Srv/SharedMem/src/SharedMem.o
 .text.SharedGetOSCPCfg
                0x0000000000000000       0x5c ../PM_FW_COMMON/Srv/SharedMem/src/SharedMem.o
 .text          0x0000000000000000        0x0 ../PM_FW_COMMON/Srv/SharedMem/src/LED.o
 .data          0x0000000000000000        0x0 ../PM_FW_COMMON/Srv/SharedMem/src/LED.o
 .bss           0x0000000000000000        0x0 ../PM_FW_COMMON/Srv/SharedMem/src/LED.o
 .text          0x0000000000000000        0x0 ../PM_FW_COMMON/Srv/SharedMem/src/SharedWatchdog.o
 .data          0x0000000000000000        0x0 ../PM_FW_COMMON/Srv/SharedMem/src/SharedWatchdog.o
 .bss           0x0000000000000000        0x0 ../PM_FW_COMMON/Srv/SharedMem/src/SharedWatchdog.o
 .text.SysSetSMWatchdogInfo
                0x0000000000000000       0xc0 ../PM_FW_COMMON/Srv/SharedMem/src/SharedWatchdog.o
 .text          0x0000000000000000        0x0 ../PM_FW_COMMON/Srv/SharedMem/src/SharedHandshake.o
 .data          0x0000000000000000        0x0 ../PM_FW_COMMON/Srv/SharedMem/src/SharedHandshake.o
 .bss           0x0000000000000000        0x0 ../PM_FW_COMMON/Srv/SharedMem/src/SharedHandshake.o
 .text.SysGetSysTimeSignal
                0x0000000000000000      0x10c ../PM_FW_COMMON/Srv/SharedMem/src/SharedHandshake.o
 .text.SysSetSysTimeSignal
                0x0000000000000000      0x100 ../PM_FW_COMMON/Srv/SharedMem/src/SharedHandshake.o
 .text          0x0000000000000000        0x0 ../PM_FW_COMMON/Srv/SharedMem/src/SharedSafetyComm.o
 .data          0x0000000000000000        0x0 ../PM_FW_COMMON/Srv/SharedMem/src/SharedSafetyComm.o
 .bss           0x0000000000000000        0x0 ../PM_FW_COMMON/Srv/SharedMem/src/SharedSafetyComm.o
 .text.SysSetP2PRecvTolFlag
                0x0000000000000000       0x60 ../PM_FW_COMMON/Srv/SharedMem/src/SharedSafetyComm.o
 .text.SysGetP2PRecvTolFlag
                0x0000000000000000       0x68 ../PM_FW_COMMON/Srv/SharedMem/src/SharedSafetyComm.o
 .text.SysSetP2PRecvErrFlag
                0x0000000000000000       0x64 ../PM_FW_COMMON/Srv/SharedMem/src/SharedSafetyComm.o
 .text.SysGetP2PRecvErrFlag
                0x0000000000000000       0x6c ../PM_FW_COMMON/Srv/SharedMem/src/SharedSafetyComm.o
 .text.SysGetP2PRecvReqCommInfo
                0x0000000000000000       0x98 ../PM_FW_COMMON/Srv/SharedMem/src/SharedSafetyComm.o
 .text.SysGetP2PSendTolFlag
                0x0000000000000000       0x68 ../PM_FW_COMMON/Srv/SharedMem/src/SharedSafetyComm.o
 .text.SysGetP2PSendErrFlag
                0x0000000000000000       0x6c ../PM_FW_COMMON/Srv/SharedMem/src/SharedSafetyComm.o
 .text.SysGetP2PSendTimeoutFlag
                0x0000000000000000       0x6c ../PM_FW_COMMON/Srv/SharedMem/src/SharedSafetyComm.o
 .text.SysGetP2PSendReqCommInfo
                0x0000000000000000       0x98 ../PM_FW_COMMON/Srv/SharedMem/src/SharedSafetyComm.o
 .text.SysSetPMRecvTolFlag
                0x0000000000000000       0x54 ../PM_FW_COMMON/Srv/SharedMem/src/SharedSafetyComm.o
 .text.SysGetPMRecvTolFlag
                0x0000000000000000       0x5c ../PM_FW_COMMON/Srv/SharedMem/src/SharedSafetyComm.o
 .text.SysSetPMRecvErrFlag
                0x0000000000000000       0x58 ../PM_FW_COMMON/Srv/SharedMem/src/SharedSafetyComm.o
 .text.SysGetPMRecvErrFlag
                0x0000000000000000       0x60 ../PM_FW_COMMON/Srv/SharedMem/src/SharedSafetyComm.o
 .text.SysGetPMRecvCommInfo
                0x0000000000000000       0x8c ../PM_FW_COMMON/Srv/SharedMem/src/SharedSafetyComm.o
 .text.SysSetPMSendTimeoutFlag
                0x0000000000000000       0x54 ../PM_FW_COMMON/Srv/SharedMem/src/SharedSafetyComm.o
 .text.SysGetPMSendTimeoutFlag
                0x0000000000000000       0x5c ../PM_FW_COMMON/Srv/SharedMem/src/SharedSafetyComm.o
 .text.SysGetPMSendCommInfo
                0x0000000000000000       0x8c ../PM_FW_COMMON/Srv/SharedMem/src/SharedSafetyComm.o
 .text.SysSetAutoResume
                0x0000000000000000       0x34 ../PM_FW_COMMON/Srv/SharedMem/src/SharedSafetyComm.o
 .text.SysGetAutoResume
                0x0000000000000000       0x2c ../PM_FW_COMMON/Srv/SharedMem/src/SharedSafetyComm.o
 .text.SysSetUserConfirm
                0x0000000000000000       0x34 ../PM_FW_COMMON/Srv/SharedMem/src/SharedSafetyComm.o
 .text.SysGetUserConfirm
                0x0000000000000000       0x2c ../PM_FW_COMMON/Srv/SharedMem/src/SharedSafetyComm.o
 .text.SysSetPMIOTolFlag
                0x0000000000000000       0x70 ../PM_FW_COMMON/Srv/SharedMem/src/SharedSafetyComm.o
 .text.SysGetPMIOTolFlag
                0x0000000000000000       0x78 ../PM_FW_COMMON/Srv/SharedMem/src/SharedSafetyComm.o
 .text.SysSetPMIOErrFlag
                0x0000000000000000       0x74 ../PM_FW_COMMON/Srv/SharedMem/src/SharedSafetyComm.o
 .text.SysGetPMIOErrFlag
                0x0000000000000000       0x7c ../PM_FW_COMMON/Srv/SharedMem/src/SharedSafetyComm.o
 .text.SysSetPMIOSendTimeoutFlag
                0x0000000000000000       0x74 ../PM_FW_COMMON/Srv/SharedMem/src/SharedSafetyComm.o
 .text.SysGetPMIOSendTimeoutFlag
                0x0000000000000000       0x7c ../PM_FW_COMMON/Srv/SharedMem/src/SharedSafetyComm.o
 .text.SysSetPMIOFailureFlag
                0x0000000000000000       0x74 ../PM_FW_COMMON/Srv/SharedMem/src/SharedSafetyComm.o
 .text.SysGetPMIOFailureFlag
                0x0000000000000000       0x7c ../PM_FW_COMMON/Srv/SharedMem/src/SharedSafetyComm.o
 .text.SysSetPMIOFVActivedFlag
                0x0000000000000000       0x74 ../PM_FW_COMMON/Srv/SharedMem/src/SharedSafetyComm.o
 .text.SysGetPMIOFVActivedFlag
                0x0000000000000000       0x7c ../PM_FW_COMMON/Srv/SharedMem/src/SharedSafetyComm.o
 .text.SysSetPMIONewIParaFlag
                0x0000000000000000       0x74 ../PM_FW_COMMON/Srv/SharedMem/src/SharedSafetyComm.o
 .text.SysGetPMIONewIParaFlag
                0x0000000000000000       0x7c ../PM_FW_COMMON/Srv/SharedMem/src/SharedSafetyComm.o
 .text.SysGetPMIOCommInfo
                0x0000000000000000       0xa8 ../PM_FW_COMMON/Srv/SharedMem/src/SharedSafetyComm.o
 .text          0x0000000000000000        0x0 ../PM_FW_COMMON/Srv/SharedMem/src/SharedSOE.o
 .data          0x0000000000000000        0x0 ../PM_FW_COMMON/Srv/SharedMem/src/SharedSOE.o
 .bss           0x0000000000000000        0x0 ../PM_FW_COMMON/Srv/SharedMem/src/SharedSOE.o
 .rodata        0x0000000000000000       0x69 ../PM_FW_COMMON/Srv/SharedMem/src/SharedSOE.o
 .text.SharedSOEQueueCfg
                0x0000000000000000      0x700 ../PM_FW_COMMON/Srv/SharedMem/src/SharedSOE.o
 .text.SharedSetSOE
                0x0000000000000000      0x34c ../PM_FW_COMMON/Srv/SharedMem/src/SharedSOE.o
 .text.SharedSetHardSOE
                0x0000000000000000      0x888 ../PM_FW_COMMON/Srv/SharedMem/src/SharedSOE.o
 .text.SharedSetDDRSOE
                0x0000000000000000      0x624 ../PM_FW_COMMON/Srv/SharedMem/src/SharedSOE.o
 .text.SharedSetSRAMSOE
                0x0000000000000000      0x658 ../PM_FW_COMMON/Srv/SharedMem/src/SharedSOE.o
 .text          0x0000000000000000        0x0 ../PM_FW_COMMON/Srv/SharedMem/src/SharedDiagCode.o
 .data          0x0000000000000000        0x0 ../PM_FW_COMMON/Srv/SharedMem/src/SharedDiagCode.o
 .bss           0x0000000000000000        0x0 ../PM_FW_COMMON/Srv/SharedMem/src/SharedDiagCode.o
 .text          0x0000000000000000        0x0 ./Srv/SysResource/src/SysUpdate.o
 .data          0x0000000000000000        0x0 ./Srv/SysResource/src/SysUpdate.o
 .bss           0x0000000000000000        0x0 ./Srv/SysResource/src/SysUpdate.o
 .data          0x0000000000000000        0x0 /vagrant/workspace/PM_FW_COMMON/Srv/Scheduler/lib/libgcc.a(_udivdi3.o)
 .bss           0x0000000000000000        0x0 /vagrant/workspace/PM_FW_COMMON/Srv/Scheduler/lib/libgcc.a(_udivdi3.o)
 .got2          0x0000000000000000        0x0 /vagrant/workspace/PM_FW_COMMON/Srv/Scheduler/lib/libgcc.a(_udivdi3.o)
 .eh_frame      0x0000000000000000       0x5c /vagrant/workspace/PM_FW_COMMON/Srv/Scheduler/lib/libgcc.a(_udivdi3.o)
 .text          0x0000000000000000      0x3b4 /vagrant/workspace/PM_FW_COMMON/Srv/Scheduler/lib/libgcc.a(_umoddi3.o)
 .data          0x0000000000000000        0x0 /vagrant/workspace/PM_FW_COMMON/Srv/Scheduler/lib/libgcc.a(_umoddi3.o)
 .bss           0x0000000000000000        0x0 /vagrant/workspace/PM_FW_COMMON/Srv/Scheduler/lib/libgcc.a(_umoddi3.o)
 .got2          0x0000000000000000        0x0 /vagrant/workspace/PM_FW_COMMON/Srv/Scheduler/lib/libgcc.a(_umoddi3.o)
 .eh_frame      0x0000000000000000       0x50 /vagrant/workspace/PM_FW_COMMON/Srv/Scheduler/lib/libgcc.a(_umoddi3.o)
 .data          0x0000000000000000        0x0 /vagrant/workspace/PM_FW_COMMON/Srv/Scheduler/lib/libc.a(strncmp.o)
 .bss           0x0000000000000000        0x0 /vagrant/workspace/PM_FW_COMMON/Srv/Scheduler/lib/libc.a(strncmp.o)
 .eh_frame      0x0000000000000000       0x28 /vagrant/workspace/PM_FW_COMMON/Srv/Scheduler/lib/libc.a(strncmp.o)
 .text          0x0000000000000000        0x0 /vagrant/workspace/PM_FW_COMMON/Srv/Sys/src/libSysCommon.a(CommSysMonitor.o)
 .data          0x0000000000000000        0x0 /vagrant/workspace/PM_FW_COMMON/Srv/Sys/src/libSysCommon.a(CommSysMonitor.o)
 .bss           0x0000000000000000        0x0 /vagrant/workspace/PM_FW_COMMON/Srv/Sys/src/libSysCommon.a(CommSysMonitor.o)
 .bss.s_ucIECShedCtrlFlg
                0x0000000000000000        0x2 /vagrant/workspace/PM_FW_COMMON/Srv/Sys/src/libSysCommon.a(CommSysMonitor.o)
 .bss.s_ucIOPollFlg
                0x0000000000000000        0x2 /vagrant/workspace/PM_FW_COMMON/Srv/Sys/src/libSysCommon.a(CommSysMonitor.o)
 .text.SysGetIECShedCtrlFlg
                0x0000000000000000       0x3c /vagrant/workspace/PM_FW_COMMON/Srv/Sys/src/libSysCommon.a(CommSysMonitor.o)
 .text.SysSetIECShedCtrlFlg
                0x0000000000000000       0x50 /vagrant/workspace/PM_FW_COMMON/Srv/Sys/src/libSysCommon.a(CommSysMonitor.o)
 .text.SysGetIOPollFlg
                0x0000000000000000       0x3c /vagrant/workspace/PM_FW_COMMON/Srv/Sys/src/libSysCommon.a(CommSysMonitor.o)
 .text.SysSetIOPollFlg
                0x0000000000000000       0x44 /vagrant/workspace/PM_FW_COMMON/Srv/Sys/src/libSysCommon.a(CommSysMonitor.o)
 .text.SysGetOutputPollFlg
                0x0000000000000000       0x3c /vagrant/workspace/PM_FW_COMMON/Srv/Sys/src/libSysCommon.a(CommSysMonitor.o)
 .text          0x0000000000000000        0x0 /vagrant/workspace/PM_FW_COMMON/Srv/Sys/src/libSysCommon.a(SysHardware.o)
 .data          0x0000000000000000        0x0 /vagrant/workspace/PM_FW_COMMON/Srv/Sys/src/libSysCommon.a(SysHardware.o)
 .bss           0x0000000000000000        0x0 /vagrant/workspace/PM_FW_COMMON/Srv/Sys/src/libSysCommon.a(SysHardware.o)
 .text.SysSetSyncAdjustTimeLow32
                0x0000000000000000       0x84 /vagrant/workspace/PM_FW_COMMON/Srv/Sys/src/libSysCommon.a(SysHardware.o)
 .text.SysSetSyncAdjustTimeHigh16
                0x0000000000000000       0x4c /vagrant/workspace/PM_FW_COMMON/Srv/Sys/src/libSysCommon.a(SysHardware.o)
 .text.SysSetSyncAdjustTimeEnable
                0x0000000000000000       0x4c /vagrant/workspace/PM_FW_COMMON/Srv/Sys/src/libSysCommon.a(SysHardware.o)
 .text.SysGetClkDiagVal
                0x0000000000000000       0x5c /vagrant/workspace/PM_FW_COMMON/Srv/Sys/src/libSysCommon.a(SysHardware.o)
 .text.SysSelectAdjustTimePulseSrc
                0x0000000000000000       0x50 /vagrant/workspace/PM_FW_COMMON/Srv/Sys/src/libSysCommon.a(SysHardware.o)
 .text.SysSelectAdjustTimePulsePolarity
                0x0000000000000000       0x50 /vagrant/workspace/PM_FW_COMMON/Srv/Sys/src/libSysCommon.a(SysHardware.o)
 .text.SysGetWatchdogTestResult
                0x0000000000000000       0x50 /vagrant/workspace/PM_FW_COMMON/Srv/Sys/src/libSysCommon.a(SysHardware.o)
 .text.SysGetFreeCounterVal
                0x0000000000000000      0x110 /vagrant/workspace/PM_FW_COMMON/Srv/Sys/src/libSysCommon.a(SysHardware.o)
 .text.SysSetTimingPulse
                0x0000000000000000       0xc8 /vagrant/workspace/PM_FW_COMMON/Srv/Sys/src/libSysCommon.a(SysHardware.o)
 .text.SysGetTimingPulse
                0x0000000000000000       0x78 /vagrant/workspace/PM_FW_COMMON/Srv/Sys/src/libSysCommon.a(SysHardware.o)
 .text          0x0000000000000000        0x0 /vagrant/workspace/PM_FW_COMMON/Srv/IPBUS/src/libIPBUS.a(IPBUS.o)
 .data          0x0000000000000000        0x0 /vagrant/workspace/PM_FW_COMMON/Srv/IPBUS/src/libIPBUS.a(IPBUS.o)
 .bss           0x0000000000000000        0x0 /vagrant/workspace/PM_FW_COMMON/Srv/IPBUS/src/libIPBUS.a(IPBUS.o)
 .text.IPBUSGetDataRAMRight
                0x0000000000000000       0xa8 /vagrant/workspace/PM_FW_COMMON/Srv/IPBUS/src/libIPBUS.a(IPBUS.o)
 .text.IPBUSReleaseDataRAMRight
                0x0000000000000000       0x70 /vagrant/workspace/PM_FW_COMMON/Srv/IPBUS/src/libIPBUS.a(IPBUS.o)
 .text.IPBUSSetMasterAddr
                0x0000000000000000       0x40 /vagrant/workspace/PM_FW_COMMON/Srv/IPBUS/src/libIPBUS.a(IPBUS.o)
 .text.IPBUSSetRollingInterval
                0x0000000000000000       0x40 /vagrant/workspace/PM_FW_COMMON/Srv/IPBUS/src/libIPBUS.a(IPBUS.o)
 .text.IPBUSSetSlaveDelayMin
                0x0000000000000000       0x50 /vagrant/workspace/PM_FW_COMMON/Srv/IPBUS/src/libIPBUS.a(IPBUS.o)
 .text.IPBUSSetSlaveDelayMax
                0x0000000000000000       0x50 /vagrant/workspace/PM_FW_COMMON/Srv/IPBUS/src/libIPBUS.a(IPBUS.o)
 .text.IPBUSSetSlaveAckTimeout
                0x0000000000000000       0x50 /vagrant/workspace/PM_FW_COMMON/Srv/IPBUS/src/libIPBUS.a(IPBUS.o)
 .text.IPBUSSetMasterMailTimeout
                0x0000000000000000       0x50 /vagrant/workspace/PM_FW_COMMON/Srv/IPBUS/src/libIPBUS.a(IPBUS.o)
 .text.IPBUSSetRetransmissionNumber
                0x0000000000000000       0x50 /vagrant/workspace/PM_FW_COMMON/Srv/IPBUS/src/libIPBUS.a(IPBUS.o)
 .text.IPBUSGetFaultConter
                0x0000000000000000       0x54 /vagrant/workspace/PM_FW_COMMON/Srv/IPBUS/src/libIPBUS.a(IPBUS.o)
 .text.IPBUSSetWatchdogTimeout
                0x0000000000000000       0x50 /vagrant/workspace/PM_FW_COMMON/Srv/IPBUS/src/libIPBUS.a(IPBUS.o)
 .text.IPBUSMonitorMasterWatchdog
                0x0000000000000000       0xb4 /vagrant/workspace/PM_FW_COMMON/Srv/IPBUS/src/libIPBUS.a(IPBUS.o)
 .text.IPBUSGetAPPState
                0x0000000000000000       0x54 /vagrant/workspace/PM_FW_COMMON/Srv/IPBUS/src/libIPBUS.a(IPBUS.o)
 .text.IPBUSGetDeviceOnlineFlag
                0x0000000000000000       0x7c /vagrant/workspace/PM_FW_COMMON/Srv/IPBUS/src/libIPBUS.a(IPBUS.o)
 .text.IPBUSAcylicWrite
                0x0000000000000000       0x24 /vagrant/workspace/PM_FW_COMMON/Srv/IPBUS/src/libIPBUS.a(IPBUS.o)
 .text.IPBUSAcylicRead
                0x0000000000000000       0x24 /vagrant/workspace/PM_FW_COMMON/Srv/IPBUS/src/libIPBUS.a(IPBUS.o)
 .text.IPBUSGetSlaveOnlineState
                0x0000000000000000       0xf8 /vagrant/workspace/PM_FW_COMMON/Srv/IPBUS/src/libIPBUS.a(IPBUS.o)
 .text.IPBUSGetSlaveValidState
                0x0000000000000000       0xf8 /vagrant/workspace/PM_FW_COMMON/Srv/IPBUS/src/libIPBUS.a(IPBUS.o)
 .text.IPBUSGetSlaveConfigState
                0x0000000000000000       0xf8 /vagrant/workspace/PM_FW_COMMON/Srv/IPBUS/src/libIPBUS.a(IPBUS.o)
 .text.IPBUSSetAPPWatchdog
                0x0000000000000000       0x50 /vagrant/workspace/PM_FW_COMMON/Srv/IPBUS/src/libIPBUS.a(IPBUS.o)
 .text.IPBUSGetAPPWatchdog
                0x0000000000000000       0x54 /vagrant/workspace/PM_FW_COMMON/Srv/IPBUS/src/libIPBUS.a(IPBUS.o)
 .text.IPBUSGetDeviceWatchdog
                0x0000000000000000       0x54 /vagrant/workspace/PM_FW_COMMON/Srv/IPBUS/src/libIPBUS.a(IPBUS.o)
 .text          0x0000000000000000        0x0 App/Main/src/libMain.a(main.o)
 .data          0x0000000000000000        0x0 App/Main/src/libMain.a(main.o)
 .bss           0x0000000000000000        0x0 App/Main/src/libMain.a(main.o)
 .text          0x0000000000000000        0x0 App/Main/src/libMain.a(Task.o)
 .data          0x0000000000000000        0x0 App/Main/src/libMain.a(Task.o)
 .bss           0x0000000000000000        0x0 App/Main/src/libMain.a(Task.o)
 .data.s_uiSeqNum
                0x0000000000000000        0x8 App/Main/src/libMain.a(Task.o)
 .rodata.s_uiCheckTab
                0x0000000000000000       0xb0 App/Main/src/libMain.a(Task.o)
 .rodata.s_uiAddTab
                0x0000000000000000       0xb0 App/Main/src/libMain.a(Task.o)
 .text.TaskCheckRunSeq
                0x0000000000000000      0x120 App/Main/src/libMain.a(Task.o)
 .text          0x0000000000000000        0x0 App/Comm/src/libComm.a(Comm.o)
 .data          0x0000000000000000        0x0 App/Comm/src/libComm.a(Comm.o)
 .bss           0x0000000000000000        0x0 App/Comm/src/libComm.a(Comm.o)
 .text.CommClearP2PWaitAckFlg
                0x0000000000000000       0xb4 App/Comm/src/libComm.a(Comm.o)
 .data.s_usTest1.5530
                0x0000000000000000        0x2 App/Comm/src/libComm.a(Comm.o)
 .text          0x0000000000000000        0x0 App/Diag/src/libDiag.a(Diag.o)
 .data          0x0000000000000000        0x0 App/Diag/src/libDiag.a(Diag.o)
 .bss           0x0000000000000000        0x0 App/Diag/src/libDiag.a(Diag.o)
 .text          0x0000000000000000        0x0 App/FileManager/src/libFileManager.a(FileManager.o)
 .data          0x0000000000000000        0x0 App/FileManager/src/libFileManager.a(FileManager.o)
 .bss           0x0000000000000000        0x0 App/FileManager/src/libFileManager.a(FileManager.o)
 .text          0x0000000000000000        0x0 App/Manager/src/libManager.a(Manager.o)
 .data          0x0000000000000000        0x0 App/Manager/src/libManager.a(Manager.o)
 .bss           0x0000000000000000        0x0 App/Manager/src/libManager.a(Manager.o)
 .text          0x0000000000000000        0x0 App/Manager/src/libManager.a(Key.o)
 .data          0x0000000000000000        0x0 App/Manager/src/libManager.a(Key.o)
 .bss           0x0000000000000000        0x0 App/Manager/src/libManager.a(Key.o)
 .text          0x0000000000000000        0x0 App/Manager/src/libManager.a(Watchdog.o)
 .data          0x0000000000000000        0x0 App/Manager/src/libManager.a(Watchdog.o)
 .bss           0x0000000000000000        0x0 App/Manager/src/libManager.a(Watchdog.o)
 .text          0x0000000000000000        0x0 App/Monitor/src/libMonitor.a(Monitor.o)
 .data          0x0000000000000000        0x0 App/Monitor/src/libMonitor.a(Monitor.o)
 .bss           0x0000000000000000        0x0 App/Monitor/src/libMonitor.a(Monitor.o)
 .text          0x0000000000000000        0x0 App/ProjectConfig/src/libProjectConfig.a(Config.o)
 .data          0x0000000000000000        0x0 App/ProjectConfig/src/libProjectConfig.a(Config.o)
 .bss           0x0000000000000000        0x0 App/ProjectConfig/src/libProjectConfig.a(Config.o)
 .sdata.ucTrace
                0x0000000000000000        0x1 App/ProjectConfig/src/libProjectConfig.a(Config.o)
 .text          0x0000000000000000        0x0 App/Sync/src/libSync.a(Sync.o)
 .data          0x0000000000000000        0x0 App/Sync/src/libSync.a(Sync.o)
 .bss           0x0000000000000000        0x0 App/Sync/src/libSync.a(Sync.o)
 .text.SyncWriteFileStart
                0x0000000000000000      0x6e8 App/Sync/src/libSync.a(Sync.o)
 .rodata.SyncWriteFileStart
                0x0000000000000000       0x38 App/Sync/src/libSync.a(Sync.o)
 .text.SyncWriteFileContinue
                0x0000000000000000      0x4bc App/Sync/src/libSync.a(Sync.o)
 .rodata.SyncWriteFileContinue
                0x0000000000000000       0x38 App/Sync/src/libSync.a(Sync.o)
 .text.SyncWriteFileEnd
                0x0000000000000000      0x764 App/Sync/src/libSync.a(Sync.o)
 .rodata.SyncWriteFileEnd
                0x0000000000000000       0x38 App/Sync/src/libSync.a(Sync.o)
 .data.ucSubSeason.5817
                0x0000000000000000        0x1 App/Sync/src/libSync.a(Sync.o)
 .data.emProcessStag.5816
                0x0000000000000000        0x4 App/Sync/src/libSync.a(Sync.o)
 .data.pstFileInfo.5819
                0x0000000000000000        0x4 App/Sync/src/libSync.a(Sync.o)
 .data.ucSubSeason.5837
                0x0000000000000000        0x1 App/Sync/src/libSync.a(Sync.o)
 .data.emProcessStag.5836
                0x0000000000000000        0x4 App/Sync/src/libSync.a(Sync.o)
 .data.pstFileInfo.5839
                0x0000000000000000        0x4 App/Sync/src/libSync.a(Sync.o)
 .data.emProcessStag.5851
                0x0000000000000000        0x4 App/Sync/src/libSync.a(Sync.o)
 .data.pstFileInfo.5854
                0x0000000000000000        0x4 App/Sync/src/libSync.a(Sync.o)
 .data.ucSubSeason.5852
                0x0000000000000000        0x1 App/Sync/src/libSync.a(Sync.o)
 .text          0x0000000000000000        0x0 App/SysStateManager/src/libSysStateManager.a(StateMngt.o)
 .data          0x0000000000000000        0x0 App/SysStateManager/src/libSysStateManager.a(StateMngt.o)
 .bss           0x0000000000000000        0x0 App/SysStateManager/src/libSysStateManager.a(StateMngt.o)
 .text.SysStateHandle1
                0x0000000000000000       0x20 App/SysStateManager/src/libSysStateManager.a(StateMngt.o)
 .text.SysStateHandle2
                0x0000000000000000       0x20 App/SysStateManager/src/libSysStateManager.a(StateMngt.o)
 .text.SysStateHandle4
                0x0000000000000000       0x20 App/SysStateManager/src/libSysStateManager.a(StateMngt.o)
 .text.SysStateHandle6
                0x0000000000000000       0x20 App/SysStateManager/src/libSysStateManager.a(StateMngt.o)
 .text.SysStateHandle7
                0x0000000000000000       0x20 App/SysStateManager/src/libSysStateManager.a(StateMngt.o)
 .text.SysStateHandle8
                0x0000000000000000       0x20 App/SysStateManager/src/libSysStateManager.a(StateMngt.o)
 .data.sucTest.4825
                0x0000000000000000        0x1 App/SysStateManager/src/libSysStateManager.a(StateMngt.o)
 .text          0x0000000000000000        0x0 Srv/CommProtocol/src/libCMBusProtocol.a(CMBusProtocol.o)
 .data          0x0000000000000000        0x0 Srv/CommProtocol/src/libCMBusProtocol.a(CMBusProtocol.o)
 .bss           0x0000000000000000        0x0 Srv/CommProtocol/src/libCMBusProtocol.a(CMBusProtocol.o)
 .text          0x0000000000000000        0x0 Srv/CommProtocol/src/libCMBusProtocol.a(CMTable.o)
 .data          0x0000000000000000        0x0 Srv/CommProtocol/src/libCMBusProtocol.a(CMTable.o)
 .bss           0x0000000000000000        0x0 Srv/CommProtocol/src/libCMBusProtocol.a(CMTable.o)
 .text.CMLogicIDToSLotID
                0x0000000000000000       0xc0 Srv/CommProtocol/src/libCMBusProtocol.a(CMTable.o)
 .text          0x0000000000000000        0x0 Srv/SysResource/src/libSys.a(SysCfgFile.o)
 .data          0x0000000000000000        0x0 Srv/SysResource/src/libSys.a(SysCfgFile.o)
 .bss           0x0000000000000000        0x0 Srv/SysResource/src/libSys.a(SysCfgFile.o)
 .text          0x0000000000000000        0x0 Srv/SysResource/src/libSys.a(SysCMBus.o)
 .data          0x0000000000000000        0x0 Srv/SysResource/src/libSys.a(SysCMBus.o)
 .bss           0x0000000000000000        0x0 Srv/SysResource/src/libSys.a(SysCMBus.o)
 .text          0x0000000000000000        0x0 Srv/SysResource/src/libSys.a(SysCommon.o)
 .data          0x0000000000000000        0x0 Srv/SysResource/src/libSys.a(SysCommon.o)
 .bss           0x0000000000000000        0x0 Srv/SysResource/src/libSys.a(SysCommon.o)
 .text.SysGetPMState
                0x0000000000000000       0x70 Srv/SysResource/src/libSys.a(SysCommon.o)
 .text.SysGetSysCMState
                0x0000000000000000       0x54 Srv/SysResource/src/libSys.a(SysCommon.o)
 .text.SysGetCMState
                0x0000000000000000       0x74 Srv/SysResource/src/libSys.a(SysCommon.o)
 .text.SysSetCMSysState
                0x0000000000000000       0x6c Srv/SysResource/src/libSys.a(SysCommon.o)
 .text.SysSetSysState
                0x0000000000000000       0x6c Srv/SysResource/src/libSys.a(SysCommon.o)
 .text.SysGetPMSysTime
                0x0000000000000000      0x120 Srv/SysResource/src/libSys.a(SysCommon.o)
 .text.SysSetSystemTime
                0x0000000000000000      0x1b0 Srv/SysResource/src/libSys.a(SysCommon.o)
 .text.SysGetCMSystemTime
                0x0000000000000000      0x114 Srv/SysResource/src/libSys.a(SysCommon.o)
 .text.SysSetFileDownloadFlg
                0x0000000000000000       0x6c Srv/SysResource/src/libSys.a(SysCommon.o)
 .text.SysGetFileDownloadFlg
                0x0000000000000000       0x54 Srv/SysResource/src/libSys.a(SysCommon.o)
 .text.SysSetFileNewConfigFlg
                0x0000000000000000       0x74 Srv/SysResource/src/libSys.a(SysCommon.o)
 .text.SysGetFileNewConfigFlg
                0x0000000000000000       0x5c Srv/SysResource/src/libSys.a(SysCommon.o)
 .text.SysGetCMVer
                0x0000000000000000       0x58 Srv/SysResource/src/libSys.a(SysCommon.o)
 .text.SysGetCMLEDState
                0x0000000000000000       0x58 Srv/SysResource/src/libSys.a(SysCommon.o)
 .text          0x0000000000000000        0x0 Srv/SysResource/src/libSys.a(SysFileManager.o)
 .data          0x0000000000000000        0x0 Srv/SysResource/src/libSys.a(SysFileManager.o)
 .bss           0x0000000000000000        0x0 Srv/SysResource/src/libSys.a(SysFileManager.o)
 .text.SysReadFile
                0x0000000000000000      0x1f8 Srv/SysResource/src/libSys.a(SysFileManager.o)
 .text          0x0000000000000000        0x0 Srv/SysResource/src/libSys.a(SysModbus.o)
 .data          0x0000000000000000        0x0 Srv/SysResource/src/libSys.a(SysModbus.o)
 .bss           0x0000000000000000        0x0 Srv/SysResource/src/libSys.a(SysModbus.o)
 .text          0x0000000000000000        0x0 Srv/SysResource/src/libSys.a(SysP2P.o)
 .data          0x0000000000000000        0x0 Srv/SysResource/src/libSys.a(SysP2P.o)
 .bss           0x0000000000000000        0x0 Srv/SysResource/src/libSys.a(SysP2P.o)
 .text          0x0000000000000000        0x0 Srv/SysResource/src/libSys.a(SysRTData.o)
 .data          0x0000000000000000        0x0 Srv/SysResource/src/libSys.a(SysRTData.o)
 .bss           0x0000000000000000        0x0 Srv/SysResource/src/libSys.a(SysRTData.o)
 .text          0x0000000000000000        0x0 Srv/SysResource/src/libSys.a(SysMonitor.o)
 .data          0x0000000000000000        0x0 Srv/SysResource/src/libSys.a(SysMonitor.o)
 .bss           0x0000000000000000        0x0 Srv/SysResource/src/libSys.a(SysMonitor.o)
 .text.SysGetTemperature
                0x0000000000000000       0x28 Srv/SysResource/src/libSys.a(SysMonitor.o)
 .text.SysGetSupplyAlarmBit
                0x0000000000000000       0x3c Srv/SysResource/src/libSys.a(SysMonitor.o)
 .text.SysGetPMHardStatus
                0x0000000000000000       0x3c Srv/SysResource/src/libSys.a(SysMonitor.o)
 .text          0x0000000000000000        0x0 Srv/SysResource/src/libSys.a(SysSync.o)
 .data          0x0000000000000000        0x0 Srv/SysResource/src/libSys.a(SysSync.o)
 .bss           0x0000000000000000        0x0 Srv/SysResource/src/libSys.a(SysSync.o)
 .text.SysSyncSrvQueueFind
                0x0000000000000000      0x194 Srv/SysResource/src/libSys.a(SysSync.o)
 .text.SysSyncPrjQueueFind
                0x0000000000000000      0x14c Srv/SysResource/src/libSys.a(SysSync.o)
 .text.SysGetActiveInfo
                0x0000000000000000       0x28 Srv/SysResource/src/libSys.a(SysSync.o)
 .text          0x0000000000000000        0x0 Srv/SysResource/src/libSys.a(SysStateMngt.o)
 .data          0x0000000000000000        0x0 Srv/SysResource/src/libSys.a(SysStateMngt.o)
 .bss           0x0000000000000000        0x0 Srv/SysResource/src/libSys.a(SysStateMngt.o)
 .text.SysGetWaitPMId
                0x0000000000000000       0x38 Srv/SysResource/src/libSys.a(SysStateMngt.o)
 .text.SysSetWaitPMId
                0x0000000000000000       0x30 Srv/SysResource/src/libSys.a(SysStateMngt.o)
 .text.SysGetState
                0x0000000000000000       0x28 Srv/SysResource/src/libSys.a(SysStateMngt.o)
 .text.SysGetPrjFileExist
                0x0000000000000000       0x2c Srv/SysResource/src/libSys.a(SysStateMngt.o)
 .text.SysGetConfigStatus
                0x0000000000000000       0x60 Srv/SysResource/src/libSys.a(SysStateMngt.o)
 .text.SysSetConfigStatus
                0x0000000000000000       0x78 Srv/SysResource/src/libSys.a(SysStateMngt.o)
 .text          0x0000000000000000        0x0 Srv/SysResource/src/libSys.a(SysPMConfig.o)
 .data          0x0000000000000000        0x0 Srv/SysResource/src/libSys.a(SysPMConfig.o)
 .bss           0x0000000000000000        0x0 Srv/SysResource/src/libSys.a(SysPMConfig.o)
 .text          0x0000000000000000        0x0 /vagrant/workspace/PM_FW_COMMON/Srv/Scheduler/lib/CORE1/cagOsCORE1-0.a(cmbus.o)
 .data          0x0000000000000000        0x0 /vagrant/workspace/PM_FW_COMMON/Srv/Scheduler/lib/CORE1/cagOsCORE1-0.a(cmbus.o)
 .bss           0x0000000000000000        0x0 /vagrant/workspace/PM_FW_COMMON/Srv/Scheduler/lib/CORE1/cagOsCORE1-0.a(cmbus.o)
 .text.clear_crecv_status
                0x0000000000000000       0x2c /vagrant/workspace/PM_FW_COMMON/Srv/Scheduler/lib/CORE1/cagOsCORE1-0.a(cmbus.o)
 .text.get_cmrecv_time
                0x0000000000000000       0x34 /vagrant/workspace/PM_FW_COMMON/Srv/Scheduler/lib/CORE1/cagOsCORE1-0.a(cmbus.o)
 .text          0x0000000000000000        0x0 /vagrant/workspace/PM_FW_COMMON/Srv/Scheduler/lib/CORE1/cagOsCORE1-0.a(ipbus.o)
 .data          0x0000000000000000        0x0 /vagrant/workspace/PM_FW_COMMON/Srv/Scheduler/lib/CORE1/cagOsCORE1-0.a(ipbus.o)
 .bss           0x0000000000000000        0x0 /vagrant/workspace/PM_FW_COMMON/Srv/Scheduler/lib/CORE1/cagOsCORE1-0.a(ipbus.o)
 .text          0x0000000000000000        0x0 /vagrant/workspace/PM_FW_COMMON/Srv/Scheduler/lib/CORE1/cagOsCORE1-0.a(pcie.o)
 .data          0x0000000000000000        0x0 /vagrant/workspace/PM_FW_COMMON/Srv/Scheduler/lib/CORE1/cagOsCORE1-0.a(pcie.o)
 .bss           0x0000000000000000        0x0 /vagrant/workspace/PM_FW_COMMON/Srv/Scheduler/lib/CORE1/cagOsCORE1-0.a(pcie.o)
 .text.in_le32  0x0000000000000000       0x44 /vagrant/workspace/PM_FW_COMMON/Srv/Scheduler/lib/CORE1/cagOsCORE1-0.a(pcie.o)
 .text.out_le32
                0x0000000000000000       0x38 /vagrant/workspace/PM_FW_COMMON/Srv/Scheduler/lib/CORE1/cagOsCORE1-0.a(pcie.o)
 .text.pcie_send_check
                0x0000000000000000       0xe4 /vagrant/workspace/PM_FW_COMMON/Srv/Scheduler/lib/CORE1/cagOsCORE1-0.a(pcie.o)
 .text.pcie_send
                0x0000000000000000      0x360 /vagrant/workspace/PM_FW_COMMON/Srv/Scheduler/lib/CORE1/cagOsCORE1-0.a(pcie.o)
 .text.pcie_recv
                0x0000000000000000      0x360 /vagrant/workspace/PM_FW_COMMON/Srv/Scheduler/lib/CORE1/cagOsCORE1-0.a(pcie.o)
 .sdata.rbuf    0x0000000000000000        0x4 /vagrant/workspace/PM_FW_COMMON/Srv/Scheduler/lib/CORE1/cagOsCORE1-0.a(pcie.o)
 .sdata.sbuf    0x0000000000000000        0x4 /vagrant/workspace/PM_FW_COMMON/Srv/Scheduler/lib/CORE1/cagOsCORE1-0.a(pcie.o)
 .text.pcie_read2
                0x0000000000000000       0x88 /vagrant/workspace/PM_FW_COMMON/Srv/Scheduler/lib/CORE1/cagOsCORE1-0.a(pcie.o)
 .text.pcie_write2
                0x0000000000000000       0x88 /vagrant/workspace/PM_FW_COMMON/Srv/Scheduler/lib/CORE1/cagOsCORE1-0.a(pcie.o)
 .text          0x0000000000000000        0x0 /vagrant/workspace/PM_FW_COMMON/Srv/Scheduler/lib/CORE1/cagOsCORE1-0.a(pmbus.o)
 .data          0x0000000000000000        0x0 /vagrant/workspace/PM_FW_COMMON/Srv/Scheduler/lib/CORE1/cagOsCORE1-0.a(pmbus.o)
 .bss           0x0000000000000000        0x0 /vagrant/workspace/PM_FW_COMMON/Srv/Scheduler/lib/CORE1/cagOsCORE1-0.a(pmbus.o)
 .text.get_pm_slot
                0x0000000000000000       0xc4 /vagrant/workspace/PM_FW_COMMON/Srv/Scheduler/lib/CORE1/cagOsCORE1-0.a(pmbus.o)
 .text.get_pmrecv_time
                0x0000000000000000      0x128 /vagrant/workspace/PM_FW_COMMON/Srv/Scheduler/lib/CORE1/cagOsCORE1-0.a(pmbus.o)
 .data          0x0000000000000000        0x0 /vagrant/workspace/PM_FW_COMMON/Srv/Scheduler/lib/libgcc.a(_divdi3.o)
 .bss           0x0000000000000000        0x0 /vagrant/workspace/PM_FW_COMMON/Srv/Scheduler/lib/libgcc.a(_divdi3.o)
 .got2          0x0000000000000000        0x0 /vagrant/workspace/PM_FW_COMMON/Srv/Scheduler/lib/libgcc.a(_divdi3.o)
 .eh_frame      0x0000000000000000       0x3c /vagrant/workspace/PM_FW_COMMON/Srv/Scheduler/lib/libgcc.a(_divdi3.o)
 .data          0x0000000000000000        0x0 /vagrant/workspace/PM_FW_COMMON/Srv/Scheduler/lib/libgcc.a(_moddi3.o)
 .bss           0x0000000000000000        0x0 /vagrant/workspace/PM_FW_COMMON/Srv/Scheduler/lib/libgcc.a(_moddi3.o)
 .got2          0x0000000000000000        0x0 /vagrant/workspace/PM_FW_COMMON/Srv/Scheduler/lib/libgcc.a(_moddi3.o)
 .eh_frame      0x0000000000000000       0x40 /vagrant/workspace/PM_FW_COMMON/Srv/Scheduler/lib/libgcc.a(_moddi3.o)
 .text          0x0000000000000000        0x0 /vagrant/workspace/PM_FW_COMMON/Srv/SharedMem/src/libSharedMem.a(SharedRetain.o)
 .data          0x0000000000000000        0x0 /vagrant/workspace/PM_FW_COMMON/Srv/SharedMem/src/libSharedMem.a(SharedRetain.o)
 .bss           0x0000000000000000        0x0 /vagrant/workspace/PM_FW_COMMON/Srv/SharedMem/src/libSharedMem.a(SharedRetain.o)
 .text.SharedRetainInit
                0x0000000000000000       0x20 /vagrant/workspace/PM_FW_COMMON/Srv/SharedMem/src/libSharedMem.a(SharedRetain.o)
 .text.SharedGetTask0RetainData
                0x0000000000000000       0xac /vagrant/workspace/PM_FW_COMMON/Srv/SharedMem/src/libSharedMem.a(SharedRetain.o)
 .text.SharedGetTask1RetainData
                0x0000000000000000       0xb0 /vagrant/workspace/PM_FW_COMMON/Srv/SharedMem/src/libSharedMem.a(SharedRetain.o)
 .text.SharedGetInputModuleVar
                0x0000000000000000       0xf0 /vagrant/workspace/PM_FW_COMMON/Srv/SharedMem/src/libSharedMem.a(SharedRetain.o)
 .text.SharedSetOutputModuleVar
                0x0000000000000000      0x160 /vagrant/workspace/PM_FW_COMMON/Srv/SharedMem/src/libSharedMem.a(SharedRetain.o)
 .text.SharedGetOutputModuleVar
                0x0000000000000000       0xf0 /vagrant/workspace/PM_FW_COMMON/Srv/SharedMem/src/libSharedMem.a(SharedRetain.o)
 .text          0x0000000000000000        0x0 /vagrant/workspace/PM_FW_COMMON/Srv/Algrithm/src/libAlgrithm.a(Algrithm.o)
 .data          0x0000000000000000        0x0 /vagrant/workspace/PM_FW_COMMON/Srv/Algrithm/src/libAlgrithm.a(Algrithm.o)
 .bss           0x0000000000000000        0x0 /vagrant/workspace/PM_FW_COMMON/Srv/Algrithm/src/libAlgrithm.a(Algrithm.o)
 .text          0x0000000000000000        0x0 /vagrant/workspace/PM_FW_COMMON/Srv/Diag/src/libCDiag.a(DiagCommon.o)
 .data          0x0000000000000000        0x0 /vagrant/workspace/PM_FW_COMMON/Srv/Diag/src/libCDiag.a(DiagCommon.o)
 .bss           0x0000000000000000        0x0 /vagrant/workspace/PM_FW_COMMON/Srv/Diag/src/libCDiag.a(DiagCommon.o)
 .text.DiagCommGetProgramErrType
                0x0000000000000000      0x248 /vagrant/workspace/PM_FW_COMMON/Srv/Diag/src/libCDiag.a(DiagCommon.o)
 .text.DiagCommCheckExcptInfoMagic
                0x0000000000000000       0x38 /vagrant/workspace/PM_FW_COMMON/Srv/Diag/src/libCDiag.a(DiagCommon.o)
 .text.CalcStrLen
                0x0000000000000000       0x64 /vagrant/workspace/PM_FW_COMMON/Srv/Diag/src/libCDiag.a(DiagCommon.o)
 .text.DiagCommSetCore0FailFlag
                0x0000000000000000       0x44 /vagrant/workspace/PM_FW_COMMON/Srv/Diag/src/libCDiag.a(DiagCommon.o)
 .text          0x0000000000000000        0x0 /vagrant/workspace/PM_FW_COMMON/Srv/Diag/src/libCDiag.a(BoardDiag.o)
 .data          0x0000000000000000        0x0 /vagrant/workspace/PM_FW_COMMON/Srv/Diag/src/libCDiag.a(BoardDiag.o)
 .bss           0x0000000000000000        0x0 /vagrant/workspace/PM_FW_COMMON/Srv/Diag/src/libCDiag.a(BoardDiag.o)
 .bss.temp      0x0000000000000000       0x8c /vagrant/workspace/PM_FW_COMMON/Srv/Diag/src/libCDiag.a(BoardDiag.o)
 .text.BoardDiagCopyProgramData
                0x0000000000000000       0x50 /vagrant/workspace/PM_FW_COMMON/Srv/Diag/src/libCDiag.a(BoardDiag.o)
 .text.BoardDiagCalcuMaxTime
                0x0000000000000000       0x4c /vagrant/workspace/PM_FW_COMMON/Srv/Diag/src/libCDiag.a(BoardDiag.o)
 .text.os_switch
                0x0000000000000000       0x4c /vagrant/workspace/PM_FW_COMMON/Srv/Diag/src/libCDiag.a(BoardDiag.o)
 .text.CreateSwitchTask
                0x0000000000000000       0x90 /vagrant/workspace/PM_FW_COMMON/Srv/Diag/src/libCDiag.a(BoardDiag.o)
 .data.s_uiMaxTimeus.3945
                0x0000000000000000        0x4 /vagrant/workspace/PM_FW_COMMON/Srv/Diag/src/libCDiag.a(BoardDiag.o)
 .text          0x0000000000000000        0x0 /vagrant/workspace/PM_FW_COMMON/Srv/Diag/src/libCDiag.a(ExceptionTest.o)
 .data          0x0000000000000000        0x0 /vagrant/workspace/PM_FW_COMMON/Srv/Diag/src/libCDiag.a(ExceptionTest.o)
 .bss           0x0000000000000000        0x0 /vagrant/workspace/PM_FW_COMMON/Srv/Diag/src/libCDiag.a(ExceptionTest.o)
 .text.trap     0x0000000000000000       0xac /vagrant/workspace/PM_FW_COMMON/Srv/Diag/src/libCDiag.a(ExceptionTest.o)
 .text          0x0000000000000000        0x0 /vagrant/workspace/PM_FW_COMMON/Srv/Diag/src/libCDiag.a(DataCacheTest.o)
 .data          0x0000000000000000        0x0 /vagrant/workspace/PM_FW_COMMON/Srv/Diag/src/libCDiag.a(DataCacheTest.o)
 .bss           0x0000000000000000        0x0 /vagrant/workspace/PM_FW_COMMON/Srv/Diag/src/libCDiag.a(DataCacheTest.o)
 .data.uiRamTestDBsZero
                0x0000000000000000       0x18 /vagrant/workspace/PM_FW_COMMON/Srv/Diag/src/libCDiag.a(DataCacheTest.o)
 .data.uiRamTestDBsUno
                0x0000000000000000       0x18 /vagrant/workspace/PM_FW_COMMON/Srv/Diag/src/libCDiag.a(DataCacheTest.o)
 .rodata        0x0000000000000000      0x1ce /vagrant/workspace/PM_FW_COMMON/Srv/Diag/src/libCDiag.a(DataCacheTest.o)
 .text.DataCacheTestCycle
                0x0000000000000000      0x108 /vagrant/workspace/PM_FW_COMMON/Srv/Diag/src/libCDiag.a(DataCacheTest.o)
 .text.RamTestStart
                0x0000000000000000      0x284 /vagrant/workspace/PM_FW_COMMON/Srv/Diag/src/libCDiag.a(DataCacheTest.o)
 .rodata.RamTestStart
                0x0000000000000000       0x14 /vagrant/workspace/PM_FW_COMMON/Srv/Diag/src/libCDiag.a(DataCacheTest.o)
 .text.RamTestMarchW0
                0x0000000000000000       0xcc /vagrant/workspace/PM_FW_COMMON/Srv/Diag/src/libCDiag.a(DataCacheTest.o)
 .text.RamTestMarchR0W1R1W0R0W1
                0x0000000000000000      0x228 /vagrant/workspace/PM_FW_COMMON/Srv/Diag/src/libCDiag.a(DataCacheTest.o)
 .text.RamTestMarchR1W0W1
                0x0000000000000000      0x154 /vagrant/workspace/PM_FW_COMMON/Srv/Diag/src/libCDiag.a(DataCacheTest.o)
 .text.RamTestMarchR1W0W1W0
                0x0000000000000000      0x1ac /vagrant/workspace/PM_FW_COMMON/Srv/Diag/src/libCDiag.a(DataCacheTest.o)
 .text.RamTestMarchR0W1W0
                0x0000000000000000      0x160 /vagrant/workspace/PM_FW_COMMON/Srv/Diag/src/libCDiag.a(DataCacheTest.o)
 .text.RamTestGetCurDiagAddr
                0x0000000000000000      0x11c /vagrant/workspace/PM_FW_COMMON/Srv/Diag/src/libCDiag.a(DataCacheTest.o)
 .text.RamTestUpdateCurState
                0x0000000000000000      0x120 /vagrant/workspace/PM_FW_COMMON/Srv/Diag/src/libCDiag.a(DataCacheTest.o)
 .text          0x0000000000000000        0x0 /vagrant/workspace/PM_FW_COMMON/Srv/Diag/src/libCDiag.a(CPUTest.o)
 .data          0x0000000000000000        0x0 /vagrant/workspace/PM_FW_COMMON/Srv/Diag/src/libCDiag.a(CPUTest.o)
 .bss           0x0000000000000000        0x0 /vagrant/workspace/PM_FW_COMMON/Srv/Diag/src/libCDiag.a(CPUTest.o)
 .text.CheckRunEsitoTest
                0x0000000000000000       0x6c /vagrant/workspace/PM_FW_COMMON/Srv/Diag/src/libCDiag.a(CPUTest.o)
 .text          0x0000000000000000        0x0 /vagrant/workspace/PM_FW_COMMON/Srv/Diag/src/libCDiag.a(CodeTest.o)
 .data          0x0000000000000000        0x0 /vagrant/workspace/PM_FW_COMMON/Srv/Diag/src/libCDiag.a(CodeTest.o)
 .bss           0x0000000000000000        0x0 /vagrant/workspace/PM_FW_COMMON/Srv/Diag/src/libCDiag.a(CodeTest.o)
 .text          0x0000000000000000        0x0 /vagrant/workspace/PM_FW_COMMON/Srv/Diag/src/libCDiag.a(SysTest.o)
 .data          0x0000000000000000        0x0 /vagrant/workspace/PM_FW_COMMON/Srv/Diag/src/libCDiag.a(SysTest.o)
 .bss           0x0000000000000000        0x0 /vagrant/workspace/PM_FW_COMMON/Srv/Diag/src/libCDiag.a(SysTest.o)
 .text.SysSetCurExeIndex
                0x0000000000000000       0x50 /vagrant/workspace/PM_FW_COMMON/Srv/Diag/src/libCDiag.a(SysTest.o)
 .text          0x0000000000000000        0x0 /vagrant/workspace/PM_FW_COMMON/Srv/Diag/src/libCDiag.a(RamTest.o)
 .data          0x0000000000000000        0x0 /vagrant/workspace/PM_FW_COMMON/Srv/Diag/src/libCDiag.a(RamTest.o)
 .bss           0x0000000000000000        0x0 /vagrant/workspace/PM_FW_COMMON/Srv/Diag/src/libCDiag.a(RamTest.o)
 .text          0x0000000000000000        0x0 /vagrant/workspace/PM_FW_COMMON/Srv/Log/src/libLog.a(Log.o)
 .data          0x0000000000000000        0x0 /vagrant/workspace/PM_FW_COMMON/Srv/Log/src/libLog.a(Log.o)
 .bss           0x0000000000000000        0x0 /vagrant/workspace/PM_FW_COMMON/Srv/Log/src/libLog.a(Log.o)
 .text          0x0000000000000000        0x0 /vagrant/workspace/PM_FW_COMMON/Srv/Log/src/libLog.a(LogCore0.o)
 .data          0x0000000000000000        0x0 /vagrant/workspace/PM_FW_COMMON/Srv/Log/src/libLog.a(LogCore0.o)
 .bss           0x0000000000000000        0x0 /vagrant/workspace/PM_FW_COMMON/Srv/Log/src/libLog.a(LogCore0.o)
 .text          0x0000000000000000        0x0 /vagrant/workspace/PM_FW_COMMON/Srv/Log/src/libLog.a(LogCore1.o)
 .data          0x0000000000000000        0x0 /vagrant/workspace/PM_FW_COMMON/Srv/Log/src/libLog.a(LogCore1.o)
 .bss           0x0000000000000000        0x0 /vagrant/workspace/PM_FW_COMMON/Srv/Log/src/libLog.a(LogCore1.o)
 .text          0x0000000000000000        0x0 /vagrant/workspace/PM_FW_COMMON/Srv/Log/src/libLog.a(LogUser.o)
 .data          0x0000000000000000        0x0 /vagrant/workspace/PM_FW_COMMON/Srv/Log/src/libLog.a(LogUser.o)
 .bss           0x0000000000000000        0x0 /vagrant/workspace/PM_FW_COMMON/Srv/Log/src/libLog.a(LogUser.o)
 .text.GetLogAlarm
                0x0000000000000000       0x40 /vagrant/workspace/PM_FW_COMMON/Srv/Log/src/libLog.a(LogUser.o)
 .text          0x0000000000000000        0x0 /vagrant/workspace/PM_FW_COMMON/Srv/PMBUS/src/libPMBUS.a(PMBUS.o)
 .data          0x0000000000000000        0x0 /vagrant/workspace/PM_FW_COMMON/Srv/PMBUS/src/libPMBUS.a(PMBUS.o)
 .bss           0x0000000000000000        0x0 /vagrant/workspace/PM_FW_COMMON/Srv/PMBUS/src/libPMBUS.a(PMBUS.o)
 .text.PMBUS_GetReceiveTime
                0x0000000000000000       0x74 /vagrant/workspace/PM_FW_COMMON/Srv/PMBUS/src/libPMBUS.a(PMBUS.o)
 .text          0x0000000000000000        0x0 /vagrant/workspace/PM_FW_COMMON/Srv/SafetyProtocol/src/libSafetyProtocol.a(P2PSafetyComm.o)
 .data          0x0000000000000000        0x0 /vagrant/workspace/PM_FW_COMMON/Srv/SafetyProtocol/src/libSafetyProtocol.a(P2PSafetyComm.o)
 .bss           0x0000000000000000        0x0 /vagrant/workspace/PM_FW_COMMON/Srv/SafetyProtocol/src/libSafetyProtocol.a(P2PSafetyComm.o)
 .bss.s_stP2PRecvInfo
                0x0000000000000000      0x200 /vagrant/workspace/PM_FW_COMMON/Srv/SafetyProtocol/src/libSafetyProtocol.a(P2PSafetyComm.o)
 .text.P2PCommInitRecv
                0x0000000000000000       0x98 /vagrant/workspace/PM_FW_COMMON/Srv/SafetyProtocol/src/libSafetyProtocol.a(P2PSafetyComm.o)
 .rodata        0x0000000000000000       0x31 /vagrant/workspace/PM_FW_COMMON/Srv/SafetyProtocol/src/libSafetyProtocol.a(P2PSafetyComm.o)
 .text.P2PHandleRecvReqTO
                0x0000000000000000      0x150 /vagrant/workspace/PM_FW_COMMON/Srv/SafetyProtocol/src/libSafetyProtocol.a(P2PSafetyComm.o)
 .text.P2PDecodeReq
                0x0000000000000000      0x6e4 /vagrant/workspace/PM_FW_COMMON/Srv/SafetyProtocol/src/libSafetyProtocol.a(P2PSafetyComm.o)
 .text.P2PMakeResp
                0x0000000000000000      0x288 /vagrant/workspace/PM_FW_COMMON/Srv/SafetyProtocol/src/libSafetyProtocol.a(P2PSafetyComm.o)
 .text.ClearP2PRecvInfo
                0x0000000000000000       0x5c /vagrant/workspace/PM_FW_COMMON/Srv/SafetyProtocol/src/libSafetyProtocol.a(P2PSafetyComm.o)
 .text.ClearReqDecodeResult
                0x0000000000000000       0x54 /vagrant/workspace/PM_FW_COMMON/Srv/SafetyProtocol/src/libSafetyProtocol.a(P2PSafetyComm.o)
 .text.DecodePMReq
                0x0000000000000000      0x5b4 /vagrant/workspace/PM_FW_COMMON/Srv/SafetyProtocol/src/libSafetyProtocol.a(P2PSafetyComm.o)
 .text.MakePMADataStatus
                0x0000000000000000       0xe8 /vagrant/workspace/PM_FW_COMMON/Srv/SafetyProtocol/src/libSafetyProtocol.a(P2PSafetyComm.o)
 .text.MakePMBDataStatus
                0x0000000000000000       0xe8 /vagrant/workspace/PM_FW_COMMON/Srv/SafetyProtocol/src/libSafetyProtocol.a(P2PSafetyComm.o)
 .text.MakePMCDataStatus
                0x0000000000000000       0xe8 /vagrant/workspace/PM_FW_COMMON/Srv/SafetyProtocol/src/libSafetyProtocol.a(P2PSafetyComm.o)
 .text.HandleReqValid
                0x0000000000000000       0xdc /vagrant/workspace/PM_FW_COMMON/Srv/SafetyProtocol/src/libSafetyProtocol.a(P2PSafetyComm.o)
 .text.HandleReqFailure
                0x0000000000000000       0xdc /vagrant/workspace/PM_FW_COMMON/Srv/SafetyProtocol/src/libSafetyProtocol.a(P2PSafetyComm.o)
 .text.HandleReqError
                0x0000000000000000      0x2d0 /vagrant/workspace/PM_FW_COMMON/Srv/SafetyProtocol/src/libSafetyProtocol.a(P2PSafetyComm.o)
 .text.HandleReqErrorThree
                0x0000000000000000      0x1d8 /vagrant/workspace/PM_FW_COMMON/Srv/SafetyProtocol/src/libSafetyProtocol.a(P2PSafetyComm.o)
 .text.HandleReqErrorTwo
                0x0000000000000000      0x1c4 /vagrant/workspace/PM_FW_COMMON/Srv/SafetyProtocol/src/libSafetyProtocol.a(P2PSafetyComm.o)
 .text.HandleReqErrorOne
                0x0000000000000000      0x170 /vagrant/workspace/PM_FW_COMMON/Srv/SafetyProtocol/src/libSafetyProtocol.a(P2PSafetyComm.o)
 .text.MakeDecodeResult
                0x0000000000000000      0x658 /vagrant/workspace/PM_FW_COMMON/Srv/SafetyProtocol/src/libSafetyProtocol.a(P2PSafetyComm.o)
 .text          0x0000000000000000        0x0 /vagrant/workspace/PM_FW_COMMON/Srv/SafetyProtocol/src/libSafetyProtocol.a(SafetyCommon.o)
 .data          0x0000000000000000        0x0 /vagrant/workspace/PM_FW_COMMON/Srv/SafetyProtocol/src/libSafetyProtocol.a(SafetyCommon.o)
 .bss           0x0000000000000000        0x0 /vagrant/workspace/PM_FW_COMMON/Srv/SafetyProtocol/src/libSafetyProtocol.a(SafetyCommon.o)
 .text          0x0000000000000000        0x0 /vagrant/workspace/PM_FW_COMMON/Srv/Sys/src/libSysCommon.a(CommSysCommom.o)
 .data          0x0000000000000000        0x0 /vagrant/workspace/PM_FW_COMMON/Srv/Sys/src/libSysCommon.a(CommSysCommom.o)
 .bss           0x0000000000000000        0x0 /vagrant/workspace/PM_FW_COMMON/Srv/Sys/src/libSysCommon.a(CommSysCommom.o)
 .text          0x0000000000000000        0x0 /vagrant/workspace/PM_FW_COMMON/Srv/Sys/src/libSysCommon.a(CommSysConfig.o)
 .data          0x0000000000000000        0x0 /vagrant/workspace/PM_FW_COMMON/Srv/Sys/src/libSysCommon.a(CommSysConfig.o)
 .bss           0x0000000000000000        0x0 /vagrant/workspace/PM_FW_COMMON/Srv/Sys/src/libSysCommon.a(CommSysConfig.o)
 .text          0x0000000000000000        0x0 /vagrant/workspace/PM_FW_COMMON/Srv/Sys/src/libSysCommon.a(CommSysSync.o)
 .data          0x0000000000000000        0x0 /vagrant/workspace/PM_FW_COMMON/Srv/Sys/src/libSysCommon.a(CommSysSync.o)
 .bss           0x0000000000000000        0x0 /vagrant/workspace/PM_FW_COMMON/Srv/Sys/src/libSysCommon.a(CommSysSync.o)
 .text          0x0000000000000000        0x0 /vagrant/workspace/PM_FW_COMMON/Srv/Ver/src/libVer.a(Ver.o)
 .data          0x0000000000000000        0x0 /vagrant/workspace/PM_FW_COMMON/Srv/Ver/src/libVer.a(Ver.o)
 .bss           0x0000000000000000        0x0 /vagrant/workspace/PM_FW_COMMON/Srv/Ver/src/libVer.a(Ver.o)
 .sdata.s_ucPMVersion1
                0x0000000000000000        0x4 /vagrant/workspace/PM_FW_COMMON/Srv/Ver/src/libVer.a(Ver.o)
 .sdata.s_ucOSVersion1
                0x0000000000000000        0x4 /vagrant/workspace/PM_FW_COMMON/Srv/Ver/src/libVer.a(Ver.o)
 .text          0x0000000000000000        0x0 App/LEDManager/src/libLEDManager.a(LEDManager.o)
 .data          0x0000000000000000        0x0 App/LEDManager/src/libLEDManager.a(LEDManager.o)
 .bss           0x0000000000000000        0x0 App/LEDManager/src/libLEDManager.a(LEDManager.o)
 .text          0x0000000000000000        0x0 /vagrant/workspace/PM_FW_COMMON/Srv/Scheduler/lib/CORE1/cagOsCORE1-0.a(sysCacheSb.o)
 .data          0x0000000000000000        0x0 /vagrant/workspace/PM_FW_COMMON/Srv/Scheduler/lib/CORE1/cagOsCORE1-0.a(sysCacheSb.o)
 .bss           0x0000000000000000        0x0 /vagrant/workspace/PM_FW_COMMON/Srv/Scheduler/lib/CORE1/cagOsCORE1-0.a(sysCacheSb.o)
 .sdata.L1cacheAddr
                0x0000000000000000        0x4 /vagrant/workspace/PM_FW_COMMON/Srv/Scheduler/lib/CORE1/cagOsCORE1-0.a(sysCacheSb.o)
 .sdata.L2cacheAddr
                0x0000000000000000        0x4 /vagrant/workspace/PM_FW_COMMON/Srv/Scheduler/lib/CORE1/cagOsCORE1-0.a(sysCacheSb.o)
 .rodata        0x0000000000000000        0x4 /vagrant/workspace/PM_FW_COMMON/Srv/Scheduler/lib/CORE1/cagOsCORE1-0.a(sysCacheSb.o)
 .text.sysDiagCacheReady
                0x0000000000000000       0x70 /vagrant/workspace/PM_FW_COMMON/Srv/Scheduler/lib/CORE1/cagOsCORE1-0.a(sysCacheSb.o)
 .text.sysDiagCacheDone
                0x0000000000000000       0x34 /vagrant/workspace/PM_FW_COMMON/Srv/Scheduler/lib/CORE1/cagOsCORE1-0.a(sysCacheSb.o)
 .data          0x0000000000000000        0x0 /vagrant/workspace/PM_FW_COMMON/Srv/Diag/asm/libAsmDiag.a(BPU_cond_branch_test_bca.o)
 .bss           0x0000000000000000        0x0 /vagrant/workspace/PM_FW_COMMON/Srv/Diag/asm/libAsmDiag.a(BPU_cond_branch_test_bca.o)
 .data          0x0000000000000000        0x0 /vagrant/workspace/PM_FW_COMMON/Srv/Diag/asm/libAsmDiag.a(BPU_cond_branch_test_bcla.o)
 .bss           0x0000000000000000        0x0 /vagrant/workspace/PM_FW_COMMON/Srv/Diag/asm/libAsmDiag.a(BPU_cond_branch_test_bcla.o)
 .data          0x0000000000000000        0x0 /vagrant/workspace/PM_FW_COMMON/Srv/Diag/asm/libAsmDiag.a(BPU_cond_branch_test.o)
 .bss           0x0000000000000000        0x0 /vagrant/workspace/PM_FW_COMMON/Srv/Diag/asm/libAsmDiag.a(BPU_cond_branch_test.o)
 .data          0x0000000000000000        0x0 /vagrant/workspace/PM_FW_COMMON/Srv/Diag/asm/libAsmDiag.a(BPU_uncond_branch_test_ba_bla.o)
 .bss           0x0000000000000000        0x0 /vagrant/workspace/PM_FW_COMMON/Srv/Diag/asm/libAsmDiag.a(BPU_uncond_branch_test_ba_bla.o)
 .data          0x0000000000000000        0x0 /vagrant/workspace/PM_FW_COMMON/Srv/Diag/asm/libAsmDiag.a(BPU_uncond_branch_test.o)
 .bss           0x0000000000000000        0x0 /vagrant/workspace/PM_FW_COMMON/Srv/Diag/asm/libAsmDiag.a(BPU_uncond_branch_test.o)
 .data          0x0000000000000000        0x0 /vagrant/workspace/PM_FW_COMMON/Srv/Diag/asm/libAsmDiag.a(cr_test.o)
 .bss           0x0000000000000000        0x0 /vagrant/workspace/PM_FW_COMMON/Srv/Diag/asm/libAsmDiag.a(cr_test.o)
 .data          0x0000000000000000        0x0 /vagrant/workspace/PM_FW_COMMON/Srv/Diag/asm/libAsmDiag.a(data_cache_test.o)
 .bss           0x0000000000000000        0x0 /vagrant/workspace/PM_FW_COMMON/Srv/Diag/asm/libAsmDiag.a(data_cache_test.o)
 .data          0x0000000000000000        0x0 /vagrant/workspace/PM_FW_COMMON/Srv/Diag/asm/libAsmDiag.a(GPR_interword_test.o)
 .bss           0x0000000000000000        0x0 /vagrant/workspace/PM_FW_COMMON/Srv/Diag/asm/libAsmDiag.a(GPR_interword_test.o)
 .data          0x0000000000000000        0x0 /vagrant/workspace/PM_FW_COMMON/Srv/Diag/asm/libAsmDiag.a(GPR_intraword_test.o)
 .bss           0x0000000000000000        0x0 /vagrant/workspace/PM_FW_COMMON/Srv/Diag/asm/libAsmDiag.a(GPR_intraword_test.o)
 .data          0x0000000000000000        0x0 /vagrant/workspace/PM_FW_COMMON/Srv/Diag/asm/libAsmDiag.a(IU1_test.o)
 .bss           0x0000000000000000        0x0 /vagrant/workspace/PM_FW_COMMON/Srv/Diag/asm/libAsmDiag.a(IU1_test.o)
 .data          0x0000000000000000        0x0 /vagrant/workspace/PM_FW_COMMON/Srv/Diag/asm/libAsmDiag.a(IU2_test.o)
 .bss           0x0000000000000000        0x0 /vagrant/workspace/PM_FW_COMMON/Srv/Diag/asm/libAsmDiag.a(IU2_test.o)
 .data          0x0000000000000000        0x0 /vagrant/workspace/PM_FW_COMMON/Srv/Diag/asm/libAsmDiag.a(lr_test.o)
 .bss           0x0000000000000000        0x0 /vagrant/workspace/PM_FW_COMMON/Srv/Diag/asm/libAsmDiag.a(lr_test.o)
 .data          0x0000000000000000        0x0 /vagrant/workspace/PM_FW_COMMON/Srv/Diag/asm/libAsmDiag.a(LSU_data_test.o)
 .bss           0x0000000000000000        0x0 /vagrant/workspace/PM_FW_COMMON/Srv/Diag/asm/libAsmDiag.a(LSU_data_test.o)
 .data          0x0000000000000000        0x0 /vagrant/workspace/PM_FW_COMMON/Srv/Diag/asm/libAsmDiag.a(LSU_ea_calc_test.o)
 .bss           0x0000000000000000        0x0 /vagrant/workspace/PM_FW_COMMON/Srv/Diag/asm/libAsmDiag.a(LSU_ea_calc_test.o)
 .data          0x0000000000000000        0x0 /vagrant/workspace/PM_FW_COMMON/Srv/Diag/asm/libAsmDiag.a(SPR_interword_test.o)
 .bss           0x0000000000000000        0x0 /vagrant/workspace/PM_FW_COMMON/Srv/Diag/asm/libAsmDiag.a(SPR_interword_test.o)
 .data          0x0000000000000000        0x0 /vagrant/workspace/PM_FW_COMMON/Srv/Diag/asm/libAsmDiag.a(SPR_intraword_test.o)
 .bss           0x0000000000000000        0x0 /vagrant/workspace/PM_FW_COMMON/Srv/Diag/asm/libAsmDiag.a(SPR_intraword_test.o)
 .data          0x0000000000000000        0x0 /vagrant/workspace/PM_FW_COMMON/Srv/Diag/asm/libAsmDiag.a(SPRG_test.o)
 .bss           0x0000000000000000        0x0 /vagrant/workspace/PM_FW_COMMON/Srv/Diag/asm/libAsmDiag.a(SPRG_test.o)
 .data          0x0000000000000000        0x0 /vagrant/workspace/PM_FW_COMMON/Srv/Diag/asm/libAsmDiag.a(Pipeline_test.o)
 .bss           0x0000000000000000        0x0 /vagrant/workspace/PM_FW_COMMON/Srv/Diag/asm/libAsmDiag.a(Pipeline_test.o)

Memory Configuration

Name             Origin             Length             Attributes
DiagCode         0x0000000000004000 0x0000000000000800 xrw
SHARED_MEM2      0x0000000000180000 0x0000000000200000 xrw
UPDATE_MEM       0x0000000008000000 0x0000000000b00000 xrw
RTS_ENTRY        0x0000000000eaf080 0x0000000000000780 xr
DIAG_ENTRY       0x0000000000eaf800 0x0000000000000400 xr
FILE_ENTRY       0x0000000000eafc00 0x0000000000000200 xr
COMM_ENTRY       0x0000000000eafe00 0x0000000000000200 xr
RTS_CODE         0x0000000000eb0000 0x0000000000100000 xr
RTS_DATA         0x0000000001000000 0x0000000000600000 xrw
SHARED_MEM       0x0000000001600000 0x0000000000600000 xrw
USR_DATA_MEM     0x0000000001c00000 0x0000000000200000 xrw
*default*        0x0000000000000000 0xffffffffffffffff

Linker script and memory map

LOAD /opt/fsl-networking/QorIQ-SDK-V1.7/sysroots/ppce500v2-fsl-linux-gnuspe/usr/lib/powerpc-fsl-linux/4.8.1/libgcc.a
                0x0000000000000001                _CAG_DATA_ALIGN = 0x1

.rts            0x0000000000eaf080      0x780
 ./App/Main/src/RTSTaskExeEntryBin0.o(.text.TskRTSTaskExeEntry)
 .text.TskRTSTaskExeEntry
                0x0000000000eaf080       0xa4 ./App/Main/src/RTSTaskExeEntryBin0.o
                0x0000000000eaf080                TskRTSTaskExeEntry
                0x0000000000eaf800                . = ALIGN (0x800)
 *fill*         0x0000000000eaf124      0x6dc 

.diag           0x0000000000eaf800      0x400
 ./App/Main/src/DiagTaskExeEntryBin0.o(.text.TskDiagTaskExeEntry)
 .text.TskDiagTaskExeEntry
                0x0000000000eaf800       0xa4 ./App/Main/src/DiagTaskExeEntryBin0.o
                0x0000000000eaf800                TskDiagTaskExeEntry
                0x0000000000eafc00                . = ALIGN (0x400)
 *fill*         0x0000000000eaf8a4      0x35c 

.fm             0x0000000000eafc00      0x200
 ./App/Main/src/FileTaskExeEntryBin0.o(.text.TskFileTaskExeEntry)
 .text.TskFileTaskExeEntry
                0x0000000000eafc00       0x44 ./App/Main/src/FileTaskExeEntryBin0.o
                0x0000000000eafc00                TskFileTaskExeEntry
                0x0000000000eafe00                . = ALIGN (0x200)
 *fill*         0x0000000000eafc44      0x1bc 

.comm           0x0000000000eafe00      0x200
 ./App/Main/src/CommTaskExeEntryBin0.o(.text.TskCommTaskExeEntry)
 .text.TskCommTaskExeEntry
                0x0000000000eafe00       0xa4 ./App/Main/src/CommTaskExeEntryBin0.o
                0x0000000000eafe00                TskCommTaskExeEntry
                0x0000000000eb0000                . = ALIGN (0x200)
 *fill*         0x0000000000eafea4      0x15c 

.text           0x0000000000eb0000    0x14000
                0x0000000000eb0000                cag_kernel_text_start = .
                0x0000000000eb0000                _cag_kernel_text_start = .
                0x0000000000eb0000                _CAG_START_TEXT = .
 ../PM_FW_COMMON/Srv/Scheduler/lib/CORE1/cagOsCORE1-0.a(.text.entry)
 *(.text)
 .text          0x0000000000eb0000     0x1858 ../PM_FW_COMMON/Srv/Scheduler/lib/CORE1/cagOsCORE1-0.a(sysCpuALib.o)
                0x0000000000eb0020                _start
                0x0000000000eb0020                start
                0x0000000000eb15ac                sysCacheEnable
                0x0000000000eb1640                sysL2CTLSet
                0x0000000000eb1660                sysL2CTLGet
                0x0000000000eb167c                sysCacheFlush
                0x0000000000eb16e4                sysPCGet
                0x0000000000eb16ec                sysTimeBaseLGet
                0x0000000000eb16f4                sysL1Csr1Set
                0x0000000000eb178c                BOOTDEBUG
                0x0000000000eb1824                sysTlbUnmapAll
 *fill*         0x0000000000eb1858       0x28 
 .text          0x0000000000eb1880       0xf0 ../PM_FW_COMMON/Srv/Scheduler/lib/CORE1/cagOsCORE1-0.a(sysE500Tlb.o)
                0x0000000000eb1880                mmuPpcTlbReadEntryWord0
                0x0000000000eb1888                mmuPpcTlbReadEntryWord1
                0x0000000000eb1890                mmuPpcTlbReadEntryWord2
                0x0000000000eb18a0                mmuPpcTlbWriteExecute
                0x0000000000eb18ec                mmuE500TlbDynamicInvalidate
                0x0000000000eb1904                mmuE500TlbStaticInvalidate
                0x0000000000eb191c                mmuPpcPidSet
                0x0000000000eb1928                mmuPpcSearchPidGet
                0x0000000000eb1934                mmuPpcSearchPidSet
                0x0000000000eb1940                mmuPpcPidGet
                0x0000000000eb1948                mmuPpcE500TlbieStatic
                0x0000000000eb1950                mmuPpcE500Tlbie
                0x0000000000eb1964                mmuPpcTlb1NEntriesGet
 .text          0x0000000000eb1970      0x47c ../PM_FW_COMMON/Srv/Scheduler/lib/CORE1/cagOsCORE1-0.a(sysExcArchALib.o)
                0x0000000000eb1970                sysTas
                0x0000000000eb19a0                sysSdaInit
                0x0000000000eb19b4                sysMsrGet
                0x0000000000eb19bc                sysMsrSet
                0x0000000000eb19c8                sysDearGet
                0x0000000000eb19d0                sysDearSet
                0x0000000000eb19d8                sysCsrr0Get
                0x0000000000eb19e0                sysCsrr0Set
                0x0000000000eb19e8                sysCsrr1Get
                0x0000000000eb19f0                sysCsrr1Set
                0x0000000000eb19f8                sysMcsrr0Get
                0x0000000000eb1a00                sysMcsrr0Set
                0x0000000000eb1a08                sysMcsrr1Get
                0x0000000000eb1a10                sysMcsrr1Set
                0x0000000000eb1a18                sysSpefscrGet
                0x0000000000eb1a20                sysSpefscrSet
                0x0000000000eb1a2c                sysDecarSet
                0x0000000000eb1a34                sysL1CSR0Get
                0x0000000000eb1a40                sysL1CSR0Set
                0x0000000000eb1a54                sysL1CSR1Get
                0x0000000000eb1a60                sysL1CSR1Set
                0x0000000000eb1a74                sysL1CFG0Get
                0x0000000000eb1a7c                sysL1CFG1Get
                0x0000000000eb1a84                sysIvor1Set
                0x0000000000eb1a8c                sysSrr0Get
                0x0000000000eb1a94                sysSrr0Set
                0x0000000000eb1a9c                sysSrr1Get
                0x0000000000eb1aa4                sysSrr1Set
                0x0000000000eb1aac                sysFirstBit
                0x0000000000eb1ab4                sysFirstRBit
                0x0000000000eb1ae0                sysPvrGet
                0x0000000000eb1ae8                sysEieio
                0x0000000000eb1af0                sysHid0Set
                0x0000000000eb1b00                sysHid0Get
                0x0000000000eb1b08                sysHid1Set
                0x0000000000eb1b18                sysHid1Get
                0x0000000000eb1b20                sysTimeBaseInit
                0x0000000000eb1b2c                sysTimeBaseSet
                0x0000000000eb1b40                sysTimeBaseGet
                0x0000000000eb1b60                sysDecSet
                0x0000000000eb1b6c                sysDecGet
                0x0000000000eb1b74                sysDecIntEnable
                0x0000000000eb1b90                sysDecIntAck
                0x0000000000eb1b9c                sysEnableBP
                0x0000000000eb1bd4                sysDisableBP
                0x0000000000eb1c04                sysBucsrGet
                0x0000000000eb1c34                sysDbcr2Get
                0x0000000000eb1c3c                sysDbcr2Set
                0x0000000000eb1c48                sysFitIntAck
                0x0000000000eb1c54                sysFitIntDisable
                0x0000000000eb1c68                sysFitIntEnable
                0x0000000000eb1c78                sysTcrGet
                0x0000000000eb1c80                sysTcrSet
                0x0000000000eb1c88                sysTsrGet
                0x0000000000eb1c90                sysTsrSet
                0x0000000000eb1c98                sysIvprGet
                0x0000000000eb1ca0                sysIvprSet
                0x0000000000eb1ca8                sysDbsrGet
                0x0000000000eb1cb0                sysDbsrClear
                0x0000000000eb1cbc                sysDac1Get
                0x0000000000eb1cc4                sysDac1Set
                0x0000000000eb1ccc                sysDac2Get
                0x0000000000eb1cd4                sysDac2Set
                0x0000000000eb1cdc                sysIac1Get
                0x0000000000eb1ce4                sysIac1Set
                0x0000000000eb1cf0                sysIac2Get
                0x0000000000eb1cf8                sysIac2Set
                0x0000000000eb1d04                sysSvrGet
                0x0000000000eb1d0c                sysPirGet
                0x0000000000eb1d14                sysPirSet
                0x0000000000eb1d1c                sysCpuLibInit
                0x0000000000eb1d28                sysCpuIndexGet
                0x0000000000eb1d30                excIvorInit
                0x0000000000eb1dd4                get_ticks
 .text          0x0000000000eb1dec       0x78 ../PM_FW_COMMON/Srv/Scheduler/lib/CORE1/cagOsCORE1-0.a(sysAccess.o)
                0x0000000000eb1dec                readb
                0x0000000000eb1df8                readw
                0x0000000000eb1e04                readl
                0x0000000000eb1e10                writeb
                0x0000000000eb1e1c                writew
                0x0000000000eb1e28                writel
                0x0000000000eb1e34                readb_noOrder
                0x0000000000eb1e3c                readw_noOrder
                0x0000000000eb1e44                readl_noOrder
                0x0000000000eb1e4c                writeb_noOrder
                0x0000000000eb1e54                writew_noOrder
                0x0000000000eb1e5c                writel_noOrder
 *fill*         0x0000000000eb1e64       0x1c 
 .text          0x0000000000eb1e80       0x2c ../PM_FW_COMMON/Srv/Scheduler/lib/CORE1/cagOsCORE1-0.a(sysCpuE500ALib.o)
                0x0000000000eb1e80                intLock
                0x0000000000eb1e80                intCpuLock
                0x0000000000eb1e80                intCpuMicroLock
                0x0000000000eb1e94                intUnlock
                0x0000000000eb1e94                intCpuUnlock
                0x0000000000eb1ea4                intCpuMicroUnlock
 .text          0x0000000000eb1eac       0xd8 ../PM_FW_COMMON/Srv/Scheduler/lib/CORE1/cagOsCORE1-0.a(sysOsIrq.o)
                0x0000000000eb1eac                OSIntCtxSw
 .text          0x0000000000eb1f84      0x270 ../PM_FW_COMMON/Srv/Scheduler/lib/CORE1/cagOsCORE1-0.a(sysOsSwitchALib.o)
                0x0000000000eb1f84                OSStartHighRdy
                0x0000000000eb2048                OSCtxSw
 *fill*         0x0000000000eb21f4        0xc 
 .text          0x0000000000eb2200      0x1b0 ../PM_FW_COMMON/Srv/Scheduler/lib/CORE1/cagOsCORE1-0.a(sysSpeVectorALib.o)
                0x0000000000eb2200                speRestore
                0x0000000000eb22e4                speSave
 .text          0x0000000000eb23b0      0x394 ../PM_FW_COMMON/Srv/Scheduler/lib/CORE1/cagOsCORE1-0.a(sysCacheE500ALib.o)
                0x0000000000eb23b0                cacheE500EnableI_Impl
                0x0000000000eb23dc                cacheE500EnableD_Impl
                0x0000000000eb2414                cacheE500InvalidateI
                0x0000000000eb2430                cacheE500InvalidateD
                0x0000000000eb2448                cacheE500ClearD
                0x0000000000eb2460                cacheE500FlushD
                0x0000000000eb24cc                cacheE500PipeFlush
                0x0000000000eb24dc                cacheE500TextUpdate
                0x0000000000eb250c                cacheE500DisableI_Impl
                0x0000000000eb2530                cacheE500DisableD_Impl
                0x0000000000eb25ec                cacheE500FlushAllD
                0x0000000000eb268c                sysL1cacheLock
                0x0000000000eb26bc                sysL1cacheUnLock
                0x0000000000eb26ec                sysL2cacheLock
                0x0000000000eb2718                sysL2cacheUnLock
 .text          0x0000000000eb2744      0x428 /vagrant/workspace/PM_FW_COMMON/Srv/Scheduler/lib/libgcc.a(_udivdi3.o)
                0x0000000000eb2744                __udivdi3
 *fill*         0x0000000000eb2b6c        0x4 
 .text          0x0000000000eb2b70      0x164 /vagrant/workspace/PM_FW_COMMON/Srv/Scheduler/lib/libc.a(strncmp.o)
                0x0000000000eb2b70                strncmp
 .text          0x0000000000eb2cd4      0x428 /vagrant/workspace/PM_FW_COMMON/Srv/Scheduler/lib/libgcc.a(_divdi3.o)
                0x0000000000eb2cd4                __divdi3
 .text          0x0000000000eb30fc      0x424 /vagrant/workspace/PM_FW_COMMON/Srv/Scheduler/lib/libgcc.a(_moddi3.o)
                0x0000000000eb30fc                __moddi3
 .text          0x0000000000eb3520      0xfc8 /vagrant/workspace/PM_FW_COMMON/Srv/Diag/asm/libAsmDiag.a(BPU_cond_branch_test_bca.o)
                0x0000000000eb3520                Bpu_branch_bca_code
                0x0000000000eb352c                BPUConBranchBcaTest
 .text          0x0000000000eb44e8      0x7d4 /vagrant/workspace/PM_FW_COMMON/Srv/Diag/asm/libAsmDiag.a(BPU_cond_branch_test_bcla.o)
                0x0000000000eb44e8                Bpu_branch_bcla_code
                0x0000000000eb44f8                BPUConBranchBclaTest
 .text          0x0000000000eb4cbc     0x3050 /vagrant/workspace/PM_FW_COMMON/Srv/Diag/asm/libAsmDiag.a(BPU_cond_branch_test.o)
                0x0000000000eb4cbc                BPUConBranchTest
 .text          0x0000000000eb7d0c      0x258 /vagrant/workspace/PM_FW_COMMON/Srv/Diag/asm/libAsmDiag.a(BPU_uncond_branch_test_ba_bla.o)
                0x0000000000eb7d0c                BPUBranchUnconBaTest
                0x0000000000eb7d1c                BPUBranchUnconBlaTest
                0x0000000000eb7d24                BPUBranchUnconBaBlaTest
 .text          0x0000000000eb7f64      0x21c /vagrant/workspace/PM_FW_COMMON/Srv/Diag/asm/libAsmDiag.a(BPU_uncond_branch_test.o)
                0x0000000000eb7f64                BPUBranchUnconTest
 .text          0x0000000000eb8180      0x3ac /vagrant/workspace/PM_FW_COMMON/Srv/Diag/asm/libAsmDiag.a(cr_test.o)
                0x0000000000eb8180                TestCR
 .text          0x0000000000eb852c     0x1214 /vagrant/workspace/PM_FW_COMMON/Srv/Diag/asm/libAsmDiag.a(data_cache_test.o)
                0x0000000000eb852c                DataCacheTest
 .text          0x0000000000eb9740     0x1454 /vagrant/workspace/PM_FW_COMMON/Srv/Diag/asm/libAsmDiag.a(GPR_interword_test.o)
                0x0000000000eb9740                GPRInterWordTest
 .text          0x0000000000ebab94     0x2ba4 /vagrant/workspace/PM_FW_COMMON/Srv/Diag/asm/libAsmDiag.a(GPR_intraword_test.o)
                0x0000000000ebab94                GPRIntraWordTest
 .text          0x0000000000ebd738     0x2294 /vagrant/workspace/PM_FW_COMMON/Srv/Diag/asm/libAsmDiag.a(IU1_test.o)
                0x0000000000ebd738                IU1Test
 .text          0x0000000000ebf9cc      0x418 /vagrant/workspace/PM_FW_COMMON/Srv/Diag/asm/libAsmDiag.a(IU2_test.o)
                0x0000000000ebf9cc                IU2Test
 .text          0x0000000000ebfde4      0x3ac /vagrant/workspace/PM_FW_COMMON/Srv/Diag/asm/libAsmDiag.a(lr_test.o)
                0x0000000000ebfde4                TestLR
 .text          0x0000000000ec0190      0x32c /vagrant/workspace/PM_FW_COMMON/Srv/Diag/asm/libAsmDiag.a(LSU_data_test.o)
                0x0000000000ec0190                LSUDataTest
 .text          0x0000000000ec04bc      0x3b8 /vagrant/workspace/PM_FW_COMMON/Srv/Diag/asm/libAsmDiag.a(LSU_ea_calc_test.o)
                0x0000000000ec04bc                LSUEffectiveAddressTest
 .text          0x0000000000ec0874      0x3b0 /vagrant/workspace/PM_FW_COMMON/Srv/Diag/asm/libAsmDiag.a(SPR_interword_test.o)
                0x0000000000ec0874                SPRInterwordTest
 .text          0x0000000000ec0c24      0x4e0 /vagrant/workspace/PM_FW_COMMON/Srv/Diag/asm/libAsmDiag.a(SPR_intraword_test.o)
                0x0000000000ec0c24                SPRIntrawordTest
 .text          0x0000000000ec1104     0x12f4 /vagrant/workspace/PM_FW_COMMON/Srv/Diag/asm/libAsmDiag.a(SPRG_test.o)
                0x0000000000ec1104                SPRGTest
 .text          0x0000000000ec23f8      0xe54 /vagrant/workspace/PM_FW_COMMON/Srv/Diag/asm/libAsmDiag.a(Pipeline_test.o)
                0x0000000000ec23f8                PipelineTest
                0x0000000000ec4000                . = ALIGN (0x1000)
 *fill*         0x0000000000ec324c      0xdb4 

.glink          0x0000000000ec4000        0x0
 .glink         0x0000000000000000        0x0 ./App/Main/src/RTSTaskExeEntryBin0.o

.text.sysCpuStart
                0x0000000000ec4000      0x12c
 .text.sysCpuStart
                0x0000000000ec4000      0x12c ../PM_FW_COMMON/Srv/Scheduler/lib/CORE1/cagOsCORE1-0.a(sysCpuLib.o)
                0x0000000000ec4000                sysCpuStart

.text.sysRoot   0x0000000000ec412c       0x50
 .text.sysRoot  0x0000000000ec412c       0x50 ../PM_FW_COMMON/Srv/Scheduler/lib/CORE1/cagOsCORE1-0.a(sysCpuLib.o)
                0x0000000000ec412c                sysRoot

.text.sysDeviceInit
                0x0000000000ec417c       0xb4
 .text.sysDeviceInit
                0x0000000000ec417c       0xb4 ../PM_FW_COMMON/Srv/Scheduler/lib/CORE1/cagOsCORE1-0.a(sysCpuLib.o)
                0x0000000000ec417c                sysDeviceInit

.text.sysEntry  0x0000000000ec4230       0x64
 .text.sysEntry
                0x0000000000ec4230       0x64 ../PM_FW_COMMON/Srv/Scheduler/lib/CORE1/cagOsCORE1-0.a(sysCpuLib.o)
                0x0000000000ec4230                sysEntry

.text.sysL1CacheQuery
                0x0000000000ec4294      0x10c
 .text.sysL1CacheQuery
                0x0000000000ec4294      0x10c ../PM_FW_COMMON/Srv/Scheduler/lib/CORE1/cagOsCORE1-0.a(sysCpuLib.o)

.text.sysOs     0x0000000000ec43a0      0x114
 .text.sysOs    0x0000000000ec43a0      0x114 ../PM_FW_COMMON/Srv/Scheduler/lib/CORE1/cagOsCORE1-0.a(sysEntry.o)
                0x0000000000ec43a0                sysOs

.text.atomic32Set
                0x0000000000ec44b4       0x44
 .text.atomic32Set
                0x0000000000ec44b4       0x44 ../PM_FW_COMMON/Srv/Scheduler/lib/CORE1/cagOsCORE1-0.a(sysEntry.o)
                0x0000000000ec44b4                atomic32Set

.text.atomic32Cas
                0x0000000000ec44f8       0x60
 .text.atomic32Cas
                0x0000000000ec44f8       0x60 ../PM_FW_COMMON/Srv/Scheduler/lib/CORE1/cagOsCORE1-0.a(sysEntry.o)
                0x0000000000ec44f8                atomic32Cas

.text.atomic32Get
                0x0000000000ec4558       0x2c
 .text.atomic32Get
                0x0000000000ec4558       0x2c ../PM_FW_COMMON/Srv/Scheduler/lib/CORE1/cagOsCORE1-0.a(sysEntry.o)
                0x0000000000ec4558                atomic32Get

.text.excVecInit
                0x0000000000ec4584       0x60
 .text.excVecInit
                0x0000000000ec4584       0x60 ../PM_FW_COMMON/Srv/Scheduler/lib/CORE1/cagOsCORE1-0.a(sysExcArchLib.o)
                0x0000000000ec4584                excVecInit

.text.excVecBaseSet
                0x0000000000ec45e4       0x54
 .text.excVecBaseSet
                0x0000000000ec45e4       0x54 ../PM_FW_COMMON/Srv/Scheduler/lib/CORE1/cagOsCORE1-0.a(sysExcArchLib.o)
                0x0000000000ec45e4                excVecBaseSet

.text.installE500ParityErrorRecovery
                0x0000000000ec4638       0x64
 .text.installE500ParityErrorRecovery
                0x0000000000ec4638       0x64 ../PM_FW_COMMON/Srv/Scheduler/lib/CORE1/cagOsCORE1-0.a(sysExcArchLib.o)
                0x0000000000ec4638                installE500ParityErrorRecovery

.text.machineException
                0x0000000000ec469c      0x1c0
 .text.machineException
                0x0000000000ec469c      0x1c0 ../PM_FW_COMMON/Srv/Scheduler/lib/CORE1/cagOsCORE1-0.a(sysExcArchLib.o)
                0x0000000000ec469c                machineException

.text.SpeException
                0x0000000000ec485c       0xc8
 .text.SpeException
                0x0000000000ec485c       0xc8 ../PM_FW_COMMON/Srv/Scheduler/lib/CORE1/cagOsCORE1-0.a(sysExcArchLib.o)
                0x0000000000ec485c                SpeException

.text.generalException
                0x0000000000ec4924      0x3a8
 .text.generalException
                0x0000000000ec4924      0x3a8 ../PM_FW_COMMON/Srv/Scheduler/lib/CORE1/cagOsCORE1-0.a(sysExcArchLib.o)
                0x0000000000ec4924                generalException

.text.exceInit  0x0000000000ec4ccc       0x40
 .text.exceInit
                0x0000000000ec4ccc       0x40 ../PM_FW_COMMON/Srv/Scheduler/lib/CORE1/cagOsCORE1-0.a(sysExcLib.o)
                0x0000000000ec4ccc                exceInit

.text.executeException
                0x0000000000ec4d0c       0x28
 .text.executeException
                0x0000000000ec4d0c       0x28 ../PM_FW_COMMON/Srv/Scheduler/lib/CORE1/cagOsCORE1-0.a(sysExcLib.o)
                0x0000000000ec4d0c                executeException

.text.sysGpioLineConfig
                0x0000000000ec4d34      0x200
 .text.sysGpioLineConfig
                0x0000000000ec4d34      0x200 ../PM_FW_COMMON/Srv/Scheduler/lib/CORE1/cagOsCORE1-0.a(sysGpio.o)
                0x0000000000ec4d34                sysGpioLineConfig

.text.sysGpioLineSet
                0x0000000000ec4f34       0xcc
 .text.sysGpioLineSet
                0x0000000000ec4f34       0xcc ../PM_FW_COMMON/Srv/Scheduler/lib/CORE1/cagOsCORE1-0.a(sysGpio.o)
                0x0000000000ec4f34                sysGpioLineSet

.text.irqInit   0x0000000000ec5000       0x40
 .text.irqInit  0x0000000000ec5000       0x40 ../PM_FW_COMMON/Srv/Scheduler/lib/CORE1/cagOsCORE1-0.a(sysInt.o)
                0x0000000000ec5000                irqInit

.text.irqRregister
                0x0000000000ec5040      0x18c
 .text.irqRregister
                0x0000000000ec5040      0x18c ../PM_FW_COMMON/Srv/Scheduler/lib/CORE1/cagOsCORE1-0.a(sysInt.o)
                0x0000000000ec5040                irqRregister

.text.OSIntHandler
                0x0000000000ec51cc      0x12c
 .text.OSIntHandler
                0x0000000000ec51cc      0x12c ../PM_FW_COMMON/Srv/Scheduler/lib/CORE1/cagOsCORE1-0.a(sysInt.o)
                0x0000000000ec51cc                OSIntHandler

.text.sysL2CacheInit
                0x0000000000ec52f8       0xe4
 .text.sysL2CacheInit
                0x0000000000ec52f8       0xe4 ../PM_FW_COMMON/Srv/Scheduler/lib/CORE1/cagOsCORE1-0.a(sysL2Cache.o)
                0x0000000000ec52f8                sysL2CacheInit

.text.sysL2CacheInvFunc
                0x0000000000ec53dc       0x74
 .text.sysL2CacheInvFunc
                0x0000000000ec53dc       0x74 ../PM_FW_COMMON/Srv/Scheduler/lib/CORE1/cagOsCORE1-0.a(sysL2Cache.o)

.text.sysL2CacheEnable
                0x0000000000ec5450       0x58
 .text.sysL2CacheEnable
                0x0000000000ec5450       0x58 ../PM_FW_COMMON/Srv/Scheduler/lib/CORE1/cagOsCORE1-0.a(sysL2Cache.o)

.text.sysL2CacheDisable
                0x0000000000ec54a8       0x58
 .text.sysL2CacheDisable
                0x0000000000ec54a8       0x58 ../PM_FW_COMMON/Srv/Scheduler/lib/CORE1/cagOsCORE1-0.a(sysL2Cache.o)

.text.sysL2CacheFlush
                0x0000000000ec5500       0x68
 .text.sysL2CacheFlush
                0x0000000000ec5500       0x68 ../PM_FW_COMMON/Srv/Scheduler/lib/CORE1/cagOsCORE1-0.a(sysL2Cache.o)

.text.powerpcIntDisable
                0x0000000000ec5568       0x44
 .text.powerpcIntDisable
                0x0000000000ec5568       0x44 ../PM_FW_COMMON/Srv/Scheduler/lib/CORE1/cagOsCORE1-0.a(sysOsSwitchLib.o)
                0x0000000000ec5568                powerpcIntDisable

.text.powerpcIntEnable
                0x0000000000ec55ac       0x50
 .text.powerpcIntEnable
                0x0000000000ec55ac       0x50 ../PM_FW_COMMON/Srv/Scheduler/lib/CORE1/cagOsCORE1-0.a(sysOsSwitchLib.o)
                0x0000000000ec55ac                powerpcIntEnable

.text.OSIdleTaskHook
                0x0000000000ec55fc       0x4c
 .text.OSIdleTaskHook
                0x0000000000ec55fc       0x4c ../PM_FW_COMMON/Srv/Scheduler/lib/CORE1/cagOsCORE1-0.a(sysOsSwitchLib.o)
                0x0000000000ec55fc                OSIdleTaskHook

.text.OSInitHook
                0x0000000000ec5648       0x4c
 .text.OSInitHook
                0x0000000000ec5648       0x4c ../PM_FW_COMMON/Srv/Scheduler/lib/CORE1/cagOsCORE1-0.a(sysOsSwitchLib.o)
                0x0000000000ec5648                OSInitHook

.text.OSTaskCreateHook
                0x0000000000ec5694       0x54
 .text.OSTaskCreateHook
                0x0000000000ec5694       0x54 ../PM_FW_COMMON/Srv/Scheduler/lib/CORE1/cagOsCORE1-0.a(sysOsSwitchLib.o)
                0x0000000000ec5694                OSTaskCreateHook

.text.OSTaskDelHook
                0x0000000000ec56e8       0x54
 .text.OSTaskDelHook
                0x0000000000ec56e8       0x54 ../PM_FW_COMMON/Srv/Scheduler/lib/CORE1/cagOsCORE1-0.a(sysOsSwitchLib.o)
                0x0000000000ec56e8                OSTaskDelHook

.text.OSTaskReturnHook
                0x0000000000ec573c       0x54
 .text.OSTaskReturnHook
                0x0000000000ec573c       0x54 ../PM_FW_COMMON/Srv/Scheduler/lib/CORE1/cagOsCORE1-0.a(sysOsSwitchLib.o)
                0x0000000000ec573c                OSTaskReturnHook

.text.OSTaskStkInit
                0x0000000000ec5790      0x4a8
 .text.OSTaskStkInit
                0x0000000000ec5790      0x4a8 ../PM_FW_COMMON/Srv/Scheduler/lib/CORE1/cagOsCORE1-0.a(sysOsSwitchLib.o)
                0x0000000000ec5790                OSTaskStkInit

.text.OSTimeTickHook
                0x0000000000ec5c38       0x4c
 .text.OSTimeTickHook
                0x0000000000ec5c38       0x4c ../PM_FW_COMMON/Srv/Scheduler/lib/CORE1/cagOsCORE1-0.a(sysOsSwitchLib.o)
                0x0000000000ec5c38                OSTimeTickHook

.text.sysEpicInit
                0x0000000000ec5c84      0x404
 .text.sysEpicInit
                0x0000000000ec5c84      0x404 ../PM_FW_COMMON/Srv/Scheduler/lib/CORE1/cagOsCORE1-0.a(sysPic.o)
                0x0000000000ec5c84                sysEpicInit

.text.sysEpicCurTaskPrioSet
                0x0000000000ec6088       0x9c
 .text.sysEpicCurTaskPrioSet
                0x0000000000ec6088       0x9c ../PM_FW_COMMON/Srv/Scheduler/lib/CORE1/cagOsCORE1-0.a(sysPic.o)
                0x0000000000ec6088                sysEpicCurTaskPrioSet

.text.sysEpicIntEnable
                0x0000000000ec6124       0xe8
 .text.sysEpicIntEnable
                0x0000000000ec6124       0xe8 ../PM_FW_COMMON/Srv/Scheduler/lib/CORE1/cagOsCORE1-0.a(sysPic.o)
                0x0000000000ec6124                sysEpicIntEnable

.text.sysEpicIntDisable
                0x0000000000ec620c       0xe8
 .text.sysEpicIntDisable
                0x0000000000ec620c       0xe8 ../PM_FW_COMMON/Srv/Scheduler/lib/CORE1/cagOsCORE1-0.a(sysPic.o)
                0x0000000000ec620c                sysEpicIntDisable

.text.sysEpicIntSourceSet
                0x0000000000ec62f4      0x178
 .text.sysEpicIntSourceSet
                0x0000000000ec62f4      0x178 ../PM_FW_COMMON/Srv/Scheduler/lib/CORE1/cagOsCORE1-0.a(sysPic.o)
                0x0000000000ec62f4                sysEpicIntSourceSet

.text.sysEpicCpuAvailGet
                0x0000000000ec646c       0x50
 .text.sysEpicCpuAvailGet
                0x0000000000ec646c       0x50 ../PM_FW_COMMON/Srv/Scheduler/lib/CORE1/cagOsCORE1-0.a(sysPic.o)
                0x0000000000ec646c                sysEpicCpuAvailGet

.text.sysEpicConfig
                0x0000000000ec64bc      0x120
 .text.sysEpicConfig
                0x0000000000ec64bc      0x120 ../PM_FW_COMMON/Srv/Scheduler/lib/CORE1/cagOsCORE1-0.a(sysPic.o)
                0x0000000000ec64bc                sysEpicConfig

.text.speExcInit
                0x0000000000ec65dc       0x80
 .text.speExcInit
                0x0000000000ec65dc       0x80 ../PM_FW_COMMON/Srv/Scheduler/lib/CORE1/cagOsCORE1-0.a(sysSpeExcLib.o)
                0x0000000000ec65dc                speExcInit

.text.OSTaskCreate
                0x0000000000ec665c      0x32c
 .text.OSTaskCreate
                0x0000000000ec665c      0x32c ../PM_FW_COMMON/Srv/Scheduler/lib/CORE1/cagOsCORE1-0.a(sysTask.o)
                0x0000000000ec665c                OSTaskCreate

.text.OSTaskDel
                0x0000000000ec6988      0x2e0
 .text.OSTaskDel
                0x0000000000ec6988      0x2e0 ../PM_FW_COMMON/Srv/Scheduler/lib/CORE1/cagOsCORE1-0.a(sysTask.o)
                0x0000000000ec6988                OSTaskDel

.text.OS_TaskInit
                0x0000000000ec6c68       0x44
 .text.OS_TaskInit
                0x0000000000ec6c68       0x44 ../PM_FW_COMMON/Srv/Scheduler/lib/CORE1/cagOsCORE1-0.a(sysTask.o)
                0x0000000000ec6c68                OS_TaskInit

.text.OS_TaskInitTCB
                0x0000000000ec6cac      0x1e8
 .text.OS_TaskInitTCB
                0x0000000000ec6cac      0x1e8 ../PM_FW_COMMON/Srv/Scheduler/lib/CORE1/cagOsCORE1-0.a(sysTask.o)
                0x0000000000ec6cac                OS_TaskInitTCB

.text.OS_TaskReturn
                0x0000000000ec6e94       0xf0
 .text.OS_TaskReturn
                0x0000000000ec6e94       0xf0 ../PM_FW_COMMON/Srv/Scheduler/lib/CORE1/cagOsCORE1-0.a(sysTask.o)
                0x0000000000ec6e94                OS_TaskReturn

.text.OS_TaskChangePrio
                0x0000000000ec6f84      0x23c
 .text.OS_TaskChangePrio
                0x0000000000ec6f84      0x23c ../PM_FW_COMMON/Srv/Scheduler/lib/CORE1/cagOsCORE1-0.a(sysTask.o)
                0x0000000000ec6f84                OS_TaskChangePrio

.text.get_tbclk
                0x0000000000ec71c0       0x58
 .text.get_tbclk
                0x0000000000ec71c0       0x58 ../PM_FW_COMMON/Srv/Scheduler/lib/CORE1/cagOsCORE1-0.a(sysTbl.o)
                0x0000000000ec71c0                get_tbclk

.text.getTblms  0x0000000000ec7218      0x11c
 .text.getTblms
                0x0000000000ec7218      0x11c ../PM_FW_COMMON/Srv/Scheduler/lib/CORE1/cagOsCORE1-0.a(sysTbl.o)
                0x0000000000ec7218                getTblms

.text.get_fpga  0x0000000000ec7334      0x138
 .text.get_fpga
                0x0000000000ec7334      0x138 ../PM_FW_COMMON/Srv/Scheduler/lib/CORE1/cagOsCORE1-0.a(sysTbl.o)
                0x0000000000ec7334                get_fpga

.text.OS_TickUpdate
                0x0000000000ec746c       0x80
 .text.OS_TickUpdate
                0x0000000000ec746c       0x80 ../PM_FW_COMMON/Srv/Scheduler/lib/CORE1/cagOsCORE1-0.a(sysTick.o)
                0x0000000000ec746c                OS_TickUpdate

.text.OS_TickListInsert
                0x0000000000ec74ec      0x204
 .text.OS_TickListInsert
                0x0000000000ec74ec      0x204 ../PM_FW_COMMON/Srv/Scheduler/lib/CORE1/cagOsCORE1-0.a(sysTick.o)
                0x0000000000ec74ec                OS_TickListInsert

.text.OS_TickListRemove
                0x0000000000ec76f0      0x150
 .text.OS_TickListRemove
                0x0000000000ec76f0      0x150 ../PM_FW_COMMON/Srv/Scheduler/lib/CORE1/cagOsCORE1-0.a(sysTick.o)
                0x0000000000ec76f0                OS_TickListRemove

.text.OS_TickListUpdateDly
                0x0000000000ec7840      0x120
 .text.OS_TickListUpdateDly
                0x0000000000ec7840      0x120 ../PM_FW_COMMON/Srv/Scheduler/lib/CORE1/cagOsCORE1-0.a(sysTick.o)

.text.OS_TickListUpdateTimeout
                0x0000000000ec7960      0x24c
 .text.OS_TickListUpdateTimeout
                0x0000000000ec7960      0x24c ../PM_FW_COMMON/Srv/Scheduler/lib/CORE1/cagOsCORE1-0.a(sysTick.o)

.text.OSTimeTick
                0x0000000000ec7bac       0x60
 .text.OSTimeTick
                0x0000000000ec7bac       0x60 ../PM_FW_COMMON/Srv/Scheduler/lib/CORE1/cagOsCORE1-0.a(sysTime.o)
                0x0000000000ec7bac                OSTimeTick

.text.dfs_init  0x0000000000ec7c0c       0x5c
 .text.dfs_init
                0x0000000000ec7c0c       0x5c ../PM_FW_COMMON/Srv/Scheduler/lib/CORE1/cagOsCORE1-0.a(dfs.o)
                0x0000000000ec7c0c                dfs_init

.text.dfs_register
                0x0000000000ec7c68       0x9c
 .text.dfs_register
                0x0000000000ec7c68       0x9c ../PM_FW_COMMON/Srv/Scheduler/lib/CORE1/cagOsCORE1-0.a(dfs.o)
                0x0000000000ec7c68                dfs_register

.text.get_dfs   0x0000000000ec7d04       0x50
 .text.get_dfs  0x0000000000ec7d04       0x50 ../PM_FW_COMMON/Srv/Scheduler/lib/CORE1/cagOsCORE1-0.a(dfs.o)
                0x0000000000ec7d04                get_dfs

.text.dfs_write
                0x0000000000ec7d54      0x1a4
 .text.dfs_write
                0x0000000000ec7d54      0x1a4 ../PM_FW_COMMON/Srv/Scheduler/lib/CORE1/cagOsCORE1-0.a(dfs.o)
                0x0000000000ec7d54                dfs_write

.text.dfs_read  0x0000000000ec7ef8      0x1f8
 .text.dfs_read
                0x0000000000ec7ef8      0x1f8 ../PM_FW_COMMON/Srv/Scheduler/lib/CORE1/cagOsCORE1-0.a(dfs.o)
                0x0000000000ec7ef8                dfs_read

.text.dfs_erase
                0x0000000000ec80f0      0x224
 .text.dfs_erase
                0x0000000000ec80f0      0x224 ../PM_FW_COMMON/Srv/Scheduler/lib/CORE1/cagOsCORE1-0.a(dfs.o)
                0x0000000000ec80f0                dfs_erase

.text.fs_init   0x0000000000ec8314      0x234
 .text.fs_init  0x0000000000ec8314      0x234 ../PM_FW_COMMON/Srv/Scheduler/lib/CORE1/cagOsCORE1-0.a(hw_init.o)
                0x0000000000ec8314                fs_init

.text.nor_init  0x0000000000ec8548      0x1ec
 .text.nor_init
                0x0000000000ec8548      0x1ec ../PM_FW_COMMON/Srv/Scheduler/lib/CORE1/cagOsCORE1-0.a(hw_init.o)
                0x0000000000ec8548                nor_init

.text.fpga_flash_init
                0x0000000000ec8734      0x100
 .text.fpga_flash_init
                0x0000000000ec8734      0x100 ../PM_FW_COMMON/Srv/Scheduler/lib/CORE1/cagOsCORE1-0.a(hw_init.o)
                0x0000000000ec8734                fpga_flash_init

.text.lld_lock  0x0000000000ec8834       0x60
 .text.lld_lock
                0x0000000000ec8834       0x60 ../PM_FW_COMMON/Srv/Scheduler/lib/CORE1/cagOsCORE1-0.a(lld.o)

.text.lld_unlock
                0x0000000000ec8894       0x68
 .text.lld_unlock
                0x0000000000ec8894       0x68 ../PM_FW_COMMON/Srv/Scheduler/lib/CORE1/cagOsCORE1-0.a(lld.o)

.text.lld_InitCmd
                0x0000000000ec88fc       0x2c
 .text.lld_InitCmd
                0x0000000000ec88fc       0x2c ../PM_FW_COMMON/Srv/Scheduler/lib/CORE1/cagOsCORE1-0.a(lld.o)
                0x0000000000ec88fc                lld_InitCmd

.text.lld_SectorEraseCmd
                0x0000000000ec8928       0x98
 .text.lld_SectorEraseCmd
                0x0000000000ec8928       0x98 ../PM_FW_COMMON/Srv/Scheduler/lib/CORE1/cagOsCORE1-0.a(lld.o)
                0x0000000000ec8928                lld_SectorEraseCmd

.text.lld_ChipEraseCmd
                0x0000000000ec89c0       0x80
 .text.lld_ChipEraseCmd
                0x0000000000ec89c0       0x80 ../PM_FW_COMMON/Srv/Scheduler/lib/CORE1/cagOsCORE1-0.a(lld.o)
                0x0000000000ec89c0                lld_ChipEraseCmd

.text.lld_ProgramCmd
                0x0000000000ec8a40       0x78
 .text.lld_ProgramCmd
                0x0000000000ec8a40       0x78 ../PM_FW_COMMON/Srv/Scheduler/lib/CORE1/cagOsCORE1-0.a(lld.o)
                0x0000000000ec8a40                lld_ProgramCmd

.text.lld_WriteToBufferCmd
                0x0000000000ec8ab8       0x78
 .text.lld_WriteToBufferCmd
                0x0000000000ec8ab8       0x78 ../PM_FW_COMMON/Srv/Scheduler/lib/CORE1/cagOsCORE1-0.a(lld.o)
                0x0000000000ec8ab8                lld_WriteToBufferCmd

.text.lld_ProgramBufferToFlashCmd
                0x0000000000ec8b30       0x3c
 .text.lld_ProgramBufferToFlashCmd
                0x0000000000ec8b30       0x3c ../PM_FW_COMMON/Srv/Scheduler/lib/CORE1/cagOsCORE1-0.a(lld.o)
                0x0000000000ec8b30                lld_ProgramBufferToFlashCmd

.text.lld_WriteBufferAbortResetCmd
                0x0000000000ec8b6c       0x50
 .text.lld_WriteBufferAbortResetCmd
                0x0000000000ec8b6c       0x50 ../PM_FW_COMMON/Srv/Scheduler/lib/CORE1/cagOsCORE1-0.a(lld.o)
                0x0000000000ec8b6c                lld_WriteBufferAbortResetCmd

.text.lld_Poll  0x0000000000ec8bbc      0x1a8
 .text.lld_Poll
                0x0000000000ec8bbc      0x1a8 ../PM_FW_COMMON/Srv/Scheduler/lib/CORE1/cagOsCORE1-0.a(lld.o)
                0x0000000000ec8bbc                lld_Poll

.text.lld_StatusGet
                0x0000000000ec8d64      0x238
 .text.lld_StatusGet
                0x0000000000ec8d64      0x238 ../PM_FW_COMMON/Srv/Scheduler/lib/CORE1/cagOsCORE1-0.a(lld.o)
                0x0000000000ec8d64                lld_StatusGet

.text.lld_ReadOp
                0x0000000000ec8f9c       0xb8
 .text.lld_ReadOp
                0x0000000000ec8f9c       0xb8 ../PM_FW_COMMON/Srv/Scheduler/lib/CORE1/cagOsCORE1-0.a(lld.o)
                0x0000000000ec8f9c                lld_ReadOp

.text.lld_WriteBufferProgramOp
                0x0000000000ec9054      0x1ac
 .text.lld_WriteBufferProgramOp
                0x0000000000ec9054      0x1ac ../PM_FW_COMMON/Srv/Scheduler/lib/CORE1/cagOsCORE1-0.a(lld.o)
                0x0000000000ec9054                lld_WriteBufferProgramOp

.text.lld_ProgramOp
                0x0000000000ec9200       0xe4
 .text.lld_ProgramOp
                0x0000000000ec9200       0xe4 ../PM_FW_COMMON/Srv/Scheduler/lib/CORE1/cagOsCORE1-0.a(lld.o)
                0x0000000000ec9200                lld_ProgramOp

.text.lld_SectorEraseOp
                0x0000000000ec92e4       0xdc
 .text.lld_SectorEraseOp
                0x0000000000ec92e4       0xdc ../PM_FW_COMMON/Srv/Scheduler/lib/CORE1/cagOsCORE1-0.a(lld.o)
                0x0000000000ec92e4                lld_SectorEraseOp

.text.lld_ChipEraseOp
                0x0000000000ec93c0       0xec
 .text.lld_ChipEraseOp
                0x0000000000ec93c0       0xec ../PM_FW_COMMON/Srv/Scheduler/lib/CORE1/cagOsCORE1-0.a(lld.o)
                0x0000000000ec93c0                lld_ChipEraseOp

.text.lld_memcpy
                0x0000000000ec94ac      0x1ac
 .text.lld_memcpy
                0x0000000000ec94ac      0x1ac ../PM_FW_COMMON/Srv/Scheduler/lib/CORE1/cagOsCORE1-0.a(lld.o)
                0x0000000000ec94ac                lld_memcpy

.text.flash_read8
                0x0000000000ec9658       0xa8
 .text.flash_read8
                0x0000000000ec9658       0xa8 ../PM_FW_COMMON/Srv/Scheduler/lib/CORE1/cagOsCORE1-0.a(lld.o)

.text.flash_add_byte
                0x0000000000ec9700       0x5c
 .text.flash_add_byte
                0x0000000000ec9700       0x5c ../PM_FW_COMMON/Srv/Scheduler/lib/CORE1/cagOsCORE1-0.a(lld.o)

.text.lld_write
                0x0000000000ec975c      0x40c
 .text.lld_write
                0x0000000000ec975c      0x40c ../PM_FW_COMMON/Srv/Scheduler/lib/CORE1/cagOsCORE1-0.a(lld.o)
                0x0000000000ec975c                lld_write

.text.lld_read  0x0000000000ec9b68      0x274
 .text.lld_read
                0x0000000000ec9b68      0x274 ../PM_FW_COMMON/Srv/Scheduler/lib/CORE1/cagOsCORE1-0.a(lld.o)
                0x0000000000ec9b68                lld_read

.text.lld_erase
                0x0000000000ec9ddc      0x108
 .text.lld_erase
                0x0000000000ec9ddc      0x108 ../PM_FW_COMMON/Srv/Scheduler/lib/CORE1/cagOsCORE1-0.a(lld.o)
                0x0000000000ec9ddc                lld_erase

.text.memcpy    0x0000000000ec9ee4       0x50
 .text.memcpy   0x0000000000ec9ee4       0x50 ../PM_FW_COMMON/Srv/Scheduler/lib/CORE1/cagOsCORE1-0.a(memcpy.o)
                0x0000000000ec9ee4                memcpy

.text.memset    0x0000000000ec9f34       0x50
 .text.memset   0x0000000000ec9f34       0x50 ../PM_FW_COMMON/Srv/Scheduler/lib/CORE1/cagOsCORE1-0.a(memset.o)
                0x0000000000ec9f34                memset

.text.ns16550OutputChar
                0x0000000000ec9f84       0x7c
 .text.ns16550OutputChar
                0x0000000000ec9f84       0x7c ../PM_FW_COMMON/Srv/Scheduler/lib/CORE1/cagOsCORE1-0.a(ns16550.o)
                0x0000000000ec9f84                ns16550OutputChar

.text.ns16550DevInit
                0x0000000000eca000      0x168
 .text.ns16550DevInit
                0x0000000000eca000      0x168 ../PM_FW_COMMON/Srv/Scheduler/lib/CORE1/cagOsCORE1-0.a(ns16550.o)
                0x0000000000eca000                ns16550DevInit

.text.strnlen   0x0000000000eca168       0x74
 .text.strnlen  0x0000000000eca168       0x74 ../PM_FW_COMMON/Srv/Scheduler/lib/CORE1/cagOsCORE1-0.a(printk.o)
                0x0000000000eca168                strnlen

.text.skip_atoi
                0x0000000000eca1dc       0xb0
 .text.skip_atoi
                0x0000000000eca1dc       0xb0 ../PM_FW_COMMON/Srv/Scheduler/lib/CORE1/cagOsCORE1-0.a(printk.o)

.text.number    0x0000000000eca28c      0x43c
 .text.number   0x0000000000eca28c      0x43c ../PM_FW_COMMON/Srv/Scheduler/lib/CORE1/cagOsCORE1-0.a(printk.o)

.text.vsprintf  0x0000000000eca6c8      0xa60
 .text.vsprintf
                0x0000000000eca6c8      0xa60 ../PM_FW_COMMON/Srv/Scheduler/lib/CORE1/cagOsCORE1-0.a(printk.o)
                0x0000000000eca6c8                vsprintf

.text.putc      0x0000000000ecb128       0x60
 .text.putc     0x0000000000ecb128       0x60 ../PM_FW_COMMON/Srv/Scheduler/lib/CORE1/cagOsCORE1-0.a(printk.o)
                0x0000000000ecb128                putc

.text.puts      0x0000000000ecb188       0x68
 .text.puts     0x0000000000ecb188       0x68 ../PM_FW_COMMON/Srv/Scheduler/lib/CORE1/cagOsCORE1-0.a(printk.o)
                0x0000000000ecb188                puts

.text.printCfg  0x0000000000ecb1f0       0x2c
 .text.printCfg
                0x0000000000ecb1f0       0x2c ../PM_FW_COMMON/Srv/Scheduler/lib/CORE1/cagOsCORE1-0.a(printk.o)
                0x0000000000ecb1f0                printCfg

.text.printf    0x0000000000ecb21c       0xa0
 .text.printf   0x0000000000ecb21c       0xa0 ../PM_FW_COMMON/Srv/Scheduler/lib/CORE1/cagOsCORE1-0.a(printk.o)
                0x0000000000ecb21c                printf

.text.printe    0x0000000000ecb2bc       0x90
 .text.printe   0x0000000000ecb2bc       0x90 ../PM_FW_COMMON/Srv/Scheduler/lib/CORE1/cagOsCORE1-0.a(printk.o)
                0x0000000000ecb2bc                printe

.text.sffs_read_at
                0x0000000000ecb34c      0x1b0
 .text.sffs_read_at
                0x0000000000ecb34c       0xd8 ../PM_FW_COMMON/Srv/Scheduler/lib/CORE1/cagOsCORE1-0.a(sffs.o)
 .text.sffs_read_at
                0x0000000000ecb424       0xd8 ../PM_FW_COMMON/Srv/Scheduler/lib/CORE1/cagOsCORE1-0.a(fs_api.o)

.text.NOLOG     0x0000000000ecb4fc       0x3c
 .text.NOLOG    0x0000000000ecb4fc       0x3c ../PM_FW_COMMON/Srv/Scheduler/lib/CORE1/cagOsCORE1-0.a(sffs.o)
                0x0000000000ecb4fc                NOLOG

.text.sffs_lock
                0x0000000000ecb538       0x94
 .text.sffs_lock
                0x0000000000ecb538       0x94 ../PM_FW_COMMON/Srv/Scheduler/lib/CORE1/cagOsCORE1-0.a(sffs.o)
                0x0000000000ecb538                sffs_lock

.text.sffs_unlock
                0x0000000000ecb5cc       0x94
 .text.sffs_unlock
                0x0000000000ecb5cc       0x94 ../PM_FW_COMMON/Srv/Scheduler/lib/CORE1/cagOsCORE1-0.a(sffs.o)
                0x0000000000ecb5cc                sffs_unlock

.text.sffs_protect
                0x0000000000ecb660       0x1c
 .text.sffs_protect
                0x0000000000ecb660       0x1c ../PM_FW_COMMON/Srv/Scheduler/lib/CORE1/cagOsCORE1-0.a(sffs.o)
                0x0000000000ecb660                sffs_protect

.text.sffs_unprotect
                0x0000000000ecb67c       0x1c
 .text.sffs_unprotect
                0x0000000000ecb67c       0x1c ../PM_FW_COMMON/Srv/Scheduler/lib/CORE1/cagOsCORE1-0.a(sffs.o)
                0x0000000000ecb67c                sffs_unprotect

.text.sffs_get_fsfd
                0x0000000000ecb698       0x2c
 .text.sffs_get_fsfd
                0x0000000000ecb698       0x2c ../PM_FW_COMMON/Srv/Scheduler/lib/CORE1/cagOsCORE1-0.a(sffs.o)
                0x0000000000ecb698                sffs_get_fsfd

.text.sffs_set_errno
                0x0000000000ecb6c4       0x54
 .text.sffs_set_errno
                0x0000000000ecb6c4       0x54 ../PM_FW_COMMON/Srv/Scheduler/lib/CORE1/cagOsCORE1-0.a(sffs.o)
                0x0000000000ecb6c4                sffs_set_errno

.text.sffs_get_errno
                0x0000000000ecb718      0x158
 .text.sffs_get_errno
                0x0000000000ecb718      0x158 ../PM_FW_COMMON/Srv/Scheduler/lib/CORE1/cagOsCORE1-0.a(sffs.o)
                0x0000000000ecb718                sffs_get_errno

.text.sffs_write_at
                0x0000000000ecb870       0x88
 .text.sffs_write_at
                0x0000000000ecb870       0x88 ../PM_FW_COMMON/Srv/Scheduler/lib/CORE1/cagOsCORE1-0.a(sffs.o)

.text.sffs_erase_at
                0x0000000000ecb8f8       0xc0
 .text.sffs_erase_at
                0x0000000000ecb8f8       0xc0 ../PM_FW_COMMON/Srv/Scheduler/lib/CORE1/cagOsCORE1-0.a(sffs.o)

.text.sffs_get_se
                0x0000000000ecb9b8      0x164
 .text.sffs_get_se
                0x0000000000ecb9b8      0x164 ../PM_FW_COMMON/Srv/Scheduler/lib/CORE1/cagOsCORE1-0.a(sffs.o)

.text.sffs_set_sebit
                0x0000000000ecbb1c       0x54
 .text.sffs_set_sebit
                0x0000000000ecbb1c       0x54 ../PM_FW_COMMON/Srv/Scheduler/lib/CORE1/cagOsCORE1-0.a(sffs.o)

.text.sffs_clear_sebit
                0x0000000000ecbb70       0x54
 .text.sffs_clear_sebit
                0x0000000000ecbb70       0x54 ../PM_FW_COMMON/Srv/Scheduler/lib/CORE1/cagOsCORE1-0.a(sffs.o)

.text.sffs_ckstat
                0x0000000000ecbbc4       0x4c
 .text.sffs_ckstat
                0x0000000000ecbbc4       0x4c ../PM_FW_COMMON/Srv/Scheduler/lib/CORE1/cagOsCORE1-0.a(sffs.o)

.text.sffs_ck_fd
                0x0000000000ecbc10       0x74
 .text.sffs_ck_fd
                0x0000000000ecbc10       0x74 ../PM_FW_COMMON/Srv/Scheduler/lib/CORE1/cagOsCORE1-0.a(sffs.o)
                0x0000000000ecbc10                sffs_ck_fd

.text.sffs_check_fid
                0x0000000000ecbc84       0x8c
 .text.sffs_check_fid
                0x0000000000ecbc84       0x8c ../PM_FW_COMMON/Srv/Scheduler/lib/CORE1/cagOsCORE1-0.a(sffs.o)

.text.sffs_get_hdrss
                0x0000000000ecbd10      0x7f4
 .text.sffs_get_hdrss
                0x0000000000ecbd10      0x7f4 ../PM_FW_COMMON/Srv/Scheduler/lib/CORE1/cagOsCORE1-0.a(sffs.o)

.text.sffs_reset_filehdr
                0x0000000000ecc504      0x2c0
 .text.sffs_reset_filehdr
                0x0000000000ecc504      0x2c0 ../PM_FW_COMMON/Srv/Scheduler/lib/CORE1/cagOsCORE1-0.a(sffs.o)

.text.sffs_find_filehdr
                0x0000000000ecc7c4      0x164
 .text.sffs_find_filehdr
                0x0000000000ecc7c4      0x164 ../PM_FW_COMMON/Srv/Scheduler/lib/CORE1/cagOsCORE1-0.a(sffs.o)
                0x0000000000ecc7c4                sffs_find_filehdr

.text.sffs_get_filehdr
                0x0000000000ecc928       0xc8
 .text.sffs_get_filehdr
                0x0000000000ecc928       0xc8 ../PM_FW_COMMON/Srv/Scheduler/lib/CORE1/cagOsCORE1-0.a(sffs.o)

.text.sffs_is_mounted
                0x0000000000ecc9f0       0x2c
 .text.sffs_is_mounted
                0x0000000000ecc9f0       0x2c ../PM_FW_COMMON/Srv/Scheduler/lib/CORE1/cagOsCORE1-0.a(sffs.o)
                0x0000000000ecc9f0                sffs_is_mounted

.text.sffs_write_4k
                0x0000000000ecca1c      0x3d8
 .text.sffs_write_4k
                0x0000000000ecca1c      0x3d8 ../PM_FW_COMMON/Srv/Scheduler/lib/CORE1/cagOsCORE1-0.a(sffs.o)

.text.sffs_read_4k
                0x0000000000eccdf4      0x2bc
 .text.sffs_read_4k
                0x0000000000eccdf4      0x2bc ../PM_FW_COMMON/Srv/Scheduler/lib/CORE1/cagOsCORE1-0.a(sffs.o)

.text.sffs_slot_clear
                0x0000000000ecd0b0       0x80
 .text.sffs_slot_clear
                0x0000000000ecd0b0       0x80 ../PM_FW_COMMON/Srv/Scheduler/lib/CORE1/cagOsCORE1-0.a(sffs.o)
                0x0000000000ecd0b0                sffs_slot_clear

.text.sffs_start
                0x0000000000ecd130      0x310
 .text.sffs_start
                0x0000000000ecd130      0x310 ../PM_FW_COMMON/Srv/Scheduler/lib/CORE1/cagOsCORE1-0.a(sffs.o)

.text.sffs_open
                0x0000000000ecd440      0x2b8
 .text.sffs_open
                0x0000000000ecd440      0x2b8 ../PM_FW_COMMON/Srv/Scheduler/lib/CORE1/cagOsCORE1-0.a(sffs.o)
                0x0000000000ecd440                sffs_open

.text.sffs_close
                0x0000000000ecd6f8      0x7e8
 .text.sffs_close
                0x0000000000ecd6f8      0x7e8 ../PM_FW_COMMON/Srv/Scheduler/lib/CORE1/cagOsCORE1-0.a(sffs.o)
                0x0000000000ecd6f8                sffs_close

.text.sffs_write
                0x0000000000ecdee0      0x60c
 .text.sffs_write
                0x0000000000ecdee0      0x60c ../PM_FW_COMMON/Srv/Scheduler/lib/CORE1/cagOsCORE1-0.a(sffs.o)
                0x0000000000ecdee0                sffs_write

.text.sffs_read
                0x0000000000ece4ec      0x39c
 .text.sffs_read
                0x0000000000ece4ec      0x39c ../PM_FW_COMMON/Srv/Scheduler/lib/CORE1/cagOsCORE1-0.a(sffs.o)
                0x0000000000ece4ec                sffs_read

.text.sffs_rename
                0x0000000000ece888      0x60c
 .text.sffs_rename
                0x0000000000ece888      0x60c ../PM_FW_COMMON/Srv/Scheduler/lib/CORE1/cagOsCORE1-0.a(sffs.o)
                0x0000000000ece888                sffs_rename

.text.sffs_remove_byfd
                0x0000000000ecee94      0x494
 .text.sffs_remove_byfd
                0x0000000000ecee94      0x494 ../PM_FW_COMMON/Srv/Scheduler/lib/CORE1/cagOsCORE1-0.a(sffs.o)
                0x0000000000ecee94                sffs_remove_byfd

.text.sffs_remove_byname
                0x0000000000ecf328       0x90
 .text.sffs_remove_byname
                0x0000000000ecf328       0x90 ../PM_FW_COMMON/Srv/Scheduler/lib/CORE1/cagOsCORE1-0.a(sffs.o)
                0x0000000000ecf328                sffs_remove_byname

.text.sffs_format
                0x0000000000ecf3b8      0x1dc
 .text.sffs_format
                0x0000000000ecf3b8      0x1dc ../PM_FW_COMMON/Srv/Scheduler/lib/CORE1/cagOsCORE1-0.a(sffs.o)
                0x0000000000ecf3b8                sffs_format

.text.sffs_check_sffs
                0x0000000000ecf594       0x64
 .text.sffs_check_sffs
                0x0000000000ecf594       0x64 ../PM_FW_COMMON/Srv/Scheduler/lib/CORE1/cagOsCORE1-0.a(sffs.o)

.text.sffs_register
                0x0000000000ecf5f8      0x114
 .text.sffs_register
                0x0000000000ecf5f8      0x114 ../PM_FW_COMMON/Srv/Scheduler/lib/CORE1/cagOsCORE1-0.a(sffs.o)
                0x0000000000ecf5f8                sffs_register

.text.sffs_get_slot
                0x0000000000ecf70c       0x58
 .text.sffs_get_slot
                0x0000000000ecf70c       0x58 ../PM_FW_COMMON/Srv/Scheduler/lib/CORE1/cagOsCORE1-0.a(sffs.o)
                0x0000000000ecf70c                sffs_get_slot

.text.sffs_mount
                0x0000000000ecf764      0x9cc
 .text.sffs_mount
                0x0000000000ecf764      0x9cc ../PM_FW_COMMON/Srv/Scheduler/lib/CORE1/cagOsCORE1-0.a(sffs.o)
                0x0000000000ecf764                sffs_mount

.text.sf_get_stat
                0x0000000000ed0130       0x94
 .text.sf_get_stat
                0x0000000000ed0130       0x94 ../PM_FW_COMMON/Srv/Scheduler/lib/CORE1/cagOsCORE1-0.a(sf.o)

.text.sf_set_addr
                0x0000000000ed01c4       0x74
 .text.sf_set_addr
                0x0000000000ed01c4       0x74 ../PM_FW_COMMON/Srv/Scheduler/lib/CORE1/cagOsCORE1-0.a(sf.o)

.text.sf_set_timeout
                0x0000000000ed0238       0x6c
 .text.sf_set_timeout
                0x0000000000ed0238       0x6c ../PM_FW_COMMON/Srv/Scheduler/lib/CORE1/cagOsCORE1-0.a(sf.o)

.text.sf_addr_ck
                0x0000000000ed02a4       0xdc
 .text.sf_addr_ck
                0x0000000000ed02a4       0xdc ../PM_FW_COMMON/Srv/Scheduler/lib/CORE1/cagOsCORE1-0.a(sf.o)

.text.spiflash_read
                0x0000000000ed0380      0x1f4
 .text.spiflash_read
                0x0000000000ed0380      0x1f4 ../PM_FW_COMMON/Srv/Scheduler/lib/CORE1/cagOsCORE1-0.a(sf.o)
                0x0000000000ed0380                spiflash_read

.text.spiflash_write
                0x0000000000ed0574      0x1d8
 .text.spiflash_write
                0x0000000000ed0574      0x1d8 ../PM_FW_COMMON/Srv/Scheduler/lib/CORE1/cagOsCORE1-0.a(sf.o)
                0x0000000000ed0574                spiflash_write

.text.spiflash_erase
                0x0000000000ed074c      0x218
 .text.spiflash_erase
                0x0000000000ed074c      0x218 ../PM_FW_COMMON/Srv/Scheduler/lib/CORE1/cagOsCORE1-0.a(sf.o)
                0x0000000000ed074c                spiflash_erase

.text.strcpy    0x0000000000ed0964       0x6c
 .text.strcpy   0x0000000000ed0964       0x6c ../PM_FW_COMMON/Srv/Scheduler/lib/CORE1/cagOsCORE1-0.a(strcpy.o)
                0x0000000000ed0964                strcpy

.text.strlen    0x0000000000ed09d0       0x5c
 .text.strlen   0x0000000000ed09d0       0x5c ../PM_FW_COMMON/Srv/Scheduler/lib/CORE1/cagOsCORE1-0.a(strlen.o)
                0x0000000000ed09d0                strlen

.text.strncpy   0x0000000000ed0a2c       0xc8
 .text.strncpy  0x0000000000ed0a2c       0xc8 ../PM_FW_COMMON/Srv/Scheduler/lib/CORE1/cagOsCORE1-0.a(strncpy.o)
                0x0000000000ed0a2c                strncpy

.text.printLogo
                0x0000000000ed0af4       0x80
 .text.printLogo
                0x0000000000ed0af4       0x80 ../PM_FW_COMMON/Srv/Scheduler/lib/CORE1/cagOsCORE1-0.a(sysBanner.o)
                0x0000000000ed0af4                printLogo

.text.sysBanner
                0x0000000000ed0b74       0x30
 .text.sysBanner
                0x0000000000ed0b74       0x30 ../PM_FW_COMMON/Srv/Scheduler/lib/CORE1/cagOsCORE1-0.a(sysBanner.o)
                0x0000000000ed0b74                sysBanner

.text.sysClkFreqGet
                0x0000000000ed0ba4       0x28
 .text.sysClkFreqGet
                0x0000000000ed0ba4       0x28 ../PM_FW_COMMON/Srv/Scheduler/lib/CORE1/cagOsCORE1-0.a(sysBoard.o)
                0x0000000000ed0ba4                sysClkFreqGet

.text.sysUsDelay
                0x0000000000ed0bcc      0x104
 .text.sysUsDelay
                0x0000000000ed0bcc      0x104 ../PM_FW_COMMON/Srv/Scheduler/lib/CORE1/cagOsCORE1-0.a(sysBoard.o)
                0x0000000000ed0bcc                sysUsDelay

.text.sysUartClkRateGet
                0x0000000000ed0cd0       0x28
 .text.sysUartClkRateGet
                0x0000000000ed0cd0       0x28 ../PM_FW_COMMON/Srv/Scheduler/lib/CORE1/cagOsCORE1-0.a(sysBoard.o)
                0x0000000000ed0cd0                sysUartClkRateGet

.text.sysMiscInit
                0x0000000000ed0cf8       0x58
 .text.sysMiscInit
                0x0000000000ed0cf8       0x58 ../PM_FW_COMMON/Srv/Scheduler/lib/CORE1/cagOsCORE1-0.a(sysBoard.o)
                0x0000000000ed0cf8                sysMiscInit

.text.hang      0x0000000000ed0d50       0x54
 .text.hang     0x0000000000ed0d50       0x54 ../PM_FW_COMMON/Srv/Scheduler/lib/CORE1/cagOsCORE1-0.a(sysBoard.o)
                0x0000000000ed0d50                hang

.text.panic     0x0000000000ed0da4       0x4c
 .text.panic    0x0000000000ed0da4       0x4c ../PM_FW_COMMON/Srv/Scheduler/lib/CORE1/cagOsCORE1-0.a(sysBoard.o)
                0x0000000000ed0da4                panic

.text.cacheArchEnable
                0x0000000000ed0df0       0x58
 .text.cacheArchEnable
                0x0000000000ed0df0       0x58 ../PM_FW_COMMON/Srv/Scheduler/lib/CORE1/cagOsCORE1-0.a(sysCacheE500Lib.o)
                0x0000000000ed0df0                cacheArchEnable

.text.cacheE500EnableI
                0x0000000000ed0e48       0x40
 .text.cacheE500EnableI
                0x0000000000ed0e48       0x40 ../PM_FW_COMMON/Srv/Scheduler/lib/CORE1/cagOsCORE1-0.a(sysCacheE500Lib.o)
                0x0000000000ed0e48                cacheE500EnableI

.text.cacheE500EnableD
                0x0000000000ed0e88       0x80
 .text.cacheE500EnableD
                0x0000000000ed0e88       0x80 ../PM_FW_COMMON/Srv/Scheduler/lib/CORE1/cagOsCORE1-0.a(sysCacheE500Lib.o)
                0x0000000000ed0e88                cacheE500EnableD

.text.cacheE500DisableD
                0x0000000000ed0f08       0x30
 .text.cacheE500DisableD
                0x0000000000ed0f08       0x30 ../PM_FW_COMMON/Srv/Scheduler/lib/CORE1/cagOsCORE1-0.a(sysCacheE500Lib.o)
                0x0000000000ed0f08                cacheE500DisableD

.text.cacheE500DisableDFromMmu
                0x0000000000ed0f38       0x80
 .text.cacheE500DisableDFromMmu
                0x0000000000ed0f38       0x80 ../PM_FW_COMMON/Srv/Scheduler/lib/CORE1/cagOsCORE1-0.a(sysCacheE500Lib.o)
                0x0000000000ed0f38                cacheE500DisableDFromMmu

.text.cacheIsOnD
                0x0000000000ed0fb8       0x54
 .text.cacheIsOnD
                0x0000000000ed0fb8       0x54 ../PM_FW_COMMON/Srv/Scheduler/lib/CORE1/cagOsCORE1-0.a(sysCacheE500Lib.o)
                0x0000000000ed0fb8                cacheIsOnD

.text.OSCfg_Init
                0x0000000000ed100c       0x1c
 .text.OSCfg_Init
                0x0000000000ed100c       0x1c ../PM_FW_COMMON/Srv/Scheduler/lib/CORE1/cagOsCORE1-0.a(sysCfg.o)
                0x0000000000ed100c                OSCfg_Init

.text.OSInit    0x0000000000ed1028      0x1cc
 .text.OSInit   0x0000000000ed1028      0x1cc ../PM_FW_COMMON/Srv/Scheduler/lib/CORE1/cagOsCORE1-0.a(sysCore.o)
                0x0000000000ed1028                OSInit

.text.OSIntEnter
                0x0000000000ed11f4      0x110
 .text.OSIntEnter
                0x0000000000ed11f4      0x110 ../PM_FW_COMMON/Srv/Scheduler/lib/CORE1/cagOsCORE1-0.a(sysCore.o)
                0x0000000000ed11f4                OSIntEnter

.text.OSIntExit
                0x0000000000ed1304      0x1c4
 .text.OSIntExit
                0x0000000000ed1304      0x1c4 ../PM_FW_COMMON/Srv/Scheduler/lib/CORE1/cagOsCORE1-0.a(sysCore.o)
                0x0000000000ed1304                OSIntExit

.text.OSSched   0x0000000000ed14c8       0xf8
 .text.OSSched  0x0000000000ed14c8       0xf8 ../PM_FW_COMMON/Srv/Scheduler/lib/CORE1/cagOsCORE1-0.a(sysCore.o)
                0x0000000000ed14c8                OSSched

.text.OSStart   0x0000000000ed15c0       0xd8
 .text.OSStart  0x0000000000ed15c0       0xd8 ../PM_FW_COMMON/Srv/Scheduler/lib/CORE1/cagOsCORE1-0.a(sysCore.o)
                0x0000000000ed15c0                OSStart

.text.OS_IdleTask
                0x0000000000ed1698       0x3c
 .text.OS_IdleTask
                0x0000000000ed1698       0x3c ../PM_FW_COMMON/Srv/Scheduler/lib/CORE1/cagOsCORE1-0.a(sysCore.o)
                0x0000000000ed1698                OS_IdleTask

.text.OS_IdleTaskInit
                0x0000000000ed16d4       0xa4
 .text.OS_IdleTaskInit
                0x0000000000ed16d4       0xa4 ../PM_FW_COMMON/Srv/Scheduler/lib/CORE1/cagOsCORE1-0.a(sysCore.o)
                0x0000000000ed16d4                OS_IdleTaskInit

.text.OS_Pend   0x0000000000ed1778       0xe0
 .text.OS_Pend  0x0000000000ed1778       0xe0 ../PM_FW_COMMON/Srv/Scheduler/lib/CORE1/cagOsCORE1-0.a(sysCore.o)
                0x0000000000ed1778                OS_Pend

.text.OS_PendDataInit
                0x0000000000ed1858       0xd8
 .text.OS_PendDataInit
                0x0000000000ed1858       0xd8 ../PM_FW_COMMON/Srv/Scheduler/lib/CORE1/cagOsCORE1-0.a(sysCore.o)
                0x0000000000ed1858                OS_PendDataInit

.text.OS_PendListChangePrio
                0x0000000000ed1930       0xbc
 .text.OS_PendListChangePrio
                0x0000000000ed1930       0xbc ../PM_FW_COMMON/Srv/Scheduler/lib/CORE1/cagOsCORE1-0.a(sysCore.o)
                0x0000000000ed1930                OS_PendListChangePrio

.text.OS_PendListInit
                0x0000000000ed19ec       0x44
 .text.OS_PendListInit
                0x0000000000ed19ec       0x44 ../PM_FW_COMMON/Srv/Scheduler/lib/CORE1/cagOsCORE1-0.a(sysCore.o)
                0x0000000000ed19ec                OS_PendListInit

.text.OS_PendListInsertPrio
                0x0000000000ed1a30      0x1cc
 .text.OS_PendListInsertPrio
                0x0000000000ed1a30      0x1cc ../PM_FW_COMMON/Srv/Scheduler/lib/CORE1/cagOsCORE1-0.a(sysCore.o)
                0x0000000000ed1a30                OS_PendListInsertPrio

.text.OS_PendListRemove
                0x0000000000ed1bfc       0xb4
 .text.OS_PendListRemove
                0x0000000000ed1bfc       0xb4 ../PM_FW_COMMON/Srv/Scheduler/lib/CORE1/cagOsCORE1-0.a(sysCore.o)
                0x0000000000ed1bfc                OS_PendListRemove

.text.OS_PendListRemove1
                0x0000000000ed1cb0      0x128
 .text.OS_PendListRemove1
                0x0000000000ed1cb0      0x128 ../PM_FW_COMMON/Srv/Scheduler/lib/CORE1/cagOsCORE1-0.a(sysCore.o)
                0x0000000000ed1cb0                OS_PendListRemove1

.text.OS_Post   0x0000000000ed1dd8      0x1fc
 .text.OS_Post  0x0000000000ed1dd8      0x1fc ../PM_FW_COMMON/Srv/Scheduler/lib/CORE1/cagOsCORE1-0.a(sysCore.o)
                0x0000000000ed1dd8                OS_Post

.text.OS_Post1  0x0000000000ed1fd4       0xc4
 .text.OS_Post1
                0x0000000000ed1fd4       0xc4 ../PM_FW_COMMON/Srv/Scheduler/lib/CORE1/cagOsCORE1-0.a(sysCore.o)
                0x0000000000ed1fd4                OS_Post1

.text.OS_RdyListInit
                0x0000000000ed2098       0x90
 .text.OS_RdyListInit
                0x0000000000ed2098       0x90 ../PM_FW_COMMON/Srv/Scheduler/lib/CORE1/cagOsCORE1-0.a(sysCore.o)
                0x0000000000ed2098                OS_RdyListInit

.text.OS_RdyListInsert
                0x0000000000ed2128       0x78
 .text.OS_RdyListInsert
                0x0000000000ed2128       0x78 ../PM_FW_COMMON/Srv/Scheduler/lib/CORE1/cagOsCORE1-0.a(sysCore.o)
                0x0000000000ed2128                OS_RdyListInsert

.text.OS_RdyListInsertHead
                0x0000000000ed21a0       0xf8
 .text.OS_RdyListInsertHead
                0x0000000000ed21a0       0xf8 ../PM_FW_COMMON/Srv/Scheduler/lib/CORE1/cagOsCORE1-0.a(sysCore.o)
                0x0000000000ed21a0                OS_RdyListInsertHead

.text.OS_RdyListInsertTail
                0x0000000000ed2298       0xf4
 .text.OS_RdyListInsertTail
                0x0000000000ed2298       0xf4 ../PM_FW_COMMON/Srv/Scheduler/lib/CORE1/cagOsCORE1-0.a(sysCore.o)
                0x0000000000ed2298                OS_RdyListInsertTail

.text.OS_RdyListMoveHeadToTail
                0x0000000000ed238c      0x120
 .text.OS_RdyListMoveHeadToTail
                0x0000000000ed238c      0x120 ../PM_FW_COMMON/Srv/Scheduler/lib/CORE1/cagOsCORE1-0.a(sysCore.o)
                0x0000000000ed238c                OS_RdyListMoveHeadToTail

.text.OS_RdyListRemove
                0x0000000000ed24ac      0x164
 .text.OS_RdyListRemove
                0x0000000000ed24ac      0x164 ../PM_FW_COMMON/Srv/Scheduler/lib/CORE1/cagOsCORE1-0.a(sysCore.o)
                0x0000000000ed24ac                OS_RdyListRemove

.text.OS_SchedRoundRobin
                0x0000000000ed2610      0x12c
 .text.OS_SchedRoundRobin
                0x0000000000ed2610      0x12c ../PM_FW_COMMON/Srv/Scheduler/lib/CORE1/cagOsCORE1-0.a(sysCore.o)
                0x0000000000ed2610                OS_SchedRoundRobin

.text.OS_TaskBlock
                0x0000000000ed273c       0x78
 .text.OS_TaskBlock
                0x0000000000ed273c       0x78 ../PM_FW_COMMON/Srv/Scheduler/lib/CORE1/cagOsCORE1-0.a(sysCore.o)
                0x0000000000ed273c                OS_TaskBlock

.text.mmuE500TlbStaticEntrySet
                0x0000000000ed27b4      0x3a8
 .text.mmuE500TlbStaticEntrySet
                0x0000000000ed27b4      0x3a8 ../PM_FW_COMMON/Srv/Scheduler/lib/CORE1/cagOsCORE1-0.a(sysCpuE500Lib.o)
                0x0000000000ed27b4                mmuE500TlbStaticEntrySet

.text.mmuE500TlbStaticInit1
                0x0000000000ed2b5c       0x88
 .text.mmuE500TlbStaticInit1
                0x0000000000ed2b5c       0x88 ../PM_FW_COMMON/Srv/Scheduler/lib/CORE1/cagOsCORE1-0.a(sysCpuE500Lib.o)
                0x0000000000ed2b5c                mmuE500TlbStaticInit1

.text.clockTaskStart
                0x0000000000ed2be4       0xd8
 .text.clockTaskStart
                0x0000000000ed2be4       0xd8 ../PM_FW_COMMON/Srv/Scheduler/lib/CORE1/cagOsCORE1-0.a(sysDec.o)
                0x0000000000ed2be4                clockTaskStart

.text.OS_MsgPoolInit
                0x0000000000ed2cbc      0x190
 .text.OS_MsgPoolInit
                0x0000000000ed2cbc      0x190 ../PM_FW_COMMON/Srv/Scheduler/lib/CORE1/cagOsCORE1-0.a(sysMsg.o)
                0x0000000000ed2cbc                OS_MsgPoolInit

.text.OS_MutexInit
                0x0000000000ed2e4c       0x38
 .text.OS_MutexInit
                0x0000000000ed2e4c       0x38 ../PM_FW_COMMON/Srv/Scheduler/lib/CORE1/cagOsCORE1-0.a(sysMutex.o)
                0x0000000000ed2e4c                OS_MutexInit

.text.OS_MutexGrpAdd
                0x0000000000ed2e84       0x40
 .text.OS_MutexGrpAdd
                0x0000000000ed2e84       0x40 ../PM_FW_COMMON/Srv/Scheduler/lib/CORE1/cagOsCORE1-0.a(sysMutex.o)
                0x0000000000ed2e84                OS_MutexGrpAdd

.text.OS_MutexGrpRemove
                0x0000000000ed2ec4       0x6c
 .text.OS_MutexGrpRemove
                0x0000000000ed2ec4       0x6c ../PM_FW_COMMON/Srv/Scheduler/lib/CORE1/cagOsCORE1-0.a(sysMutex.o)
                0x0000000000ed2ec4                OS_MutexGrpRemove

.text.OS_MutexGrpPrioFindHighest
                0x0000000000ed2f30       0xb0
 .text.OS_MutexGrpPrioFindHighest
                0x0000000000ed2f30       0xb0 ../PM_FW_COMMON/Srv/Scheduler/lib/CORE1/cagOsCORE1-0.a(sysMutex.o)
                0x0000000000ed2f30                OS_MutexGrpPrioFindHighest

.text.OS_MutexGrpPostAll
                0x0000000000ed2fe0      0x108
 .text.OS_MutexGrpPostAll
                0x0000000000ed2fe0      0x108 ../PM_FW_COMMON/Srv/Scheduler/lib/CORE1/cagOsCORE1-0.a(sysMutex.o)
                0x0000000000ed2fe0                OS_MutexGrpPostAll

.text.OS_PrioInit
                0x0000000000ed30e8       0x5c
 .text.OS_PrioInit
                0x0000000000ed30e8       0x5c ../PM_FW_COMMON/Srv/Scheduler/lib/CORE1/cagOsCORE1-0.a(sysPrio.o)
                0x0000000000ed30e8                OS_PrioInit

.text.OS_PrioGetHighest
                0x0000000000ed3144       0x9c
 .text.OS_PrioGetHighest
                0x0000000000ed3144       0x9c ../PM_FW_COMMON/Srv/Scheduler/lib/CORE1/cagOsCORE1-0.a(sysPrio.o)
                0x0000000000ed3144                OS_PrioGetHighest

.text.OS_PrioInsert
                0x0000000000ed31e0       0xa0
 .text.OS_PrioInsert
                0x0000000000ed31e0       0xa0 ../PM_FW_COMMON/Srv/Scheduler/lib/CORE1/cagOsCORE1-0.a(sysPrio.o)
                0x0000000000ed31e0                OS_PrioInsert

.text.OS_PrioRemove
                0x0000000000ed3280       0xa4
 .text.OS_PrioRemove
                0x0000000000ed3280       0xa4 ../PM_FW_COMMON/Srv/Scheduler/lib/CORE1/cagOsCORE1-0.a(sysPrio.o)
                0x0000000000ed3280                OS_PrioRemove

.text.OS_QInit  0x0000000000ed3324       0x38
 .text.OS_QInit
                0x0000000000ed3324       0x38 ../PM_FW_COMMON/Srv/Scheduler/lib/CORE1/cagOsCORE1-0.a(sysQueue.o)
                0x0000000000ed3324                OS_QInit

.text.OSSemCreate
                0x0000000000ed335c       0xe4
 .text.OSSemCreate
                0x0000000000ed335c       0xe4 ../PM_FW_COMMON/Srv/Scheduler/lib/CORE1/cagOsCORE1-0.a(sysSem.o)
                0x0000000000ed335c                OSSemCreate

.text.OSSemPend
                0x0000000000ed3440      0x2f0
 .text.OSSemPend
                0x0000000000ed3440      0x2f0 ../PM_FW_COMMON/Srv/Scheduler/lib/CORE1/cagOsCORE1-0.a(sysSem.o)
                0x0000000000ed3440                OSSemPend

.text.OSSemPost
                0x0000000000ed3730       0xe8
 .text.OSSemPost
                0x0000000000ed3730       0xe8 ../PM_FW_COMMON/Srv/Scheduler/lib/CORE1/cagOsCORE1-0.a(sysSem.o)
                0x0000000000ed3730                OSSemPost

.text.OS_SemInit
                0x0000000000ed3818       0x38
 .text.OS_SemInit
                0x0000000000ed3818       0x38 ../PM_FW_COMMON/Srv/Scheduler/lib/CORE1/cagOsCORE1-0.a(sysSem.o)
                0x0000000000ed3818                OS_SemInit

.text.OS_SemPost
                0x0000000000ed3850      0x1a4
 .text.OS_SemPost
                0x0000000000ed3850      0x1a4 ../PM_FW_COMMON/Srv/Scheduler/lib/CORE1/cagOsCORE1-0.a(sysSem.o)
                0x0000000000ed3850                OS_SemPost

.text.get_bit_val
                0x0000000000ed39f4       0xa0
 .text.get_bit_val
                0x0000000000ed39f4       0xa0 ../PM_FW_COMMON/Srv/Scheduler/lib/CORE1/cagOsCORE1-0.a(bits.o)
                0x0000000000ed39f4                get_bit_val

.text.set_bit_val
                0x0000000000ed3a94       0xa8
 .text.set_bit_val
                0x0000000000ed3a94       0xa8 ../PM_FW_COMMON/Srv/Scheduler/lib/CORE1/cagOsCORE1-0.a(bits.o)
                0x0000000000ed3a94                set_bit_val

.text.clear_bit_val
                0x0000000000ed3b3c       0xb4
 .text.clear_bit_val
                0x0000000000ed3b3c       0xb4 ../PM_FW_COMMON/Srv/Scheduler/lib/CORE1/cagOsCORE1-0.a(bits.o)
                0x0000000000ed3b3c                clear_bit_val

.text.bcopy     0x0000000000ed3bf0      0x294
 .text.bcopy    0x0000000000ed3bf0      0x294 ../PM_FW_COMMON/Srv/Scheduler/lib/CORE1/cagOsCORE1-0.a(bLib.o)
                0x0000000000ed3bf0                bcopy

.text.bfill     0x0000000000ed3e84      0x120
 .text.bfill    0x0000000000ed3e84      0x120 ../PM_FW_COMMON/Srv/Scheduler/lib/CORE1/cagOsCORE1-0.a(bLib.o)
                0x0000000000ed3e84                bfill

.text.fpga_read
                0x0000000000ed3fa4       0x34
 .text.fpga_read
                0x0000000000ed3fa4       0x34 ../PM_FW_COMMON/Srv/Scheduler/lib/CORE1/cagOsCORE1-0.a(fpga.o)
                0x0000000000ed3fa4                fpga_read

.text.fpga_write
                0x0000000000ed3fd8       0x38
 .text.fpga_write
                0x0000000000ed3fd8       0x38 ../PM_FW_COMMON/Srv/Scheduler/lib/CORE1/cagOsCORE1-0.a(fpga.o)
                0x0000000000ed3fd8                fpga_write

.text.fs_get_err
                0x0000000000ed4010       0x40
 .text.fs_get_err
                0x0000000000ed4010       0x40 ../PM_FW_COMMON/Srv/Scheduler/lib/CORE1/cagOsCORE1-0.a(fs_api.o)
                0x0000000000ed4010                fs_get_err

.text.fs_mount2
                0x0000000000ed4050      0x138
 .text.fs_mount2
                0x0000000000ed4050      0x138 ../PM_FW_COMMON/Srv/Scheduler/lib/CORE1/cagOsCORE1-0.a(fs_api.o)
                0x0000000000ed4050                fs_mount2

.text.fs_file_len
                0x0000000000ed4188      0x134
 .text.fs_file_len
                0x0000000000ed4188      0x134 ../PM_FW_COMMON/Srv/Scheduler/lib/CORE1/cagOsCORE1-0.a(fs_api.o)
                0x0000000000ed4188                fs_file_len

.text.fs_rename
                0x0000000000ed42bc       0xec
 .text.fs_rename
                0x0000000000ed42bc       0xec ../PM_FW_COMMON/Srv/Scheduler/lib/CORE1/cagOsCORE1-0.a(fs_api.o)
                0x0000000000ed42bc                fs_rename

.text.fs_open   0x0000000000ed43a8      0x268
 .text.fs_open  0x0000000000ed43a8      0x268 ../PM_FW_COMMON/Srv/Scheduler/lib/CORE1/cagOsCORE1-0.a(fs_api.o)
                0x0000000000ed43a8                fs_open

.text.fs_remove
                0x0000000000ed4610       0xe4
 .text.fs_remove
                0x0000000000ed4610       0xe4 ../PM_FW_COMMON/Srv/Scheduler/lib/CORE1/cagOsCORE1-0.a(fs_api.o)
                0x0000000000ed4610                fs_remove

.text.fs_read   0x0000000000ed46f4      0x1c4
 .text.fs_read  0x0000000000ed46f4      0x1c4 ../PM_FW_COMMON/Srv/Scheduler/lib/CORE1/cagOsCORE1-0.a(fs_api.o)
                0x0000000000ed46f4                fs_read

.text.fs_write  0x0000000000ed48b8      0x1c4
 .text.fs_write
                0x0000000000ed48b8      0x1c4 ../PM_FW_COMMON/Srv/Scheduler/lib/CORE1/cagOsCORE1-0.a(fs_api.o)
                0x0000000000ed48b8                fs_write

.text.fs_close  0x0000000000ed4a7c      0x174
 .text.fs_close
                0x0000000000ed4a7c      0x174 ../PM_FW_COMMON/Srv/Scheduler/lib/CORE1/cagOsCORE1-0.a(fs_api.o)
                0x0000000000ed4a7c                fs_close

.text.fs_format
                0x0000000000ed4bf0       0xf0
 .text.fs_format
                0x0000000000ed4bf0       0xf0 ../PM_FW_COMMON/Srv/Scheduler/lib/CORE1/cagOsCORE1-0.a(fs_api.o)
                0x0000000000ed4bf0                fs_format

.text.fs_ls     0x0000000000ed4ce0      0x64c
 .text.fs_ls    0x0000000000ed4ce0      0x64c ../PM_FW_COMMON/Srv/Scheduler/lib/CORE1/cagOsCORE1-0.a(fs_api.o)
                0x0000000000ed4ce0                fs_ls

.text.strcmp    0x0000000000ed532c       0xa4
 .text.strcmp   0x0000000000ed532c       0xa4 ../PM_FW_COMMON/Srv/Scheduler/lib/CORE1/cagOsCORE1-0.a(strcmp.o)
                0x0000000000ed532c                strcmp

.text.rts_var_init
                0x0000000000ed53d0      0x100
 .text.rts_var_init
                0x0000000000ed53d0      0x100 ../PM_FW_COMMON/Srv/Scheduler/lib/CORE1/cagOsCORE1-0.a(sysApi.o)
                0x0000000000ed53d0                rts_var_init

.text.os_create_task
                0x0000000000ed54d0      0x1bc
 .text.os_create_task
                0x0000000000ed54d0      0x1bc ../PM_FW_COMMON/Srv/Scheduler/lib/CORE1/cagOsCORE1-0.a(sysApi.o)
                0x0000000000ed54d0                os_create_task

.text.udelay    0x0000000000ed568c       0x38
 .text.udelay   0x0000000000ed568c       0x38 ../PM_FW_COMMON/Srv/Scheduler/lib/CORE1/cagOsCORE1-0.a(sysApi.o)
                0x0000000000ed568c                udelay

.text.os_sem_create
                0x0000000000ed56c4       0xf8
 .text.os_sem_create
                0x0000000000ed56c4       0xf8 ../PM_FW_COMMON/Srv/Scheduler/lib/CORE1/cagOsCORE1-0.a(sysApi.o)
                0x0000000000ed56c4                os_sem_create

.text.os_sem_pend
                0x0000000000ed57bc      0x118
 .text.os_sem_pend
                0x0000000000ed57bc      0x118 ../PM_FW_COMMON/Srv/Scheduler/lib/CORE1/cagOsCORE1-0.a(sysApi.o)
                0x0000000000ed57bc                os_sem_pend

.text.os_sem_post
                0x0000000000ed58d4       0xf4
 .text.os_sem_post
                0x0000000000ed58d4       0xf4 ../PM_FW_COMMON/Srv/Scheduler/lib/CORE1/cagOsCORE1-0.a(sysApi.o)
                0x0000000000ed58d4                os_sem_post

.text.os_version
                0x0000000000ed59c8       0x28
 .text.os_version
                0x0000000000ed59c8       0x28 ../PM_FW_COMMON/Srv/Scheduler/lib/CORE1/cagOsCORE1-0.a(sysApi.o)
                0x0000000000ed59c8                os_version

.text.CPU_CntLeadZeros
                0x0000000000ed59f0       0x44
 .text.CPU_CntLeadZeros
                0x0000000000ed59f0       0x44 ../PM_FW_COMMON/Srv/Scheduler/lib/CORE1/cagOsCORE1-0.a(sysCount.o)
                0x0000000000ed59f0                CPU_CntLeadZeros

.text.CPU_CntLeadZeros32
                0x0000000000ed5a34      0x110
 .text.CPU_CntLeadZeros32
                0x0000000000ed5a34      0x110 ../PM_FW_COMMON/Srv/Scheduler/lib/CORE1/cagOsCORE1-0.a(sysCount.o)
                0x0000000000ed5a34                CPU_CntLeadZeros32

.text.SharedRtDataInit
                0x0000000000ed5b44       0x90
 .text.SharedRtDataInit
                0x0000000000ed5b44       0x90 ../PM_FW_COMMON/Srv/SharedMem/src/SharedRtData.o
                0x0000000000ed5b44                SharedRtDataInit

.text.SysGetSharedMemRtDataStartAddr
                0x0000000000ed5bd4       0x80
 .text.SysGetSharedMemRtDataStartAddr
                0x0000000000ed5bd4       0x80 ../PM_FW_COMMON/Srv/SharedMem/src/SharedRtData.o
                0x0000000000ed5bd4                SysGetSharedMemRtDataStartAddr

.text.SysGetSharedMemAppendInfoStartAddr
                0x0000000000ed5c54       0x38
 .text.SysGetSharedMemAppendInfoStartAddr
                0x0000000000ed5c54       0x38 ../PM_FW_COMMON/Srv/SharedMem/src/SharedRtData.o
                0x0000000000ed5c54                SysGetSharedMemAppendInfoStartAddr

.text.SharedCommInit
                0x0000000000ed5c8c       0x48
 .text.SharedCommInit
                0x0000000000ed5c8c       0x48 ../PM_FW_COMMON/Srv/SharedMem/src/SharedComm.o
                0x0000000000ed5c8c                SharedCommInit

.text.SysGetSMMsg
                0x0000000000ed5cd4      0x170
 .text.SysGetSMMsg
                0x0000000000ed5cd4      0x170 ../PM_FW_COMMON/Srv/SharedMem/src/SharedComm.o
                0x0000000000ed5cd4                SysGetSMMsg

.text.SysSetSMMsg
                0x0000000000ed5e44      0x198
 .text.SysSetSMMsg
                0x0000000000ed5e44      0x198 ../PM_FW_COMMON/Srv/SharedMem/src/SharedComm.o
                0x0000000000ed5e44                SysSetSMMsg

.text.SharedConfigInit
                0x0000000000ed5fdc      0x2a8
 .text.SharedConfigInit
                0x0000000000ed5fdc      0x2a8 ../PM_FW_COMMON/Srv/SharedMem/src/SharedConfig.o
                0x0000000000ed5fdc                SharedConfigInit

.text.SharedConfigAreaInit
                0x0000000000ed6284      0x440
 .text.SharedConfigAreaInit
                0x0000000000ed6284      0x440 ../PM_FW_COMMON/Srv/SharedMem/src/SharedConfig.o
                0x0000000000ed6284                SharedConfigAreaInit

.text.SharedGetIoModInfo
                0x0000000000ed66c4      0x104
 .text.SharedGetIoModInfo
                0x0000000000ed66c4      0x104 ../PM_FW_COMMON/Srv/SharedMem/src/SharedConfig.o
                0x0000000000ed66c4                SharedGetIoModInfo

.text.SharedGetCtrlStationInfo
                0x0000000000ed67c8      0x110
 .text.SharedGetCtrlStationInfo
                0x0000000000ed67c8      0x110 ../PM_FW_COMMON/Srv/SharedMem/src/SharedConfig.o
                0x0000000000ed67c8                SharedGetCtrlStationInfo

.text.SharedGetSOEConfigInfo
                0x0000000000ed68d8      0x118
 .text.SharedGetSOEConfigInfo
                0x0000000000ed68d8      0x118 ../PM_FW_COMMON/Srv/SharedMem/src/SharedConfig.o
                0x0000000000ed68d8                SharedGetSOEConfigInfo

.text.SharedGetP2PConfigInfo
                0x0000000000ed69f0       0x90
 .text.SharedGetP2PConfigInfo
                0x0000000000ed69f0       0x90 ../PM_FW_COMMON/Srv/SharedMem/src/SharedConfig.o
                0x0000000000ed69f0                SharedGetP2PConfigInfo

.text.SharedGetCMConfigInfo
                0x0000000000ed6a80       0x88
 .text.SharedGetCMConfigInfo
                0x0000000000ed6a80       0x88 ../PM_FW_COMMON/Srv/SharedMem/src/SharedConfig.o
                0x0000000000ed6a80                SharedGetCMConfigInfo

.text.SharedGetCMSlotIdTabl
                0x0000000000ed6b08       0x90
 .text.SharedGetCMSlotIdTabl
                0x0000000000ed6b08       0x90 ../PM_FW_COMMON/Srv/SharedMem/src/SharedConfig.o
                0x0000000000ed6b08                SharedGetCMSlotIdTabl

.text.SharedGetOldCMSlotIdTabl
                0x0000000000ed6b98       0x38
 .text.SharedGetOldCMSlotIdTabl
                0x0000000000ed6b98       0x38 ../PM_FW_COMMON/Srv/SharedMem/src/SharedConfig.o
                0x0000000000ed6b98                SharedGetOldCMSlotIdTabl

.text.SharedBackupOldCMSlotIdTabl
                0x0000000000ed6bd0       0xa0
 .text.SharedBackupOldCMSlotIdTabl
                0x0000000000ed6bd0       0xa0 ../PM_FW_COMMON/Srv/SharedMem/src/SharedConfig.o
                0x0000000000ed6bd0                SharedBackupOldCMSlotIdTabl

.text.SysGetDownloadAllStartFlag
                0x0000000000ed6c70       0x4c
 .text.SysGetDownloadAllStartFlag
                0x0000000000ed6c70       0x4c ../PM_FW_COMMON/Srv/SharedMem/src/SharedConfig.o
                0x0000000000ed6c70                SysGetDownloadAllStartFlag

.text.SysSetDownloadAllStartFlag
                0x0000000000ed6cbc       0x40
 .text.SysSetDownloadAllStartFlag
                0x0000000000ed6cbc       0x40 ../PM_FW_COMMON/Srv/SharedMem/src/SharedConfig.o
                0x0000000000ed6cbc                SysSetDownloadAllStartFlag

.text.SharedGetLogicInfoWrit
                0x0000000000ed6cfc       0xcc
 .text.SharedGetLogicInfoWrit
                0x0000000000ed6cfc       0xcc ../PM_FW_COMMON/Srv/SharedMem/src/SharedConfig.o
                0x0000000000ed6cfc                SharedGetLogicInfoWrit

.text.SharedGetExLibInfoWrit
                0x0000000000ed6dc8       0xcc
 .text.SharedGetExLibInfoWrit
                0x0000000000ed6dc8       0xcc ../PM_FW_COMMON/Srv/SharedMem/src/SharedConfig.o
                0x0000000000ed6dc8                SharedGetExLibInfoWrit

.text.SharedGetIoModInfoWrit
                0x0000000000ed6e94       0xd4
 .text.SharedGetIoModInfoWrit
                0x0000000000ed6e94       0xd4 ../PM_FW_COMMON/Srv/SharedMem/src/SharedConfig.o
                0x0000000000ed6e94                SharedGetIoModInfoWrit

.text.SharedGetCtrlStationInfoWrit
                0x0000000000ed6f68       0xcc
 .text.SharedGetCtrlStationInfoWrit
                0x0000000000ed6f68       0xcc ../PM_FW_COMMON/Srv/SharedMem/src/SharedConfig.o
                0x0000000000ed6f68                SharedGetCtrlStationInfoWrit

.text.SharedGetSOEConfigInfoWrit
                0x0000000000ed7034       0xd4
 .text.SharedGetSOEConfigInfoWrit
                0x0000000000ed7034       0xd4 ../PM_FW_COMMON/Srv/SharedMem/src/SharedConfig.o
                0x0000000000ed7034                SharedGetSOEConfigInfoWrit

.text.SharedGetP2PConfigInfoWrit
                0x0000000000ed7108       0xd4
 .text.SharedGetP2PConfigInfoWrit
                0x0000000000ed7108       0xd4 ../PM_FW_COMMON/Srv/SharedMem/src/SharedConfig.o
                0x0000000000ed7108                SharedGetP2PConfigInfoWrit

.text.SharedGetModbusMasterInfoWrit
                0x0000000000ed71dc       0xd4
 .text.SharedGetModbusMasterInfoWrit
                0x0000000000ed71dc       0xd4 ../PM_FW_COMMON/Srv/SharedMem/src/SharedConfig.o
                0x0000000000ed71dc                SharedGetModbusMasterInfoWrit

.text.SharedGetModbusSlaveInfoWrit
                0x0000000000ed72b0       0xd4
 .text.SharedGetModbusSlaveInfoWrit
                0x0000000000ed72b0       0xd4 ../PM_FW_COMMON/Srv/SharedMem/src/SharedConfig.o
                0x0000000000ed72b0                SharedGetModbusSlaveInfoWrit

.text.SharedGetVOTEConfigInfoWrit
                0x0000000000ed7384       0xd4
 .text.SharedGetVOTEConfigInfoWrit
                0x0000000000ed7384       0xd4 ../PM_FW_COMMON/Srv/SharedMem/src/SharedConfig.o
                0x0000000000ed7384                SharedGetVOTEConfigInfoWrit

.text.SharedGetRetainVarInfoWrit
                0x0000000000ed7458       0xcc
 .text.SharedGetRetainVarInfoWrit
                0x0000000000ed7458       0xcc ../PM_FW_COMMON/Srv/SharedMem/src/SharedConfig.o
                0x0000000000ed7458                SharedGetRetainVarInfoWrit

.text.SharedGetCMConfigInfoWrit
                0x0000000000ed7524       0xcc
 .text.SharedGetCMConfigInfoWrit
                0x0000000000ed7524       0xcc ../PM_FW_COMMON/Srv/SharedMem/src/SharedConfig.o
                0x0000000000ed7524                SharedGetCMConfigInfoWrit

.text.SharedGetCMSlotIdTablWrit
                0x0000000000ed75f0       0xd4
 .text.SharedGetCMSlotIdTablWrit
                0x0000000000ed75f0       0xd4 ../PM_FW_COMMON/Srv/SharedMem/src/SharedConfig.o
                0x0000000000ed75f0                SharedGetCMSlotIdTablWrit

.text.SharedGetDownloadFlg
                0x0000000000ed76c4       0x44
 .text.SharedGetDownloadFlg
                0x0000000000ed76c4       0x44 ../PM_FW_COMMON/Srv/SharedMem/src/SharedConfig.o
                0x0000000000ed76c4                SharedGetDownloadFlg

.text.SharedSetDownloadFlg
                0x0000000000ed7708       0x80
 .text.SharedSetDownloadFlg
                0x0000000000ed7708       0x80 ../PM_FW_COMMON/Srv/SharedMem/src/SharedConfig.o
                0x0000000000ed7708                SharedSetDownloadFlg

.text.SysGetIsConfigured
                0x0000000000ed7788       0x9c
 .text.SysGetIsConfigured
                0x0000000000ed7788       0x9c ../PM_FW_COMMON/Srv/SharedMem/src/SharedConfig.o
                0x0000000000ed7788                SysGetIsConfigured

.text.SysSetIsConfigured
                0x0000000000ed7824       0x68
 .text.SysSetIsConfigured
                0x0000000000ed7824       0x68 ../PM_FW_COMMON/Srv/SharedMem/src/SharedConfig.o
                0x0000000000ed7824                SysSetIsConfigured

.text.SharedGetCodeAreaWrit
                0x0000000000ed788c       0xe4
 .text.SharedGetCodeAreaWrit
                0x0000000000ed788c       0xe4 ../PM_FW_COMMON/Srv/SharedMem/src/SharedConfig.o
                0x0000000000ed788c                SharedGetCodeAreaWrit

.text.SharedSwitchPosInit
                0x0000000000ed7970       0x48
 .text.SharedSwitchPosInit
                0x0000000000ed7970       0x48 ../PM_FW_COMMON/Srv/SharedMem/src/SharedConfig.o
                0x0000000000ed7970                SharedSwitchPosInit

.text.SharedGetSwitchPos
                0x0000000000ed79b8       0x44
 .text.SharedGetSwitchPos
                0x0000000000ed79b8       0x44 ../PM_FW_COMMON/Srv/SharedMem/src/SharedConfig.o
                0x0000000000ed79b8                SharedGetSwitchPos

.text.SharedSetSwitchPos
                0x0000000000ed79fc       0x44
 .text.SharedSetSwitchPos
                0x0000000000ed79fc       0x44 ../PM_FW_COMMON/Srv/SharedMem/src/SharedConfig.o
                0x0000000000ed79fc                SharedSetSwitchPos

.text.SharedGetSwitchPosTmp
                0x0000000000ed7a40       0x44
 .text.SharedGetSwitchPosTmp
                0x0000000000ed7a40       0x44 ../PM_FW_COMMON/Srv/SharedMem/src/SharedConfig.o
                0x0000000000ed7a40                SharedGetSwitchPosTmp

.text.SharedSetSwitchPosTmp
                0x0000000000ed7a84       0x44
 .text.SharedSetSwitchPosTmp
                0x0000000000ed7a84       0x44 ../PM_FW_COMMON/Srv/SharedMem/src/SharedConfig.o
                0x0000000000ed7a84                SharedSetSwitchPosTmp

.text.SharedSetLocalPMID
                0x0000000000ed7ac8       0x64
 .text.SharedSetLocalPMID
                0x0000000000ed7ac8       0x64 ../PM_FW_COMMON/Srv/SharedMem/src/SharedConfig.o
                0x0000000000ed7ac8                SharedSetLocalPMID

.text.SharedGetLocalPMID
                0x0000000000ed7b2c       0x60
 .text.SharedGetLocalPMID
                0x0000000000ed7b2c       0x60 ../PM_FW_COMMON/Srv/SharedMem/src/SharedConfig.o
                0x0000000000ed7b2c                SharedGetLocalPMID

.text.SharedGetTaskConfigInfo
                0x0000000000ed7b8c       0x90
 .text.SharedGetTaskConfigInfo
                0x0000000000ed7b8c       0x90 ../PM_FW_COMMON/Srv/SharedMem/src/SharedConfig.o
                0x0000000000ed7b8c                SharedGetTaskConfigInfo

.text.SysGetTaskStatus
                0x0000000000ed7c1c       0xb0
 .text.SysGetTaskStatus
                0x0000000000ed7c1c       0xb0 ../PM_FW_COMMON/Srv/SharedMem/src/SharedConfig.o
                0x0000000000ed7c1c                SysGetTaskStatus

.text.SysSetTaskStatus
                0x0000000000ed7ccc       0xe8
 .text.SysSetTaskStatus
                0x0000000000ed7ccc       0xe8 ../PM_FW_COMMON/Srv/SharedMem/src/SharedConfig.o
                0x0000000000ed7ccc                SysSetTaskStatus

.text.SharedGetTaskNum
                0x0000000000ed7db4       0x80
 .text.SharedGetTaskNum
                0x0000000000ed7db4       0x80 ../PM_FW_COMMON/Srv/SharedMem/src/SharedConfig.o
                0x0000000000ed7db4                SharedGetTaskNum

.text.SharedGetSyncDataFlag
                0x0000000000ed7e34       0x6c
 .text.SharedGetSyncDataFlag
                0x0000000000ed7e34       0x6c ../PM_FW_COMMON/Srv/SharedMem/src/SharedConfig.o
                0x0000000000ed7e34                SharedGetSyncDataFlag

.text.SharedSetSyncDataFlag
                0x0000000000ed7ea0       0x70
 .text.SharedSetSyncDataFlag
                0x0000000000ed7ea0       0x70 ../PM_FW_COMMON/Srv/SharedMem/src/SharedConfig.o
                0x0000000000ed7ea0                SharedSetSyncDataFlag

.text.SharedGetSOEType
                0x0000000000ed7f10       0xfc
 .text.SharedGetSOEType
                0x0000000000ed7f10       0xfc ../PM_FW_COMMON/Srv/SharedMem/src/SharedConfig.o
                0x0000000000ed7f10                SharedGetSOEType

.text.SharedGetSOEActive
                0x0000000000ed800c       0xe8
 .text.SharedGetSOEActive
                0x0000000000ed800c       0xe8 ../PM_FW_COMMON/Srv/SharedMem/src/SharedConfig.o
                0x0000000000ed800c                SharedGetSOEActive

.text.SharedGetP2PSendBlockNum
                0x0000000000ed80f4       0x98
 .text.SharedGetP2PSendBlockNum
                0x0000000000ed80f4       0x98 ../PM_FW_COMMON/Srv/SharedMem/src/SharedConfig.o
                0x0000000000ed80f4                SharedGetP2PSendBlockNum

.text.SharedGetP2PBlockSendCycle
                0x0000000000ed818c      0x130
 .text.SharedGetP2PBlockSendCycle
                0x0000000000ed818c      0x130 ../PM_FW_COMMON/Srv/SharedMem/src/SharedConfig.o
                0x0000000000ed818c                SharedGetP2PBlockSendCycle

.text.SharedGetP2PBlockIDSend
                0x0000000000ed82bc       0xc8
 .text.SharedGetP2PBlockIDSend
                0x0000000000ed82bc       0xc8 ../PM_FW_COMMON/Srv/SharedMem/src/SharedConfig.o
                0x0000000000ed82bc                SharedGetP2PBlockIDSend

.text.SharedGetP2PBlockSendActive
                0x0000000000ed8384       0xc8
 .text.SharedGetP2PBlockSendActive
                0x0000000000ed8384       0xc8 ../PM_FW_COMMON/Srv/SharedMem/src/SharedConfig.o
                0x0000000000ed8384                SharedGetP2PBlockSendActive

.text.SharedGetP2PSendBlockInfo
                0x0000000000ed844c       0xfc
 .text.SharedGetP2PSendBlockInfo
                0x0000000000ed844c       0xfc ../PM_FW_COMMON/Srv/SharedMem/src/SharedConfig.o
                0x0000000000ed844c                SharedGetP2PSendBlockInfo

.text.SharedGetStationID
                0x0000000000ed8548       0x9c
 .text.SharedGetStationID
                0x0000000000ed8548       0x9c ../PM_FW_COMMON/Srv/SharedMem/src/SharedConfig.o
                0x0000000000ed8548                SharedGetStationID

.text.SharedGetCommTolCnt
                0x0000000000ed85e4       0x6c
 .text.SharedGetCommTolCnt
                0x0000000000ed85e4       0x6c ../PM_FW_COMMON/Srv/SharedMem/src/SharedConfig.o
                0x0000000000ed85e4                SharedGetCommTolCnt

.text.SharedGetConfigCrc
                0x0000000000ed8650      0x4b4
 .text.SharedGetConfigCrc
                0x0000000000ed8650      0x4b4 ../PM_FW_COMMON/Srv/SharedMem/src/SharedConfig.o
                0x0000000000ed8650                SharedGetConfigCrc

.text.SharedGetDownloadPM
                0x0000000000ed8b04       0x40
 .text.SharedGetDownloadPM
                0x0000000000ed8b04       0x40 ../PM_FW_COMMON/Srv/SharedMem/src/SharedConfig.o
                0x0000000000ed8b04                SharedGetDownloadPM

.text.SharedSetDownloadPM
                0x0000000000ed8b44       0x50
 .text.SharedSetDownloadPM
                0x0000000000ed8b44       0x50 ../PM_FW_COMMON/Srv/SharedMem/src/SharedConfig.o
                0x0000000000ed8b44                SharedSetDownloadPM

.text.SharedSetPowerOnConfigSwitchFlg
                0x0000000000ed8b94       0x5c
 .text.SharedSetPowerOnConfigSwitchFlg
                0x0000000000ed8b94       0x5c ../PM_FW_COMMON/Srv/SharedMem/src/SharedConfig.o
                0x0000000000ed8b94                SharedSetPowerOnConfigSwitchFlg

.text.SysGetWorkStatus
                0x0000000000ed8bf0       0x6c
 .text.SysGetWorkStatus
                0x0000000000ed8bf0       0x6c ../PM_FW_COMMON/Srv/SharedMem/src/SharedConfig.o
                0x0000000000ed8bf0                SysGetWorkStatus

.text.SysSetWorkStatus
                0x0000000000ed8c5c       0x70
 .text.SysSetWorkStatus
                0x0000000000ed8c5c       0x70 ../PM_FW_COMMON/Srv/SharedMem/src/SharedConfig.o
                0x0000000000ed8c5c                SysSetWorkStatus

.text.SharedGetWRParaBufID
                0x0000000000ed8ccc       0x9c
 .text.SharedGetWRParaBufID
                0x0000000000ed8ccc       0x9c ../PM_FW_COMMON/Srv/SharedMem/src/SharedConfig.o
                0x0000000000ed8ccc                SharedGetWRParaBufID

.text.SharedGetOnlineDownLoadSwitchFlg
                0x0000000000ed8d68       0x6c
 .text.SharedGetOnlineDownLoadSwitchFlg
                0x0000000000ed8d68       0x6c ../PM_FW_COMMON/Srv/SharedMem/src/SharedConfig.o
                0x0000000000ed8d68                SharedGetOnlineDownLoadSwitchFlg

.text.SharedSetOnlineDownLoadSwitchFlg
                0x0000000000ed8dd4       0xa0
 .text.SharedSetOnlineDownLoadSwitchFlg
                0x0000000000ed8dd4       0xa0 ../PM_FW_COMMON/Srv/SharedMem/src/SharedConfig.o
                0x0000000000ed8dd4                SharedSetOnlineDownLoadSwitchFlg

.text.SharedModConfigChangeInit
                0x0000000000ed8e74       0x44
 .text.SharedModConfigChangeInit
                0x0000000000ed8e74       0x44 ../PM_FW_COMMON/Srv/SharedMem/src/SharedConfig.o
                0x0000000000ed8e74                SharedModConfigChangeInit

.text.SharedSetModConfigChangeFlg
                0x0000000000ed8eb8       0x78
 .text.SharedSetModConfigChangeFlg
                0x0000000000ed8eb8       0x78 ../PM_FW_COMMON/Srv/SharedMem/src/SharedConfig.o
                0x0000000000ed8eb8                SharedSetModConfigChangeFlg

.text.SharedSetDisableRecoverFlg
                0x0000000000ed8f30       0x5c
 .text.SharedSetDisableRecoverFlg
                0x0000000000ed8f30       0x5c ../PM_FW_COMMON/Srv/SharedMem/src/SharedConfig.o
                0x0000000000ed8f30                SharedSetDisableRecoverFlg

.text.SharedMemInit
                0x0000000000ed8f8c       0x6c
 .text.SharedMemInit
                0x0000000000ed8f8c       0x6c ../PM_FW_COMMON/Srv/SharedMem/src/SharedMem.o
                0x0000000000ed8f8c                SharedMemInit

.text.SharedFlagInit
                0x0000000000ed8ff8       0xb8
 .text.SharedFlagInit
                0x0000000000ed8ff8       0xb8 ../PM_FW_COMMON/Srv/SharedMem/src/SharedMem.o
                0x0000000000ed8ff8                SharedFlagInit

.text.SharedSetPauseFlag
                0x0000000000ed90b0       0x7c
 .text.SharedSetPauseFlag
                0x0000000000ed90b0       0x7c ../PM_FW_COMMON/Srv/SharedMem/src/SharedMem.o
                0x0000000000ed90b0                SharedSetPauseFlag

.text.SharedGetPauseFlag
                0x0000000000ed912c       0x6c
 .text.SharedGetPauseFlag
                0x0000000000ed912c       0x6c ../PM_FW_COMMON/Srv/SharedMem/src/SharedMem.o
                0x0000000000ed912c                SharedGetPauseFlag

.text.SharedClearIECErrTime
                0x0000000000ed9198       0x60
 .text.SharedClearIECErrTime
                0x0000000000ed9198       0x60 ../PM_FW_COMMON/Srv/SharedMem/src/SharedMem.o
                0x0000000000ed9198                SharedClearIECErrTime

.text.SharedSetPMState
                0x0000000000ed91f8       0x34
 .text.SharedSetPMState
                0x0000000000ed91f8       0x34 ../PM_FW_COMMON/Srv/SharedMem/src/SharedMem.o
                0x0000000000ed91f8                SharedSetPMState

.text.SharedGetPMState
                0x0000000000ed922c       0x2c
 .text.SharedGetPMState
                0x0000000000ed922c       0x2c ../PM_FW_COMMON/Srv/SharedMem/src/SharedMem.o
                0x0000000000ed922c                SharedGetPMState

.text.SharedGetOSCPCtrl
                0x0000000000ed9258       0x5c
 .text.SharedGetOSCPCtrl
                0x0000000000ed9258       0x5c ../PM_FW_COMMON/Srv/SharedMem/src/SharedMem.o
                0x0000000000ed9258                SharedGetOSCPCtrl

.text.SharedGetOSCPBuff
                0x0000000000ed92b4       0x6c
 .text.SharedGetOSCPBuff
                0x0000000000ed92b4       0x6c ../PM_FW_COMMON/Srv/SharedMem/src/SharedMem.o
                0x0000000000ed92b4                SharedGetOSCPBuff

.text.LEDInit   0x0000000000ed9320       0x44
 .text.LEDInit  0x0000000000ed9320       0x44 ../PM_FW_COMMON/Srv/SharedMem/src/LED.o
                0x0000000000ed9320                LEDInit

.text.GetLEDState
                0x0000000000ed9364       0x6c
 .text.GetLEDState
                0x0000000000ed9364       0x6c ../PM_FW_COMMON/Srv/SharedMem/src/LED.o
                0x0000000000ed9364                GetLEDState

.text.SetLEDState
                0x0000000000ed93d0       0x70
 .text.SetLEDState
                0x0000000000ed93d0       0x70 ../PM_FW_COMMON/Srv/SharedMem/src/LED.o
                0x0000000000ed93d0                SetLEDState

.text.UpdateLEDRunningState
                0x0000000000ed9440      0x3e8
 .text.UpdateLEDRunningState
                0x0000000000ed9440      0x3e8 ../PM_FW_COMMON/Srv/SharedMem/src/LED.o
                0x0000000000ed9440                UpdateLEDRunningState

.text.SharedWatchdogInit
                0x0000000000ed9828       0x44
 .text.SharedWatchdogInit
                0x0000000000ed9828       0x44 ../PM_FW_COMMON/Srv/SharedMem/src/SharedWatchdog.o
                0x0000000000ed9828                SharedWatchdogInit

.text.SysGetSMWatchdogInfo
                0x0000000000ed986c       0xd0
 .text.SysGetSMWatchdogInfo
                0x0000000000ed986c       0xd0 ../PM_FW_COMMON/Srv/SharedMem/src/SharedWatchdog.o
                0x0000000000ed986c                SysGetSMWatchdogInfo

.text.SharedHandshakeInit
                0x0000000000ed993c       0x80
 .text.SharedHandshakeInit
                0x0000000000ed993c       0x80 ../PM_FW_COMMON/Srv/SharedMem/src/SharedHandshake.o
                0x0000000000ed993c                SharedHandshakeInit

.text.SysGetHandshakeSignal
                0x0000000000ed99bc       0xec
 .text.SysGetHandshakeSignal
                0x0000000000ed99bc       0xec ../PM_FW_COMMON/Srv/SharedMem/src/SharedHandshake.o
                0x0000000000ed99bc                SysGetHandshakeSignal

.text.SysSetHandshakeSignal
                0x0000000000ed9aa8       0xdc
 .text.SysSetHandshakeSignal
                0x0000000000ed9aa8       0xdc ../PM_FW_COMMON/Srv/SharedMem/src/SharedHandshake.o
                0x0000000000ed9aa8                SysSetHandshakeSignal

.text.SharedSafetyCommInit
                0x0000000000ed9b84       0x3c
 .text.SharedSafetyCommInit
                0x0000000000ed9b84       0x3c ../PM_FW_COMMON/Srv/SharedMem/src/SharedSafetyComm.o
                0x0000000000ed9b84                SharedSafetyCommInit

.text.SharedP2PSafetyCommInit
                0x0000000000ed9bc0       0x54
 .text.SharedP2PSafetyCommInit
                0x0000000000ed9bc0       0x54 ../PM_FW_COMMON/Srv/SharedMem/src/SharedSafetyComm.o
                0x0000000000ed9bc0                SharedP2PSafetyCommInit

.text.SharedPMSafetyCommInit
                0x0000000000ed9c14       0x54
 .text.SharedPMSafetyCommInit
                0x0000000000ed9c14       0x54 ../PM_FW_COMMON/Srv/SharedMem/src/SharedSafetyComm.o
                0x0000000000ed9c14                SharedPMSafetyCommInit

.text.SharedPMIOSafetyCommInit
                0x0000000000ed9c68       0x58
 .text.SharedPMIOSafetyCommInit
                0x0000000000ed9c68       0x58 ../PM_FW_COMMON/Srv/SharedMem/src/SharedSafetyComm.o
                0x0000000000ed9c68                SharedPMIOSafetyCommInit

.text.SysSetP2PSendTolFlag
                0x0000000000ed9cc0       0x60
 .text.SysSetP2PSendTolFlag
                0x0000000000ed9cc0       0x60 ../PM_FW_COMMON/Srv/SharedMem/src/SharedSafetyComm.o
                0x0000000000ed9cc0                SysSetP2PSendTolFlag

.text.SysSetP2PSendErrFlag
                0x0000000000ed9d20       0x64
 .text.SysSetP2PSendErrFlag
                0x0000000000ed9d20       0x64 ../PM_FW_COMMON/Srv/SharedMem/src/SharedSafetyComm.o
                0x0000000000ed9d20                SysSetP2PSendErrFlag

.text.SysSetP2PSendTimeoutFlag
                0x0000000000ed9d84       0x64
 .text.SysSetP2PSendTimeoutFlag
                0x0000000000ed9d84       0x64 ../PM_FW_COMMON/Srv/SharedMem/src/SharedSafetyComm.o
                0x0000000000ed9d84                SysSetP2PSendTimeoutFlag

.text.SharedSOEInit
                0x0000000000ed9de8      0x3c8
 .text.SharedSOEInit
                0x0000000000ed9de8      0x3c8 ../PM_FW_COMMON/Srv/SharedMem/src/SharedSOE.o
                0x0000000000ed9de8                SharedSOEInit

.text.SharedSOEKeyInit
                0x0000000000eda1b0       0x34
 .text.SharedSOEKeyInit
                0x0000000000eda1b0       0x34 ../PM_FW_COMMON/Srv/SharedMem/src/SharedSOE.o
                0x0000000000eda1b0                SharedSOEKeyInit

.text.SharedGetSOE
                0x0000000000eda1e4      0x1d4
 .text.SharedGetSOE
                0x0000000000eda1e4      0x1d4 ../PM_FW_COMMON/Srv/SharedMem/src/SharedSOE.o
                0x0000000000eda1e4                SharedGetSOE

.text.SharedClearSOE
                0x0000000000eda3b8      0x278
 .text.SharedClearSOE
                0x0000000000eda3b8      0x278 ../PM_FW_COMMON/Srv/SharedMem/src/SharedSOE.o
                0x0000000000eda3b8                SharedClearSOE

.text.SharedGetHardSOE
                0x0000000000eda630      0x720
 .text.SharedGetHardSOE
                0x0000000000eda630      0x720 ../PM_FW_COMMON/Srv/SharedMem/src/SharedSOE.o
                0x0000000000eda630                SharedGetHardSOE

.text.SharedGetDDRSOE
                0x0000000000edad50      0x650
 .text.SharedGetDDRSOE
                0x0000000000edad50      0x650 ../PM_FW_COMMON/Srv/SharedMem/src/SharedSOE.o

.text.SharedGetSRAMSOE
                0x0000000000edb3a0      0x6e0
 .text.SharedGetSRAMSOE
                0x0000000000edb3a0      0x6e0 ../PM_FW_COMMON/Srv/SharedMem/src/SharedSOE.o

.text.SharedDiagCodeInit
                0x0000000000edba80      0x124
 .text.SharedDiagCodeInit
                0x0000000000edba80      0x124 ../PM_FW_COMMON/Srv/SharedMem/src/SharedDiagCode.o
                0x0000000000edba80                SharedDiagCodeInit

.text.SysUpdateGetBuff
                0x0000000000edbba4       0x58
 .text.SysUpdateGetBuff
                0x0000000000edbba4       0x58 ./Srv/SysResource/src/SysUpdate.o
                0x0000000000edbba4                SysUpdateGetBuff

.text.SysSetOutputPollFlg
                0x0000000000edbbfc       0x44
 .text.SysSetOutputPollFlg
                0x0000000000edbbfc       0x44 /vagrant/workspace/PM_FW_COMMON/Srv/Sys/src/libSysCommon.a(CommSysMonitor.o)
                0x0000000000edbbfc                SysSetOutputPollFlg

.text.GetTemperature
                0x0000000000edbc40      0x1b8
 .text.GetTemperature
                0x0000000000edbc40      0x1b8 /vagrant/workspace/PM_FW_COMMON/Srv/Sys/src/libSysCommon.a(SysHardware.o)
                0x0000000000edbc40                GetTemperature

.text.GetSwitchKeyPos
                0x0000000000edbdf8       0x64
 .text.GetSwitchKeyPos
                0x0000000000edbdf8       0x64 /vagrant/workspace/PM_FW_COMMON/Srv/Sys/src/libSysCommon.a(SysHardware.o)
                0x0000000000edbdf8                GetSwitchKeyPos

.text.Get24Volt1AlarmBit
                0x0000000000edbe5c       0x68
 .text.Get24Volt1AlarmBit
                0x0000000000edbe5c       0x68 /vagrant/workspace/PM_FW_COMMON/Srv/Sys/src/libSysCommon.a(SysHardware.o)
                0x0000000000edbe5c                Get24Volt1AlarmBit

.text.Get24Volt2AlarmBit
                0x0000000000edbec4       0x68
 .text.Get24Volt2AlarmBit
                0x0000000000edbec4       0x68 /vagrant/workspace/PM_FW_COMMON/Srv/Sys/src/libSysCommon.a(SysHardware.o)
                0x0000000000edbec4                Get24Volt2AlarmBit

.text.GetBatteryAlarmBit
                0x0000000000edbf2c       0x64
 .text.GetBatteryAlarmBit
                0x0000000000edbf2c       0x64 /vagrant/workspace/PM_FW_COMMON/Srv/Sys/src/libSysCommon.a(SysHardware.o)
                0x0000000000edbf2c                GetBatteryAlarmBit

.text.UpdateStateLED
                0x0000000000edbf90       0x4c
 .text.UpdateStateLED
                0x0000000000edbf90       0x4c /vagrant/workspace/PM_FW_COMMON/Srv/Sys/src/libSysCommon.a(SysHardware.o)
                0x0000000000edbf90                UpdateStateLED

.text.UpdateKeyLED
                0x0000000000edbfdc       0x4c
 .text.UpdateKeyLED
                0x0000000000edbfdc       0x4c /vagrant/workspace/PM_FW_COMMON/Srv/Sys/src/libSysCommon.a(SysHardware.o)
                0x0000000000edbfdc                UpdateKeyLED

.text.UpdateComLED
                0x0000000000edc028       0x4c
 .text.UpdateComLED
                0x0000000000edc028       0x4c /vagrant/workspace/PM_FW_COMMON/Srv/Sys/src/libSysCommon.a(SysHardware.o)
                0x0000000000edc028                UpdateComLED

.text.SetLocalPMAddr
                0x0000000000edc074      0x130
 .text.SetLocalPMAddr
                0x0000000000edc074      0x130 /vagrant/workspace/PM_FW_COMMON/Srv/Sys/src/libSysCommon.a(SysHardware.o)
                0x0000000000edc074                SetLocalPMAddr

.text.SysGetMCUMonitorState
                0x0000000000edc1a4       0x64
 .text.SysGetMCUMonitorState
                0x0000000000edc1a4       0x64 /vagrant/workspace/PM_FW_COMMON/Srv/Sys/src/libSysCommon.a(SysHardware.o)
                0x0000000000edc1a4                SysGetMCUMonitorState

.text.GetLocalPMStabState
                0x0000000000edc208       0x84
 .text.GetLocalPMStabState
                0x0000000000edc208       0x84 /vagrant/workspace/PM_FW_COMMON/Srv/Sys/src/libSysCommon.a(SysHardware.o)
                0x0000000000edc208                GetLocalPMStabState

.text.SysSetAlarmLED
                0x0000000000edc28c       0x4c
 .text.SysSetAlarmLED
                0x0000000000edc28c       0x4c /vagrant/workspace/PM_FW_COMMON/Srv/Sys/src/libSysCommon.a(SysHardware.o)
                0x0000000000edc28c                SysSetAlarmLED

.text.SysGetSyncTimeLow32
                0x0000000000edc2d8       0xc8
 .text.SysGetSyncTimeLow32
                0x0000000000edc2d8       0xc8 /vagrant/workspace/PM_FW_COMMON/Srv/Sys/src/libSysCommon.a(SysHardware.o)
                0x0000000000edc2d8                SysGetSyncTimeLow32

.text.SysGetSyncTimeHigh16
                0x0000000000edc3a0       0x50
 .text.SysGetSyncTimeHigh16
                0x0000000000edc3a0       0x50 /vagrant/workspace/PM_FW_COMMON/Srv/Sys/src/libSysCommon.a(SysHardware.o)
                0x0000000000edc3a0                SysGetSyncTimeHigh16

.text.SysGetSyncTimeState
                0x0000000000edc3f0       0x50
 .text.SysGetSyncTimeState
                0x0000000000edc3f0       0x50 /vagrant/workspace/PM_FW_COMMON/Srv/Sys/src/libSysCommon.a(SysHardware.o)
                0x0000000000edc3f0                SysGetSyncTimeState

.text.SysGetModularOnLine
                0x0000000000edc440       0x50
 .text.SysGetModularOnLine
                0x0000000000edc440       0x50 /vagrant/workspace/PM_FW_COMMON/Srv/Sys/src/libSysCommon.a(SysHardware.o)
                0x0000000000edc440                SysGetModularOnLine

.text.SysSetTimerMasterEnable
                0x0000000000edc490       0x4c
 .text.SysSetTimerMasterEnable
                0x0000000000edc490       0x4c /vagrant/workspace/PM_FW_COMMON/Srv/Sys/src/libSysCommon.a(SysHardware.o)
                0x0000000000edc490                SysSetTimerMasterEnable

.text.SysSetSWRuninOK
                0x0000000000edc4dc       0x4c
 .text.SysSetSWRuninOK
                0x0000000000edc4dc       0x4c /vagrant/workspace/PM_FW_COMMON/Srv/Sys/src/libSysCommon.a(SysHardware.o)
                0x0000000000edc4dc                SysSetSWRuninOK

.text.SysGetMainBackupState
                0x0000000000edc528       0x50
 .text.SysGetMainBackupState
                0x0000000000edc528       0x50 /vagrant/workspace/PM_FW_COMMON/Srv/Sys/src/libSysCommon.a(SysHardware.o)
                0x0000000000edc528                SysGetMainBackupState

.text.SysGetSystemtime
                0x0000000000edc578      0x1a4
 .text.SysGetSystemtime
                0x0000000000edc578      0x1a4 /vagrant/workspace/PM_FW_COMMON/Srv/Sys/src/libSysCommon.a(SysHardware.o)
                0x0000000000edc578                SysGetSystemtime

.text.SysGetSysTime
                0x0000000000edc71c      0x110
 .text.SysGetSysTime
                0x0000000000edc71c      0x110 /vagrant/workspace/PM_FW_COMMON/Srv/Sys/src/libSysCommon.a(SysHardware.o)
                0x0000000000edc71c                SysGetSysTime

.text.SysAdjustSystemTime
                0x0000000000edc82c       0xe8
 .text.SysAdjustSystemTime
                0x0000000000edc82c       0xe8 /vagrant/workspace/PM_FW_COMMON/Srv/Sys/src/libSysCommon.a(SysHardware.o)
                0x0000000000edc82c                SysAdjustSystemTime

.text.SysAdjustSystemTimeEnable
                0x0000000000edc914       0x3c
 .text.SysAdjustSystemTimeEnable
                0x0000000000edc914       0x3c /vagrant/workspace/PM_FW_COMMON/Srv/Sys/src/libSysCommon.a(SysHardware.o)
                0x0000000000edc914                SysAdjustSystemTimeEnable

.text.SysWatchdogEnable
                0x0000000000edc950       0x3c
 .text.SysWatchdogEnable
                0x0000000000edc950       0x3c /vagrant/workspace/PM_FW_COMMON/Srv/Sys/src/libSysCommon.a(SysHardware.o)
                0x0000000000edc950                SysWatchdogEnable

.text.SysWatchdogConfig
                0x0000000000edc98c       0x50
 .text.SysWatchdogConfig
                0x0000000000edc98c       0x50 /vagrant/workspace/PM_FW_COMMON/Srv/Sys/src/libSysCommon.a(SysHardware.o)
                0x0000000000edc98c                SysWatchdogConfig

.text.SysSetWatchdogLowLimit
                0x0000000000edc9dc       0x4c
 .text.SysSetWatchdogLowLimit
                0x0000000000edc9dc       0x4c /vagrant/workspace/PM_FW_COMMON/Srv/Sys/src/libSysCommon.a(SysHardware.o)
                0x0000000000edc9dc                SysSetWatchdogLowLimit

.text.SysSetWatchdogHighLimit
                0x0000000000edca28       0x4c
 .text.SysSetWatchdogHighLimit
                0x0000000000edca28       0x4c /vagrant/workspace/PM_FW_COMMON/Srv/Sys/src/libSysCommon.a(SysHardware.o)
                0x0000000000edca28                SysSetWatchdogHighLimit

.text.SysGetFPGAModID
                0x0000000000edca74       0x50
 .text.SysGetFPGAModID
                0x0000000000edca74       0x50 /vagrant/workspace/PM_FW_COMMON/Srv/Sys/src/libSysCommon.a(SysHardware.o)
                0x0000000000edca74                SysGetFPGAModID

.text.SysGetFPGAHardwareVer
                0x0000000000edcac4       0x50
 .text.SysGetFPGAHardwareVer
                0x0000000000edcac4       0x50 /vagrant/workspace/PM_FW_COMMON/Srv/Sys/src/libSysCommon.a(SysHardware.o)
                0x0000000000edcac4                SysGetFPGAHardwareVer

.text.SysGetFPGAChipID
                0x0000000000edcb14       0x50
 .text.SysGetFPGAChipID
                0x0000000000edcb14       0x50 /vagrant/workspace/PM_FW_COMMON/Srv/Sys/src/libSysCommon.a(SysHardware.o)
                0x0000000000edcb14                SysGetFPGAChipID

.text.SysGetFPGAFirmwareVer
                0x0000000000edcb64       0x50
 .text.SysGetFPGAFirmwareVer
                0x0000000000edcb64       0x50 /vagrant/workspace/PM_FW_COMMON/Srv/Sys/src/libSysCommon.a(SysHardware.o)
                0x0000000000edcb64                SysGetFPGAFirmwareVer

.text.SysGetMCUModID
                0x0000000000edcbb4       0x50
 .text.SysGetMCUModID
                0x0000000000edcbb4       0x50 /vagrant/workspace/PM_FW_COMMON/Srv/Sys/src/libSysCommon.a(SysHardware.o)
                0x0000000000edcbb4                SysGetMCUModID

.text.SysGetMCUHardwareVer
                0x0000000000edcc04       0x50
 .text.SysGetMCUHardwareVer
                0x0000000000edcc04       0x50 /vagrant/workspace/PM_FW_COMMON/Srv/Sys/src/libSysCommon.a(SysHardware.o)
                0x0000000000edcc04                SysGetMCUHardwareVer

.text.SysGetMCUChipID
                0x0000000000edcc54       0x50
 .text.SysGetMCUChipID
                0x0000000000edcc54       0x50 /vagrant/workspace/PM_FW_COMMON/Srv/Sys/src/libSysCommon.a(SysHardware.o)
                0x0000000000edcc54                SysGetMCUChipID

.text.SysGetMCUFirmwareVer
                0x0000000000edcca4       0x50
 .text.SysGetMCUFirmwareVer
                0x0000000000edcca4       0x50 /vagrant/workspace/PM_FW_COMMON/Srv/Sys/src/libSysCommon.a(SysHardware.o)
                0x0000000000edcca4                SysGetMCUFirmwareVer

.text.SysGetFreeCounterValue
                0x0000000000edccf4      0x298
 .text.SysGetFreeCounterValue
                0x0000000000edccf4      0x298 /vagrant/workspace/PM_FW_COMMON/Srv/Sys/src/libSysCommon.a(SysHardware.o)
                0x0000000000edccf4                SysGetFreeCounterValue

.text.IPBUSDualRamInit
                0x0000000000edcf8c       0xec
 .text.IPBUSDualRamInit
                0x0000000000edcf8c       0xec /vagrant/workspace/PM_FW_COMMON/Srv/IPBUS/src/libIPBUS.a(IPBUS.o)
                0x0000000000edcf8c                IPBUSDualRamInit

.text.IPBUSMailSend
                0x0000000000edd078      0x234
 .text.IPBUSMailSend
                0x0000000000edd078      0x234 /vagrant/workspace/PM_FW_COMMON/Srv/IPBUS/src/libIPBUS.a(IPBUS.o)
                0x0000000000edd078                IPBUSMailSend

.text.IPBUSMailRecv
                0x0000000000edd2ac      0x2d4
 .text.IPBUSMailRecv
                0x0000000000edd2ac      0x2d4 /vagrant/workspace/PM_FW_COMMON/Srv/IPBUS/src/libIPBUS.a(IPBUS.o)
                0x0000000000edd2ac                IPBUSMailRecv

.text.IPBUSGetSendMailRight
                0x0000000000edd580       0xa8
 .text.IPBUSGetSendMailRight
                0x0000000000edd580       0xa8 /vagrant/workspace/PM_FW_COMMON/Srv/IPBUS/src/libIPBUS.a(IPBUS.o)
                0x0000000000edd580                IPBUSGetSendMailRight

.text.IPBUSReleaseSendMailRight
                0x0000000000edd628       0x70
 .text.IPBUSReleaseSendMailRight
                0x0000000000edd628       0x70 /vagrant/workspace/PM_FW_COMMON/Srv/IPBUS/src/libIPBUS.a(IPBUS.o)
                0x0000000000edd628                IPBUSReleaseSendMailRight

.text.IPBUSGetRecieveMailRight
                0x0000000000edd698       0xa8
 .text.IPBUSGetRecieveMailRight
                0x0000000000edd698       0xa8 /vagrant/workspace/PM_FW_COMMON/Srv/IPBUS/src/libIPBUS.a(IPBUS.o)
                0x0000000000edd698                IPBUSGetRecieveMailRight

.text.IPBUSReleaseRecieveMailRight
                0x0000000000edd740       0x70
 .text.IPBUSReleaseRecieveMailRight
                0x0000000000edd740       0x70 /vagrant/workspace/PM_FW_COMMON/Srv/IPBUS/src/libIPBUS.a(IPBUS.o)
                0x0000000000edd740                IPBUSReleaseRecieveMailRight

.text.IPBUSSetAPPState
                0x0000000000edd7b0       0x50
 .text.IPBUSSetAPPState
                0x0000000000edd7b0       0x50 /vagrant/workspace/PM_FW_COMMON/Srv/IPBUS/src/libIPBUS.a(IPBUS.o)
                0x0000000000edd7b0                IPBUSSetAPPState

.text.IPBUSGetDeviceState
                0x0000000000edd800       0x54
 .text.IPBUSGetDeviceState
                0x0000000000edd800       0x54 /vagrant/workspace/PM_FW_COMMON/Srv/IPBUS/src/libIPBUS.a(IPBUS.o)
                0x0000000000edd800                IPBUSGetDeviceState

.text.IPBUSResetMaster
                0x0000000000edd854       0x40
 .text.IPBUSResetMaster
                0x0000000000edd854       0x40 /vagrant/workspace/PM_FW_COMMON/Srv/IPBUS/src/libIPBUS.a(IPBUS.o)
                0x0000000000edd854                IPBUSResetMaster

.text.IPBUSSetPrmBufID
                0x0000000000edd894       0xb4
 .text.IPBUSSetPrmBufID
                0x0000000000edd894       0xb4 /vagrant/workspace/PM_FW_COMMON/Srv/IPBUS/src/libIPBUS.a(IPBUS.o)
                0x0000000000edd894                IPBUSSetPrmBufID

.text.IPBUSSetAPPConfigDeviceFlag
                0x0000000000edd948       0xb4
 .text.IPBUSSetAPPConfigDeviceFlag
                0x0000000000edd948       0xb4 /vagrant/workspace/PM_FW_COMMON/Srv/IPBUS/src/libIPBUS.a(IPBUS.o)
                0x0000000000edd948                IPBUSSetAPPConfigDeviceFlag

.text.IPBUSSetAPPOnlineFlag
                0x0000000000edd9fc       0xb4
 .text.IPBUSSetAPPOnlineFlag
                0x0000000000edd9fc       0xb4 /vagrant/workspace/PM_FW_COMMON/Srv/IPBUS/src/libIPBUS.a(IPBUS.o)
                0x0000000000edd9fc                IPBUSSetAPPOnlineFlag

.text.IPBUSGetDeviceConfigSlaveFlag
                0x0000000000eddab0       0x7c
 .text.IPBUSGetDeviceConfigSlaveFlag
                0x0000000000eddab0       0x7c /vagrant/workspace/PM_FW_COMMON/Srv/IPBUS/src/libIPBUS.a(IPBUS.o)
                0x0000000000eddab0                IPBUSGetDeviceConfigSlaveFlag

.text.IPBUSSetSlaveRollingList
                0x0000000000eddb2c      0x144
 .text.IPBUSSetSlaveRollingList
                0x0000000000eddb2c      0x144 /vagrant/workspace/PM_FW_COMMON/Srv/IPBUS/src/libIPBUS.a(IPBUS.o)
                0x0000000000eddb2c                IPBUSSetSlaveRollingList

.text.IPBUSSetSlaveEnableBuf
                0x0000000000eddc70      0x198
 .text.IPBUSSetSlaveEnableBuf
                0x0000000000eddc70      0x198 /vagrant/workspace/PM_FW_COMMON/Srv/IPBUS/src/libIPBUS.a(IPBUS.o)
                0x0000000000eddc70                IPBUSSetSlaveEnableBuf

.text.IPBUSSetSlavePRMChange
                0x0000000000edde08      0x14c
 .text.IPBUSSetSlavePRMChange
                0x0000000000edde08      0x14c /vagrant/workspace/PM_FW_COMMON/Srv/IPBUS/src/libIPBUS.a(IPBUS.o)
                0x0000000000edde08                IPBUSSetSlavePRMChange

.text.IPBUSSetSlaveInputAddr
                0x0000000000eddf54       0x7c
 .text.IPBUSSetSlaveInputAddr
                0x0000000000eddf54       0x7c /vagrant/workspace/PM_FW_COMMON/Srv/IPBUS/src/libIPBUS.a(IPBUS.o)
                0x0000000000eddf54                IPBUSSetSlaveInputAddr

.text.IPBUSSetSlaveInputLen
                0x0000000000eddfd0       0x7c
 .text.IPBUSSetSlaveInputLen
                0x0000000000eddfd0       0x7c /vagrant/workspace/PM_FW_COMMON/Srv/IPBUS/src/libIPBUS.a(IPBUS.o)
                0x0000000000eddfd0                IPBUSSetSlaveInputLen

.text.IPBUSSetSlaveOutputAddr
                0x0000000000ede04c       0x7c
 .text.IPBUSSetSlaveOutputAddr
                0x0000000000ede04c       0x7c /vagrant/workspace/PM_FW_COMMON/Srv/IPBUS/src/libIPBUS.a(IPBUS.o)
                0x0000000000ede04c                IPBUSSetSlaveOutputAddr

.text.IPBUSSetSlaveOutputLen
                0x0000000000ede0c8       0x7c
 .text.IPBUSSetSlaveOutputLen
                0x0000000000ede0c8       0x7c /vagrant/workspace/PM_FW_COMMON/Srv/IPBUS/src/libIPBUS.a(IPBUS.o)
                0x0000000000ede0c8                IPBUSSetSlaveOutputLen

.text.IPBUSSetSlavePrmAddr
                0x0000000000ede144       0xdc
 .text.IPBUSSetSlavePrmAddr
                0x0000000000ede144       0xdc /vagrant/workspace/PM_FW_COMMON/Srv/IPBUS/src/libIPBUS.a(IPBUS.o)
                0x0000000000ede144                IPBUSSetSlavePrmAddr

.text.IPBUSSetSlavePrmLen
                0x0000000000ede220       0xdc
 .text.IPBUSSetSlavePrmLen
                0x0000000000ede220       0xdc /vagrant/workspace/PM_FW_COMMON/Srv/IPBUS/src/libIPBUS.a(IPBUS.o)
                0x0000000000ede220                IPBUSSetSlavePrmLen

.text.IPBUSSlaveInputAddrInit
                0x0000000000ede2fc       0x78
 .text.IPBUSSlaveInputAddrInit
                0x0000000000ede2fc       0x78 /vagrant/workspace/PM_FW_COMMON/Srv/IPBUS/src/libIPBUS.a(IPBUS.o)

.text.IPBUSSlaveInputLenInit
                0x0000000000ede374       0x78
 .text.IPBUSSlaveInputLenInit
                0x0000000000ede374       0x78 /vagrant/workspace/PM_FW_COMMON/Srv/IPBUS/src/libIPBUS.a(IPBUS.o)

.text.IPBUSSlaveOutputAddrInit
                0x0000000000ede3ec       0x78
 .text.IPBUSSlaveOutputAddrInit
                0x0000000000ede3ec       0x78 /vagrant/workspace/PM_FW_COMMON/Srv/IPBUS/src/libIPBUS.a(IPBUS.o)

.text.IPBUSSlaveOutputLenInit
                0x0000000000ede464       0x78
 .text.IPBUSSlaveOutputLenInit
                0x0000000000ede464       0x78 /vagrant/workspace/PM_FW_COMMON/Srv/IPBUS/src/libIPBUS.a(IPBUS.o)

.text.IPBUSSlavePrmAddrInit
                0x0000000000ede4dc       0xc0
 .text.IPBUSSlavePrmAddrInit
                0x0000000000ede4dc       0xc0 /vagrant/workspace/PM_FW_COMMON/Srv/IPBUS/src/libIPBUS.a(IPBUS.o)

.text.IPBUSSlavePrmLenInit
                0x0000000000ede59c       0xc0
 .text.IPBUSSlavePrmLenInit
                0x0000000000ede59c       0xc0 /vagrant/workspace/PM_FW_COMMON/Srv/IPBUS/src/libIPBUS.a(IPBUS.o)

.text.IPBUSSetAPPMailRX
                0x0000000000ede65c       0x50
 .text.IPBUSSetAPPMailRX
                0x0000000000ede65c       0x50 /vagrant/workspace/PM_FW_COMMON/Srv/IPBUS/src/libIPBUS.a(IPBUS.o)

.text.IPBUSSetAPPMailTX
                0x0000000000ede6ac       0x50
 .text.IPBUSSetAPPMailTX
                0x0000000000ede6ac       0x50 /vagrant/workspace/PM_FW_COMMON/Srv/IPBUS/src/libIPBUS.a(IPBUS.o)

.text.IPBUSSetAPPMailNR
                0x0000000000ede6fc       0x50
 .text.IPBUSSetAPPMailNR
                0x0000000000ede6fc       0x50 /vagrant/workspace/PM_FW_COMMON/Srv/IPBUS/src/libIPBUS.a(IPBUS.o)

.text.IPBUSSetAPPMailSlaveAddr
                0x0000000000ede74c       0x50
 .text.IPBUSSetAPPMailSlaveAddr
                0x0000000000ede74c       0x50 /vagrant/workspace/PM_FW_COMMON/Srv/IPBUS/src/libIPBUS.a(IPBUS.o)

.text.IPBUSSetAPPMailFunc
                0x0000000000ede79c       0x50
 .text.IPBUSSetAPPMailFunc
                0x0000000000ede79c       0x50 /vagrant/workspace/PM_FW_COMMON/Srv/IPBUS/src/libIPBUS.a(IPBUS.o)

.text.IPBUSSetAPPMailLN
                0x0000000000ede7ec       0x50
 .text.IPBUSSetAPPMailLN
                0x0000000000ede7ec       0x50 /vagrant/workspace/PM_FW_COMMON/Srv/IPBUS/src/libIPBUS.a(IPBUS.o)

.text.IPBUSSetAPPMailACK
                0x0000000000ede83c       0x50
 .text.IPBUSSetAPPMailACK
                0x0000000000ede83c       0x50 /vagrant/workspace/PM_FW_COMMON/Srv/IPBUS/src/libIPBUS.a(IPBUS.o)

.text.IPBUSSetAPPMailFault
                0x0000000000ede88c       0x50
 .text.IPBUSSetAPPMailFault
                0x0000000000ede88c       0x50 /vagrant/workspace/PM_FW_COMMON/Srv/IPBUS/src/libIPBUS.a(IPBUS.o)

.text.IPBUSGetDeviceMailRX
                0x0000000000ede8dc       0x54
 .text.IPBUSGetDeviceMailRX
                0x0000000000ede8dc       0x54 /vagrant/workspace/PM_FW_COMMON/Srv/IPBUS/src/libIPBUS.a(IPBUS.o)

.text.IPBUSGetDeviceMailTX
                0x0000000000ede930       0x54
 .text.IPBUSGetDeviceMailTX
                0x0000000000ede930       0x54 /vagrant/workspace/PM_FW_COMMON/Srv/IPBUS/src/libIPBUS.a(IPBUS.o)

.text.IPBUSGetDeviceMailNR
                0x0000000000ede984       0x54
 .text.IPBUSGetDeviceMailNR
                0x0000000000ede984       0x54 /vagrant/workspace/PM_FW_COMMON/Srv/IPBUS/src/libIPBUS.a(IPBUS.o)

.text.IPBUSGetDeviceMailSlaveAddr
                0x0000000000ede9d8       0x54
 .text.IPBUSGetDeviceMailSlaveAddr
                0x0000000000ede9d8       0x54 /vagrant/workspace/PM_FW_COMMON/Srv/IPBUS/src/libIPBUS.a(IPBUS.o)

.text.IPBUSGetDeviceMailFunc
                0x0000000000edea2c       0x54
 .text.IPBUSGetDeviceMailFunc
                0x0000000000edea2c       0x54 /vagrant/workspace/PM_FW_COMMON/Srv/IPBUS/src/libIPBUS.a(IPBUS.o)

.text.IPBUSGetDeviceMailLN
                0x0000000000edea80       0x54
 .text.IPBUSGetDeviceMailLN
                0x0000000000edea80       0x54 /vagrant/workspace/PM_FW_COMMON/Srv/IPBUS/src/libIPBUS.a(IPBUS.o)

.text.IPBUSGetDeviceMailACK
                0x0000000000edead4       0x54
 .text.IPBUSGetDeviceMailACK
                0x0000000000edead4       0x54 /vagrant/workspace/PM_FW_COMMON/Srv/IPBUS/src/libIPBUS.a(IPBUS.o)

.text.IPBUSGetDeviceMailFault
                0x0000000000edeb28       0x54
 .text.IPBUSGetDeviceMailFault
                0x0000000000edeb28       0x54 /vagrant/workspace/PM_FW_COMMON/Srv/IPBUS/src/libIPBUS.a(IPBUS.o)

.text.IPBUSMemCopyByLocalbus
                0x0000000000edeb7c       0xdc
 .text.IPBUSMemCopyByLocalbus
                0x0000000000edeb7c       0xdc /vagrant/workspace/PM_FW_COMMON/Srv/IPBUS/src/libIPBUS.a(IPBUS.o)

.text.IPBUSSetAPPMark
                0x0000000000edec58       0x50
 .text.IPBUSSetAPPMark
                0x0000000000edec58       0x50 /vagrant/workspace/PM_FW_COMMON/Srv/IPBUS/src/libIPBUS.a(IPBUS.o)

.text.IPBUSGetAPPMark
                0x0000000000edeca8       0x54
 .text.IPBUSGetAPPMark
                0x0000000000edeca8       0x54 /vagrant/workspace/PM_FW_COMMON/Srv/IPBUS/src/libIPBUS.a(IPBUS.o)

.text.IPBUSGetDeviceMark
                0x0000000000edecfc       0x54
 .text.IPBUSGetDeviceMark
                0x0000000000edecfc       0x54 /vagrant/workspace/PM_FW_COMMON/Srv/IPBUS/src/libIPBUS.a(IPBUS.o)

.text.main      0x0000000000eded50       0x4c
 .text.main     0x0000000000eded50       0x4c App/Main/src/libMain.a(main.o)
                0x0000000000eded50                main

.text.SysStart  0x0000000000eded9c      0x3ac
 .text.SysStart
                0x0000000000eded9c      0x3ac App/Main/src/libMain.a(Task.o)
                0x0000000000eded9c                SysStart

.text.TskInitTask
                0x0000000000edf148      0x338
 .text.TskInitTask
                0x0000000000edf148      0x338 App/Main/src/libMain.a(Task.o)

.text.TskRTSTaskInit
                0x0000000000edf480       0x78
 .text.TskRTSTaskInit
                0x0000000000edf480       0x78 App/Main/src/libMain.a(Task.o)

.text.TskRTSTaskExe
                0x0000000000edf4f8       0xf8
 .text.TskRTSTaskExe
                0x0000000000edf4f8       0xf8 App/Main/src/libMain.a(Task.o)
                0x0000000000edf4f8                TskRTSTaskExe

.text.TskRTSTask
                0x0000000000edf5f0       0x20
 .text.TskRTSTask
                0x0000000000edf5f0       0x20 App/Main/src/libMain.a(Task.o)

.text.TskDiagTaskExe
                0x0000000000edf610       0x3c
 .text.TskDiagTaskExe
                0x0000000000edf610       0x3c App/Main/src/libMain.a(Task.o)
                0x0000000000edf610                TskDiagTaskExe

.text.TskDiagTask
                0x0000000000edf64c       0x1c
 .text.TskDiagTask
                0x0000000000edf64c       0x1c App/Main/src/libMain.a(Task.o)

.text.TskFileTaskExe
                0x0000000000edf668       0x3c
 .text.TskFileTaskExe
                0x0000000000edf668       0x3c App/Main/src/libMain.a(Task.o)
                0x0000000000edf668                TskFileTaskExe

.text.TskFileTask
                0x0000000000edf6a4       0x1c
 .text.TskFileTask
                0x0000000000edf6a4       0x1c App/Main/src/libMain.a(Task.o)

.text.TskCommTaskExe
                0x0000000000edf6c0      0x128
 .text.TskCommTaskExe
                0x0000000000edf6c0      0x128 App/Main/src/libMain.a(Task.o)
                0x0000000000edf6c0                TskCommTaskExe

.text.TskCommTask
                0x0000000000edf7e8       0x1c
 .text.TskCommTask
                0x0000000000edf7e8       0x1c App/Main/src/libMain.a(Task.o)

.text.CommInit  0x0000000000edf804       0x64
 .text.CommInit
                0x0000000000edf804       0x64 App/Comm/src/libComm.a(Comm.o)
                0x0000000000edf804                CommInit

.text.CommCycle
                0x0000000000edf868       0x54
 .text.CommCycle
                0x0000000000edf868       0x54 App/Comm/src/libComm.a(Comm.o)
                0x0000000000edf868                CommCycle

.text.CommRtDataTransferCycle
                0x0000000000edf8bc      0x3ec
 .text.CommRtDataTransferCycle
                0x0000000000edf8bc      0x3ec App/Comm/src/libComm.a(Comm.o)
                0x0000000000edf8bc                CommRtDataTransferCycle

.text.CommCS1131Init
                0x0000000000edfca8       0x8c
 .text.CommCS1131Init
                0x0000000000edfca8       0x8c App/Comm/src/libComm.a(Comm.o)

.text.CommCS1131Cycle
                0x0000000000edfd34     0x13d0
 .text.CommCS1131Cycle
                0x0000000000edfd34     0x13d0 App/Comm/src/libComm.a(Comm.o)
                0x0000000000edfd34                CommCS1131Cycle

.text.CommReadDisableTabl
                0x0000000000ee1104      0x464
 .text.CommReadDisableTabl
                0x0000000000ee1104      0x464 App/Comm/src/libComm.a(Comm.o)

.text.CommDownloadComfirm
                0x0000000000ee1568      0x2f8
 .text.CommDownloadComfirm
                0x0000000000ee1568      0x2f8 App/Comm/src/libComm.a(Comm.o)

.text.CommDetermineFileExist
                0x0000000000ee1860      0x120
 .text.CommDetermineFileExist
                0x0000000000ee1860      0x120 App/Comm/src/libComm.a(Comm.o)
                0x0000000000ee1860                CommDetermineFileExist

.text.CommOpenFile
                0x0000000000ee1980      0x12c
 .text.CommOpenFile
                0x0000000000ee1980      0x12c App/Comm/src/libComm.a(Comm.o)
                0x0000000000ee1980                CommOpenFile

.text.CommWriteFile
                0x0000000000ee1aac      0x194
 .text.CommWriteFile
                0x0000000000ee1aac      0x194 App/Comm/src/libComm.a(Comm.o)
                0x0000000000ee1aac                CommWriteFile

.text.CommCloseFile
                0x0000000000ee1c40      0x11c
 .text.CommCloseFile
                0x0000000000ee1c40      0x11c App/Comm/src/libComm.a(Comm.o)
                0x0000000000ee1c40                CommCloseFile

.text.CommDeleteFile
                0x0000000000ee1d5c      0x11c
 .text.CommDeleteFile
                0x0000000000ee1d5c      0x11c App/Comm/src/libComm.a(Comm.o)
                0x0000000000ee1d5c                CommDeleteFile

.text.CommRenameFile
                0x0000000000ee1e78      0x168
 .text.CommRenameFile
                0x0000000000ee1e78      0x168 App/Comm/src/libComm.a(Comm.o)
                0x0000000000ee1e78                CommRenameFile

.text.CommFileInfoInit
                0x0000000000ee1fe0      0x334
 .text.CommFileInfoInit
                0x0000000000ee1fe0      0x334 App/Comm/src/libComm.a(Comm.o)

.text.CommGetFileInfo
                0x0000000000ee2314       0x64
 .text.CommGetFileInfo
                0x0000000000ee2314       0x64 App/Comm/src/libComm.a(Comm.o)
                0x0000000000ee2314                CommGetFileInfo

.text.CommWriteFileStart
                0x0000000000ee2378      0x8ec
 .text.CommWriteFileStart
                0x0000000000ee2378      0x8ec App/Comm/src/libComm.a(Comm.o)

.text.CommWriteFileContinue
                0x0000000000ee2c64      0x840
 .text.CommWriteFileContinue
                0x0000000000ee2c64      0x840 App/Comm/src/libComm.a(Comm.o)

.text.CommWriteFileDone
                0x0000000000ee34a4      0x8c4
 .text.CommWriteFileDone
                0x0000000000ee34a4      0x8c4 App/Comm/src/libComm.a(Comm.o)

.text.CommReadFileStart
                0x0000000000ee3d68      0x7f0
 .text.CommReadFileStart
                0x0000000000ee3d68      0x7f0 App/Comm/src/libComm.a(Comm.o)

.text.CommReadFileContinue
                0x0000000000ee4558      0x7b4
 .text.CommReadFileContinue
                0x0000000000ee4558      0x7b4 App/Comm/src/libComm.a(Comm.o)

.text.CommBitInvert
                0x0000000000ee4d0c       0xa0
 .text.CommBitInvert
                0x0000000000ee4d0c       0xa0 App/Comm/src/libComm.a(Comm.o)

.text.CommOSCGetVar
                0x0000000000ee4dac      0x5ac
 .text.CommOSCGetVar
                0x0000000000ee4dac      0x5ac App/Comm/src/libComm.a(Comm.o)

.text.CommSlaveConfirm
                0x0000000000ee5358      0x418
 .text.CommSlaveConfirm
                0x0000000000ee5358      0x418 App/Comm/src/libComm.a(Comm.o)

.text.CommOPCInit
                0x0000000000ee5770       0x20
 .text.CommOPCInit
                0x0000000000ee5770       0x20 App/Comm/src/libComm.a(Comm.o)

.text.CommOPCCycle
                0x0000000000ee5790      0x9fc
 .text.CommOPCCycle
                0x0000000000ee5790      0x9fc App/Comm/src/libComm.a(Comm.o)

.text.CommModbusInit
                0x0000000000ee618c       0x20
 .text.CommModbusInit
                0x0000000000ee618c       0x20 App/Comm/src/libComm.a(Comm.o)

.text.CommModbusCycle
                0x0000000000ee61ac      0x558
 .text.CommModbusCycle
                0x0000000000ee61ac      0x558 App/Comm/src/libComm.a(Comm.o)

.text.CommP2PInit
                0x0000000000ee6704       0x5c
 .text.CommP2PInit
                0x0000000000ee6704       0x5c App/Comm/src/libComm.a(Comm.o)

.text.CommP2PCycle
                0x0000000000ee6760       0x9c
 .text.CommP2PCycle
                0x0000000000ee6760       0x9c App/Comm/src/libComm.a(Comm.o)
                0x0000000000ee6760                CommP2PCycle

.text.CommP2PRecv
                0x0000000000ee67fc       0xc8
 .text.CommP2PRecv
                0x0000000000ee67fc       0xc8 App/Comm/src/libComm.a(Comm.o)

.text.CommP2PRecvReq
                0x0000000000ee68c4      0x89c
 .text.CommP2PRecvReq
                0x0000000000ee68c4      0x89c App/Comm/src/libComm.a(Comm.o)

.text.CommP2PRecvResp
                0x0000000000ee7160      0x9dc
 .text.CommP2PRecvResp
                0x0000000000ee7160      0x9dc App/Comm/src/libComm.a(Comm.o)

.text.GetP2PSendStartFlag
                0x0000000000ee7b3c       0xc0
 .text.GetP2PSendStartFlag
                0x0000000000ee7b3c       0xc0 App/Comm/src/libComm.a(Comm.o)

.text.CommP2PSend
                0x0000000000ee7bfc      0xbec
 .text.CommP2PSend
                0x0000000000ee7bfc      0xbec App/Comm/src/libComm.a(Comm.o)

.text.CommP2PPacking
                0x0000000000ee87e8      0xf84
 .text.CommP2PPacking
                0x0000000000ee87e8      0xf84 App/Comm/src/libComm.a(Comm.o)

.text.CommP2PSendCtrlClear
                0x0000000000ee976c       0x78
 .text.CommP2PSendCtrlClear
                0x0000000000ee976c       0x78 App/Comm/src/libComm.a(Comm.o)
                0x0000000000ee976c                CommP2PSendCtrlClear

.text.CommSOEInit
                0x0000000000ee97e4       0x20
 .text.CommSOEInit
                0x0000000000ee97e4       0x20 App/Comm/src/libComm.a(Comm.o)

.text.CommSOECycle
                0x0000000000ee9804      0x3f0
 .text.CommSOECycle
                0x0000000000ee9804      0x3f0 App/Comm/src/libComm.a(Comm.o)

.text.CommSOERead
                0x0000000000ee9bf4      0x848
 .text.CommSOERead
                0x0000000000ee9bf4      0x848 App/Comm/src/libComm.a(Comm.o)

.text.CommSOEDelete
                0x0000000000eea43c      0x334
 .text.CommSOEDelete
                0x0000000000eea43c      0x334 App/Comm/src/libComm.a(Comm.o)

.text.CommAMSInit
                0x0000000000eea770       0x20
 .text.CommAMSInit
                0x0000000000eea770       0x20 App/Comm/src/libComm.a(Comm.o)

.text.CommAMSCycle
                0x0000000000eea790     0x1adc
 .text.CommAMSCycle
                0x0000000000eea790     0x1adc App/Comm/src/libComm.a(Comm.o)

.text.CommAperiodicInit
                0x0000000000eec26c       0x50
 .text.CommAperiodicInit
                0x0000000000eec26c       0x50 App/Comm/src/libComm.a(Comm.o)

.text.CommAperiodicCycle
                0x0000000000eec2bc       0x3c
 .text.CommAperiodicCycle
                0x0000000000eec2bc       0x3c App/Comm/src/libComm.a(Comm.o)

.text.CommSlaveFWUpdate
                0x0000000000eec2f8     0x132c
 .text.CommSlaveFWUpdate
                0x0000000000eec2f8     0x132c App/Comm/src/libComm.a(Comm.o)

.text.CommGetSlaveVern
                0x0000000000eed624      0x5b0
 .text.CommGetSlaveVern
                0x0000000000eed624      0x5b0 App/Comm/src/libComm.a(Comm.o)

.text.CommSlaveVernHandle
                0x0000000000eedbd4      0x2dc
 .text.CommSlaveVernHandle
                0x0000000000eedbd4      0x2dc App/Comm/src/libComm.a(Comm.o)

.text.CommAlarmCycle
                0x0000000000eedeb0      0x578
 .text.CommAlarmCycle
                0x0000000000eedeb0      0x578 App/Comm/src/libComm.a(Comm.o)

.text.CommBIPWInfoHandle
                0x0000000000eee428     0x1350
 .text.CommBIPWInfoHandle
                0x0000000000eee428     0x1350 App/Comm/src/libComm.a(Comm.o)

.text.CommDiagInit
                0x0000000000eef778       0x50
 .text.CommDiagInit
                0x0000000000eef778       0x50 App/Comm/src/libComm.a(Comm.o)

.text.CommDiagCycle
                0x0000000000eef7c8      0xc60
 .text.CommDiagCycle
                0x0000000000eef7c8      0xc60 App/Comm/src/libComm.a(Comm.o)

.text.CommFWUpdateStart
                0x0000000000ef0428      0xdac
 .text.CommFWUpdateStart
                0x0000000000ef0428      0xdac App/Comm/src/libComm.a(Comm.o)

.text.CommFWUpdateContinue
                0x0000000000ef11d4      0x6a8
 .text.CommFWUpdateContinue
                0x0000000000ef11d4      0x6a8 App/Comm/src/libComm.a(Comm.o)

.text.CommFWUpdateDone
                0x0000000000ef187c      0xa54
 .text.CommFWUpdateDone
                0x0000000000ef187c      0xa54 App/Comm/src/libComm.a(Comm.o)

.text.CommLOGRead
                0x0000000000ef22d0      0x6c0
 .text.CommLOGRead
                0x0000000000ef22d0      0x6c0 App/Comm/src/libComm.a(Comm.o)

.text.CommDiagInfoClear
                0x0000000000ef2990      0x624
 .text.CommDiagInfoClear
                0x0000000000ef2990      0x624 App/Comm/src/libComm.a(Comm.o)

.text.CommInterCMDInit
                0x0000000000ef2fb4       0x20
 .text.CommInterCMDInit
                0x0000000000ef2fb4       0x20 App/Comm/src/libComm.a(Comm.o)

.text.CommInterCMDCycle
                0x0000000000ef2fd4      0x2fc
 .text.CommInterCMDCycle
                0x0000000000ef2fd4      0x2fc App/Comm/src/libComm.a(Comm.o)

.text.CommDownloadStart
                0x0000000000ef32d0      0x600
 .text.CommDownloadStart
                0x0000000000ef32d0      0x600 App/Comm/src/libComm.a(Comm.o)

.text.CommCtrlSrvInit
                0x0000000000ef38d0       0x20
 .text.CommCtrlSrvInit
                0x0000000000ef38d0       0x20 App/Comm/src/libComm.a(Comm.o)

.text.CommCtrlSrvCycle
                0x0000000000ef38f0      0x464
 .text.CommCtrlSrvCycle
                0x0000000000ef38f0      0x464 App/Comm/src/libComm.a(Comm.o)

.text.CommEraseFlash
                0x0000000000ef3d54      0x314
 .text.CommEraseFlash
                0x0000000000ef3d54      0x314 App/Comm/src/libComm.a(Comm.o)
                0x0000000000ef3d54                CommEraseFlash

.text.CommPMUpdate
                0x0000000000ef4068      0xd24
 .text.CommPMUpdate
                0x0000000000ef4068      0xd24 App/Comm/src/libComm.a(Comm.o)

.text.DiagInit  0x0000000000ef4d8c       0x3c
 .text.DiagInit
                0x0000000000ef4d8c       0x3c App/Diag/src/libDiag.a(Diag.o)
                0x0000000000ef4d8c                DiagInit

.text.DiagCycle
                0x0000000000ef4dc8       0x34
 .text.DiagCycle
                0x0000000000ef4dc8       0x34 App/Diag/src/libDiag.a(Diag.o)
                0x0000000000ef4dc8                DiagCycle

.text.FirstErrRestart
                0x0000000000ef4dfc       0xe4
 .text.FirstErrRestart
                0x0000000000ef4dfc       0xe4 App/Diag/src/libDiag.a(Diag.o)
                0x0000000000ef4dfc                FirstErrRestart

.text.PassOrFailLEDUpdate
                0x0000000000ef4ee0      0x1e0
 .text.PassOrFailLEDUpdate
                0x0000000000ef4ee0      0x1e0 App/Diag/src/libDiag.a(Diag.o)

.text.FileManagerInit
                0x0000000000ef50c0       0x64
 .text.FileManagerInit
                0x0000000000ef50c0       0x64 App/FileManager/src/libFileManager.a(FileManager.o)
                0x0000000000ef50c0                FileManagerInit

.text.FileManagerCycle
                0x0000000000ef5124      0x1b8
 .text.FileManagerCycle
                0x0000000000ef5124      0x1b8 App/FileManager/src/libFileManager.a(FileManager.o)
                0x0000000000ef5124                FileManagerCycle

.text.FMOpenFileHandling
                0x0000000000ef52dc      0x324
 .text.FMOpenFileHandling
                0x0000000000ef52dc      0x324 App/FileManager/src/libFileManager.a(FileManager.o)

.text.FMWriteFileHandling
                0x0000000000ef5600      0x358
 .text.FMWriteFileHandling
                0x0000000000ef5600      0x358 App/FileManager/src/libFileManager.a(FileManager.o)

.text.FMCloseFileHandling
                0x0000000000ef5958      0x308
 .text.FMCloseFileHandling
                0x0000000000ef5958      0x308 App/FileManager/src/libFileManager.a(FileManager.o)

.text.FMIsFileExistHandling
                0x0000000000ef5c60      0x6e0
 .text.FMIsFileExistHandling
                0x0000000000ef5c60      0x6e0 App/FileManager/src/libFileManager.a(FileManager.o)

.text.FMDeleteFileHandling
                0x0000000000ef6340      0x314
 .text.FMDeleteFileHandling
                0x0000000000ef6340      0x314 App/FileManager/src/libFileManager.a(FileManager.o)

.text.FMRenameFileHandling
                0x0000000000ef6654      0x2c8
 .text.FMRenameFileHandling
                0x0000000000ef6654      0x2c8 App/FileManager/src/libFileManager.a(FileManager.o)

.text.FMInvalidCTWHandling
                0x0000000000ef691c       0xe4
 .text.FMInvalidCTWHandling
                0x0000000000ef691c       0xe4 App/FileManager/src/libFileManager.a(FileManager.o)

.text.FMReadFileHandling
                0x0000000000ef6a00      0x574
 .text.FMReadFileHandling
                0x0000000000ef6a00      0x574 App/FileManager/src/libFileManager.a(FileManager.o)

.text.FMEraseRTSFlag
                0x0000000000ef6f74      0x26c
 .text.FMEraseRTSFlag
                0x0000000000ef6f74      0x26c App/FileManager/src/libFileManager.a(FileManager.o)

.text.FMEraseFPGAFlag
                0x0000000000ef71e0      0x26c
 .text.FMEraseFPGAFlag
                0x0000000000ef71e0      0x26c App/FileManager/src/libFileManager.a(FileManager.o)

.text.FMEraseRTSArea0
                0x0000000000ef744c      0x26c
 .text.FMEraseRTSArea0
                0x0000000000ef744c      0x26c App/FileManager/src/libFileManager.a(FileManager.o)

.text.FMEraseRTSArea1
                0x0000000000ef76b8      0x26c
 .text.FMEraseRTSArea1
                0x0000000000ef76b8      0x26c App/FileManager/src/libFileManager.a(FileManager.o)

.text.FMEraseFPGAArea0
                0x0000000000ef7924      0x26c
 .text.FMEraseFPGAArea0
                0x0000000000ef7924      0x26c App/FileManager/src/libFileManager.a(FileManager.o)

.text.FMEraseFPGAArea1
                0x0000000000ef7b90      0x26c
 .text.FMEraseFPGAArea1
                0x0000000000ef7b90      0x26c App/FileManager/src/libFileManager.a(FileManager.o)

.text.ManagerInit
                0x0000000000ef7dfc       0x44
 .text.ManagerInit
                0x0000000000ef7dfc       0x44 App/Manager/src/libManager.a(Manager.o)
                0x0000000000ef7dfc                ManagerInit

.text.ManagerCycle
                0x0000000000ef7e40       0x38
 .text.ManagerCycle
                0x0000000000ef7e40       0x38 App/Manager/src/libManager.a(Manager.o)
                0x0000000000ef7e40                ManagerCycle

.text.KeyManagerInit
                0x0000000000ef7e78       0x30
 .text.KeyManagerInit
                0x0000000000ef7e78       0x30 App/Manager/src/libManager.a(Key.o)
                0x0000000000ef7e78                KeyManagerInit

.text.KeyManagerCycle
                0x0000000000ef7ea8      0x484
 .text.KeyManagerCycle
                0x0000000000ef7ea8      0x484 App/Manager/src/libManager.a(Key.o)
                0x0000000000ef7ea8                KeyManagerCycle

.text.WatchdogManagerInit
                0x0000000000ef832c       0xb0
 .text.WatchdogManagerInit
                0x0000000000ef832c       0xb0 App/Manager/src/libManager.a(Watchdog.o)
                0x0000000000ef832c                WatchdogManagerInit

.text.WatchdogManagerEnable
                0x0000000000ef83dc       0x40
 .text.WatchdogManagerEnable
                0x0000000000ef83dc       0x40 App/Manager/src/libManager.a(Watchdog.o)
                0x0000000000ef83dc                WatchdogManagerEnable

.text.WatchdogManagerCycle
                0x0000000000ef841c       0xf4
 .text.WatchdogManagerCycle
                0x0000000000ef841c       0xf4 App/Manager/src/libManager.a(Watchdog.o)
                0x0000000000ef841c                WatchdogManagerCycle

.text.UpdateWatchdogCounter
                0x0000000000ef8510       0x64
 .text.UpdateWatchdogCounter
                0x0000000000ef8510       0x64 App/Manager/src/libManager.a(Watchdog.o)
                0x0000000000ef8510                UpdateWatchdogCounter

.text.MonitorInit
                0x0000000000ef8574       0x4c
 .text.MonitorInit
                0x0000000000ef8574       0x4c App/Monitor/src/libMonitor.a(Monitor.o)
                0x0000000000ef8574                MonitorInit

.text.MonitorCycle
                0x0000000000ef85c0       0x64
 .text.MonitorCycle
                0x0000000000ef85c0       0x64 App/Monitor/src/libMonitor.a(Monitor.o)
                0x0000000000ef85c0                MonitorCycle

.text.MonitorGetSysState
                0x0000000000ef8624       0x78
 .text.MonitorGetSysState
                0x0000000000ef8624       0x78 App/Monitor/src/libMonitor.a(Monitor.o)
                0x0000000000ef8624                MonitorGetSysState

.text.ConfigInit
                0x0000000000ef869c      0x168
 .text.ConfigInit
                0x0000000000ef869c      0x168 App/ProjectConfig/src/libProjectConfig.a(Config.o)
                0x0000000000ef869c                ConfigInit

.text.ConfigCycle
                0x0000000000ef8804      0x41c
 .text.ConfigCycle
                0x0000000000ef8804      0x41c App/ProjectConfig/src/libProjectConfig.a(Config.o)
                0x0000000000ef8804                ConfigCycle

.text.ConfigInfoInit
                0x0000000000ef8c20      0x2dc
 .text.ConfigInfoInit
                0x0000000000ef8c20      0x2dc App/ProjectConfig/src/libProjectConfig.a(Config.o)

.text.ConfigPRGFileParse
                0x0000000000ef8efc      0x398
 .text.ConfigPRGFileParse
                0x0000000000ef8efc      0x398 App/ProjectConfig/src/libProjectConfig.a(Config.o)

.text.ConfigSegmentUsedSectionParse
                0x0000000000ef9294       0x40
 .text.ConfigSegmentUsedSectionParse
                0x0000000000ef9294       0x40 App/ProjectConfig/src/libProjectConfig.a(Config.o)

.text.ConfigProgramSectionParse
                0x0000000000ef92d4      0x3e8
 .text.ConfigProgramSectionParse
                0x0000000000ef92d4      0x3e8 App/ProjectConfig/src/libProjectConfig.a(Config.o)

.text.ConfigExlibSectionParse
                0x0000000000ef96bc      0x204
 .text.ConfigExlibSectionParse
                0x0000000000ef96bc      0x204 App/ProjectConfig/src/libProjectConfig.a(Config.o)

.text.ConfigContrlStationFileParse
                0x0000000000ef98c0      0xad8
 .text.ConfigContrlStationFileParse
                0x0000000000ef98c0      0xad8 App/ProjectConfig/src/libProjectConfig.a(Config.o)

.text.ConfigSubFileCRCSectionParse
                0x0000000000efa398      0x1d4
 .text.ConfigSubFileCRCSectionParse
                0x0000000000efa398      0x1d4 App/ProjectConfig/src/libProjectConfig.a(Config.o)

.text.ConfigProjectInfoSectionParse
                0x0000000000efa56c      0x1ec
 .text.ConfigProjectInfoSectionParse
                0x0000000000efa56c      0x1ec App/ProjectConfig/src/libProjectConfig.a(Config.o)

.text.ConfigTaskSectionParse
                0x0000000000efa758      0x5e8
 .text.ConfigTaskSectionParse
                0x0000000000efa758      0x5e8 App/ProjectConfig/src/libProjectConfig.a(Config.o)

.text.ConfigTaskDataExSectionParse
                0x0000000000efad40      0x2a0
 .text.ConfigTaskDataExSectionParse
                0x0000000000efad40      0x2a0 App/ProjectConfig/src/libProjectConfig.a(Config.o)

.text.ConfigStationInfoSectionParse
                0x0000000000efafe0      0x1e4
 .text.ConfigStationInfoSectionParse
                0x0000000000efafe0      0x1e4 App/ProjectConfig/src/libProjectConfig.a(Config.o)

.text.ConfigIOConfigFileParse
                0x0000000000efb1c4      0x300
 .text.ConfigIOConfigFileParse
                0x0000000000efb1c4      0x300 App/ProjectConfig/src/libProjectConfig.a(Config.o)

.text.ConfigIOConfigSectionParse
                0x0000000000efb4c4      0x498
 .text.ConfigIOConfigSectionParse
                0x0000000000efb4c4      0x498 App/ProjectConfig/src/libProjectConfig.a(Config.o)

.text.ConfigPMConfigSectionParse
                0x0000000000efb95c      0x114
 .text.ConfigPMConfigSectionParse
                0x0000000000efb95c      0x114 App/ProjectConfig/src/libProjectConfig.a(Config.o)

.text.ConfigIOSlaveParse
                0x0000000000efba70      0xfb8
 .text.ConfigIOSlaveParse
                0x0000000000efba70      0xfb8 App/ProjectConfig/src/libProjectConfig.a(Config.o)

.text.ConfigSOEFileParse
                0x0000000000efca28      0x274
 .text.ConfigSOEFileParse
                0x0000000000efca28      0x274 App/ProjectConfig/src/libProjectConfig.a(Config.o)

.text.ConfigSOEInfoSectionParse
                0x0000000000efcc9c      0xaf8
 .text.ConfigSOEInfoSectionParse
                0x0000000000efcc9c      0xaf8 App/ProjectConfig/src/libProjectConfig.a(Config.o)

.text.ConfigP2PFileParse
                0x0000000000efd794      0x274
 .text.ConfigP2PFileParse
                0x0000000000efd794      0x274 App/ProjectConfig/src/libProjectConfig.a(Config.o)

.text.ConfigP2PInfoSectionParse
                0x0000000000efda08      0x8b8
 .text.ConfigP2PInfoSectionParse
                0x0000000000efda08      0x8b8 App/ProjectConfig/src/libProjectConfig.a(Config.o)

.text.ConfigModbusMasterFileParse
                0x0000000000efe2c0      0x274
 .text.ConfigModbusMasterFileParse
                0x0000000000efe2c0      0x274 App/ProjectConfig/src/libProjectConfig.a(Config.o)

.text.ConfigModbusMasterSectionParse
                0x0000000000efe534      0xe54
 .text.ConfigModbusMasterSectionParse
                0x0000000000efe534      0xe54 App/ProjectConfig/src/libProjectConfig.a(Config.o)

.text.ConfigModbusSlaveFileParse
                0x0000000000eff388      0x274
 .text.ConfigModbusSlaveFileParse
                0x0000000000eff388      0x274 App/ProjectConfig/src/libProjectConfig.a(Config.o)

.text.ConfigModbusSlaveSectionParse
                0x0000000000eff5fc      0x54c
 .text.ConfigModbusSlaveSectionParse
                0x0000000000eff5fc      0x54c App/ProjectConfig/src/libProjectConfig.a(Config.o)

.text.ConfigVoteFileParse
                0x0000000000effb48      0x274
 .text.ConfigVoteFileParse
                0x0000000000effb48      0x274 App/ProjectConfig/src/libProjectConfig.a(Config.o)

.text.ConfigVoteInfoSectionParse
                0x0000000000effdbc      0x674
 .text.ConfigVoteInfoSectionParse
                0x0000000000effdbc      0x674 App/ProjectConfig/src/libProjectConfig.a(Config.o)

.text.ConfigRetainFileParse
                0x0000000000f00430      0x274
 .text.ConfigRetainFileParse
                0x0000000000f00430      0x274 App/ProjectConfig/src/libProjectConfig.a(Config.o)

.text.ConfigRetainInfoSectionParse
                0x0000000000f006a4      0x420
 .text.ConfigRetainInfoSectionParse
                0x0000000000f006a4      0x420 App/ProjectConfig/src/libProjectConfig.a(Config.o)

.text.ConfigCMConfigFileParse
                0x0000000000f00ac4      0x274
 .text.ConfigCMConfigFileParse
                0x0000000000f00ac4      0x274 App/ProjectConfig/src/libProjectConfig.a(Config.o)

.text.ConfigCMConfigSectionParse
                0x0000000000f00d38      0xbb8
 .text.ConfigCMConfigSectionParse
                0x0000000000f00d38      0xbb8 App/ProjectConfig/src/libProjectConfig.a(Config.o)

.text.ConfigInsertCMSlotID
                0x0000000000f018f0      0x31c
 .text.ConfigInsertCMSlotID
                0x0000000000f018f0      0x31c App/ProjectConfig/src/libProjectConfig.a(Config.o)

.text.ConfigFillDualDataTable
                0x0000000000f01c0c      0x4c4
 .text.ConfigFillDualDataTable
                0x0000000000f01c0c      0x4c4 App/ProjectConfig/src/libProjectConfig.a(Config.o)

.text.ConfigFillDualPrmTable
                0x0000000000f020d0      0x254
 .text.ConfigFillDualPrmTable
                0x0000000000f020d0      0x254 App/ProjectConfig/src/libProjectConfig.a(Config.o)

.text.ConfigFillSlaveEnableTable
                0x0000000000f02324      0x31c
 .text.ConfigFillSlaveEnableTable
                0x0000000000f02324      0x31c App/ProjectConfig/src/libProjectConfig.a(Config.o)

.text.ConfigSetMasterPrm
                0x0000000000f02640       0x20
 .text.ConfigSetMasterPrm
                0x0000000000f02640       0x20 App/ProjectConfig/src/libProjectConfig.a(Config.o)

.text.ConfigFillDualPrmArea
                0x0000000000f02660       0xec
 .text.ConfigFillDualPrmArea
                0x0000000000f02660       0xec App/ProjectConfig/src/libProjectConfig.a(Config.o)

.text.ConfigDownloadIOConfig
                0x0000000000f0274c       0xfc
 .text.ConfigDownloadIOConfig
                0x0000000000f0274c       0xfc App/ProjectConfig/src/libProjectConfig.a(Config.o)

.text.ConfigOnlineDownloadIOConfig
                0x0000000000f02848       0xc8
 .text.ConfigOnlineDownloadIOConfig
                0x0000000000f02848       0xc8 App/ProjectConfig/src/libProjectConfig.a(Config.o)

.text.ConfigFillSlaveChange
                0x0000000000f02910      0x310
 .text.ConfigFillSlaveChange
                0x0000000000f02910      0x310 App/ProjectConfig/src/libProjectConfig.a(Config.o)
                0x0000000000f02910                ConfigFillSlaveChange

.text.ConfigCheckFileCrc
                0x0000000000f02c20      0x180
 .text.ConfigCheckFileCrc
                0x0000000000f02c20      0x180 App/ProjectConfig/src/libProjectConfig.a(Config.o)

.text.SyncInit  0x0000000000f02da0       0xf4
 .text.SyncInit
                0x0000000000f02da0       0xf4 App/Sync/src/libSync.a(Sync.o)
                0x0000000000f02da0                SyncInit

.text.SyncStart
                0x0000000000f02e94      0xefc
 .text.SyncStart
                0x0000000000f02e94      0xefc App/Sync/src/libSync.a(Sync.o)
                0x0000000000f02e94                SyncStart

.text.SyncMngt  0x0000000000f03d90      0x3f0
 .text.SyncMngt
                0x0000000000f03d90      0x3f0 App/Sync/src/libSync.a(Sync.o)
                0x0000000000f03d90                SyncMngt

.text.SyncInitFileStatus
                0x0000000000f04180      0x104
 .text.SyncInitFileStatus
                0x0000000000f04180      0x104 App/Sync/src/libSync.a(Sync.o)
                0x0000000000f04180                SyncInitFileStatus

.text.SyncInitDataStatus
                0x0000000000f04284       0xc8
 .text.SyncInitDataStatus
                0x0000000000f04284       0xc8 App/Sync/src/libSync.a(Sync.o)
                0x0000000000f04284                SyncInitDataStatus

.text.SyncInitParamStatus
                0x0000000000f0434c       0x20
 .text.SyncInitParamStatus
                0x0000000000f0434c       0x20 App/Sync/src/libSync.a(Sync.o)
                0x0000000000f0434c                SyncInitParamStatus

.text.SyncInitTimerStatus
                0x0000000000f0436c       0x88
 .text.SyncInitTimerStatus
                0x0000000000f0436c       0x88 App/Sync/src/libSync.a(Sync.o)
                0x0000000000f0436c                SyncInitTimerStatus

.text.SyncInitStatus
                0x0000000000f043f4       0x40
 .text.SyncInitStatus
                0x0000000000f043f4       0x40 App/Sync/src/libSync.a(Sync.o)
                0x0000000000f043f4                SyncInitStatus

.text.SyncRecvSyncData
                0x0000000000f04434      0xcbc
 .text.SyncRecvSyncData
                0x0000000000f04434      0xcbc App/Sync/src/libSync.a(Sync.o)
                0x0000000000f04434                SyncRecvSyncData

.text.SyncSendSyncData
                0x0000000000f050f0     0x15b0
 .text.SyncSendSyncData
                0x0000000000f050f0     0x15b0 App/Sync/src/libSync.a(Sync.o)
                0x0000000000f050f0                SyncSendSyncData

.text.SyncHandleSrvData
                0x0000000000f066a0     0x11fc
 .text.SyncHandleSrvData
                0x0000000000f066a0     0x11fc App/Sync/src/libSync.a(Sync.o)
                0x0000000000f066a0                SyncHandleSrvData

.text.SyncHandleStateData
                0x0000000000f0789c      0x4a8
 .text.SyncHandleStateData
                0x0000000000f0789c      0x4a8 App/Sync/src/libSync.a(Sync.o)
                0x0000000000f0789c                SyncHandleStateData

.text.SyncHandleCS1131SrvData
                0x0000000000f07d44      0x3cc
 .text.SyncHandleCS1131SrvData
                0x0000000000f07d44      0x3cc App/Sync/src/libSync.a(Sync.o)
                0x0000000000f07d44                SyncHandleCS1131SrvData

.text.SyncHandleOPCSrvData
                0x0000000000f08110      0x3cc
 .text.SyncHandleOPCSrvData
                0x0000000000f08110      0x3cc App/Sync/src/libSync.a(Sync.o)
                0x0000000000f08110                SyncHandleOPCSrvData

.text.SyncHandleP2PReqSrvData
                0x0000000000f084dc      0x3cc
 .text.SyncHandleP2PReqSrvData
                0x0000000000f084dc      0x3cc App/Sync/src/libSync.a(Sync.o)
                0x0000000000f084dc                SyncHandleP2PReqSrvData

.text.SyncHandleP2PRspSrvData
                0x0000000000f088a8      0x3cc
 .text.SyncHandleP2PRspSrvData
                0x0000000000f088a8      0x3cc App/Sync/src/libSync.a(Sync.o)
                0x0000000000f088a8                SyncHandleP2PRspSrvData

.text.SyncHandleModbusSrvData
                0x0000000000f08c74      0x3cc
 .text.SyncHandleModbusSrvData
                0x0000000000f08c74      0x3cc App/Sync/src/libSync.a(Sync.o)
                0x0000000000f08c74                SyncHandleModbusSrvData

.text.SyncHandleCtrlSrvData
                0x0000000000f09040      0x5a4
 .text.SyncHandleCtrlSrvData
                0x0000000000f09040      0x5a4 App/Sync/src/libSync.a(Sync.o)
                0x0000000000f09040                SyncHandleCtrlSrvData

.text.SyncHandleDiagSrvData
                0x0000000000f095e4      0x3cc
 .text.SyncHandleDiagSrvData
                0x0000000000f095e4      0x3cc App/Sync/src/libSync.a(Sync.o)
                0x0000000000f095e4                SyncHandleDiagSrvData

.text.SyncBroadCastCS1131Srv
                0x0000000000f099b0      0xa50
 .text.SyncBroadCastCS1131Srv
                0x0000000000f099b0      0xa50 App/Sync/src/libSync.a(Sync.o)
                0x0000000000f099b0                SyncBroadCastCS1131Srv

.text.SyncBroadCastOPCSrv
                0x0000000000f0a400      0x9c0
 .text.SyncBroadCastOPCSrv
                0x0000000000f0a400      0x9c0 App/Sync/src/libSync.a(Sync.o)
                0x0000000000f0a400                SyncBroadCastOPCSrv

.text.SyncBroadCastModbusSrv
                0x0000000000f0adc0      0x9c4
 .text.SyncBroadCastModbusSrv
                0x0000000000f0adc0      0x9c4 App/Sync/src/libSync.a(Sync.o)
                0x0000000000f0adc0                SyncBroadCastModbusSrv

.text.SyncBroadCastP2PReqSrv
                0x0000000000f0b784      0x9c0
 .text.SyncBroadCastP2PReqSrv
                0x0000000000f0b784      0x9c0 App/Sync/src/libSync.a(Sync.o)
                0x0000000000f0b784                SyncBroadCastP2PReqSrv

.text.SyncBroadCastP2PRspSrv
                0x0000000000f0c144      0x9c0
 .text.SyncBroadCastP2PRspSrv
                0x0000000000f0c144      0x9c0 App/Sync/src/libSync.a(Sync.o)
                0x0000000000f0c144                SyncBroadCastP2PRspSrv

.text.SyncBroadCastCancel
                0x0000000000f0cb04      0xa2c
 .text.SyncBroadCastCancel
                0x0000000000f0cb04      0xa2c App/Sync/src/libSync.a(Sync.o)
                0x0000000000f0cb04                SyncBroadCastCancel

.text.SyncBroadCastCtrlSrv
                0x0000000000f0d530      0xa24
 .text.SyncBroadCastCtrlSrv
                0x0000000000f0d530      0xa24 App/Sync/src/libSync.a(Sync.o)
                0x0000000000f0d530                SyncBroadCastCtrlSrv

.text.SyncBroadCastDiagSrv
                0x0000000000f0df54      0xa0c
 .text.SyncBroadCastDiagSrv
                0x0000000000f0df54      0xa0c App/Sync/src/libSync.a(Sync.o)
                0x0000000000f0df54                SyncBroadCastDiagSrv

.text.SyncRecvRealData
                0x0000000000f0e960      0x370
 .text.SyncRecvRealData
                0x0000000000f0e960      0x370 App/Sync/src/libSync.a(Sync.o)
                0x0000000000f0e960                SyncRecvRealData

.text.SyncRecvData
                0x0000000000f0ecd0      0x8cc
 .text.SyncRecvData
                0x0000000000f0ecd0      0x8cc App/Sync/src/libSync.a(Sync.o)
                0x0000000000f0ecd0                SyncRecvData

.text.SyncRecvRealDataOk
                0x0000000000f0f59c      0x364
 .text.SyncRecvRealDataOk
                0x0000000000f0f59c      0x364 App/Sync/src/libSync.a(Sync.o)
                0x0000000000f0f59c                SyncRecvRealDataOk

.text.SyncSendRealData
                0x0000000000f0f900      0x264
 .text.SyncSendRealData
                0x0000000000f0f900      0x264 App/Sync/src/libSync.a(Sync.o)
                0x0000000000f0f900                SyncSendRealData

.text.SyncSendData
                0x0000000000f0fb64      0xcb0
 .text.SyncSendData
                0x0000000000f0fb64      0xcb0 App/Sync/src/libSync.a(Sync.o)
                0x0000000000f0fb64                SyncSendData

.text.SyncSendDataOk
                0x0000000000f10814      0x310
 .text.SyncSendDataOk
                0x0000000000f10814      0x310 App/Sync/src/libSync.a(Sync.o)
                0x0000000000f10814                SyncSendDataOk

.text.SyncGetNextArea
                0x0000000000f10b24       0xcc
 .text.SyncGetNextArea
                0x0000000000f10b24       0xcc App/Sync/src/libSync.a(Sync.o)
                0x0000000000f10b24                SyncGetNextArea

.text.SyncWaitAck
                0x0000000000f10bf0      0x5d0
 .text.SyncWaitAck
                0x0000000000f10bf0      0x5d0 App/Sync/src/libSync.a(Sync.o)
                0x0000000000f10bf0                SyncWaitAck

.text.SyncRecvFileData
                0x0000000000f111c0      0xb14
 .text.SyncRecvFileData
                0x0000000000f111c0      0xb14 App/Sync/src/libSync.a(Sync.o)
                0x0000000000f111c0                SyncRecvFileData

.text.SyncSendFileData
                0x0000000000f11cd4      0x148
 .text.SyncSendFileData
                0x0000000000f11cd4      0x148 App/Sync/src/libSync.a(Sync.o)
                0x0000000000f11cd4                SyncSendFileData

.text.SyncSendFile
                0x0000000000f11e1c      0x984
 .text.SyncSendFile
                0x0000000000f11e1c      0x984 App/Sync/src/libSync.a(Sync.o)
                0x0000000000f11e1c                SyncSendFile

.text.SyncGetNextFile
                0x0000000000f127a0      0x3cc
 .text.SyncGetNextFile
                0x0000000000f127a0      0x3cc App/Sync/src/libSync.a(Sync.o)
                0x0000000000f127a0                SyncGetNextFile

.text.SyncGetAjustTimerFlag
                0x0000000000f12b6c      0x1d0
 .text.SyncGetAjustTimerFlag
                0x0000000000f12b6c      0x1d0 App/Sync/src/libSync.a(Sync.o)
                0x0000000000f12b6c                SyncGetAjustTimerFlag

.text.StateMngtInit
                0x0000000000f12d3c       0x48
 .text.StateMngtInit
                0x0000000000f12d3c       0x48 App/SysStateManager/src/libSysStateManager.a(StateMngt.o)
                0x0000000000f12d3c                StateMngtInit

.text.SysStateMngt
                0x0000000000f12d84      0x29c
 .text.SysStateMngt
                0x0000000000f12d84      0x29c App/SysStateManager/src/libSysStateManager.a(StateMngt.o)
                0x0000000000f12d84                SysStateMngt

.text.SysUpdateState
                0x0000000000f13020     0x129c
 .text.SysUpdateState
                0x0000000000f13020     0x129c App/SysStateManager/src/libSysStateManager.a(StateMngt.o)
                0x0000000000f13020                SysUpdateState

.text.SysStateChange
                0x0000000000f142bc       0x9c
 .text.SysStateChange
                0x0000000000f142bc       0x9c App/SysStateManager/src/libSysStateManager.a(StateMngt.o)
                0x0000000000f142bc                SysStateChange

.text.SysStateReady
                0x0000000000f14358       0x34
 .text.SysStateReady
                0x0000000000f14358       0x34 App/SysStateManager/src/libSysStateManager.a(StateMngt.o)
                0x0000000000f14358                SysStateReady

.text.SysGetStateCode
                0x0000000000f1438c       0x58
 .text.SysGetStateCode
                0x0000000000f1438c       0x58 App/SysStateManager/src/libSysStateManager.a(StateMngt.o)
                0x0000000000f1438c                SysGetStateCode

.text.SysInUnStableArray
                0x0000000000f143e4       0x8c
 .text.SysInUnStableArray
                0x0000000000f143e4       0x8c App/SysStateManager/src/libSysStateManager.a(StateMngt.o)
                0x0000000000f143e4                SysInUnStableArray

.text.SysUnstableStateHandle
                0x0000000000f14470      0x124
 .text.SysUnstableStateHandle
                0x0000000000f14470      0x124 App/SysStateManager/src/libSysStateManager.a(StateMngt.o)
                0x0000000000f14470                SysUnstableStateHandle

.text.SysStableStateHandle
                0x0000000000f14594     0x1120
 .text.SysStableStateHandle
                0x0000000000f14594     0x1120 App/SysStateManager/src/libSysStateManager.a(StateMngt.o)
                0x0000000000f14594                SysStableStateHandle

.text.SysStateHandle3
                0x0000000000f156b4      0xf08
 .text.SysStateHandle3
                0x0000000000f156b4      0xf08 App/SysStateManager/src/libSysStateManager.a(StateMngt.o)
                0x0000000000f156b4                SysStateHandle3

.text.SysStateHandle5
                0x0000000000f165bc      0xfd8
 .text.SysStateHandle5
                0x0000000000f165bc      0xfd8 App/SysStateManager/src/libSysStateManager.a(StateMngt.o)
                0x0000000000f165bc                SysStateHandle5

.text.SysStateHandle9
                0x0000000000f17594      0x5f0
 .text.SysStateHandle9
                0x0000000000f17594      0x5f0 App/SysStateManager/src/libSysStateManager.a(StateMngt.o)
                0x0000000000f17594                SysStateHandle9

.text.SysStateHandle10
                0x0000000000f17b84      0x5b4
 .text.SysStateHandle10
                0x0000000000f17b84      0x5b4 App/SysStateManager/src/libSysStateManager.a(StateMngt.o)
                0x0000000000f17b84                SysStateHandle10

.text.SysStateHandle12
                0x0000000000f18138      0x344
 .text.SysStateHandle12
                0x0000000000f18138      0x344 App/SysStateManager/src/libSysStateManager.a(StateMngt.o)
                0x0000000000f18138                SysStateHandle12

.text.SysStateHandle14
                0x0000000000f1847c      0x344
 .text.SysStateHandle14
                0x0000000000f1847c      0x344 App/SysStateManager/src/libSysStateManager.a(StateMngt.o)
                0x0000000000f1847c                SysStateHandle14

.text.SysStateHandle11
                0x0000000000f187c0      0x480
 .text.SysStateHandle11
                0x0000000000f187c0      0x480 App/SysStateManager/src/libSysStateManager.a(StateMngt.o)
                0x0000000000f187c0                SysStateHandle11

.text.SysStateHandle13
                0x0000000000f18c40      0x480
 .text.SysStateHandle13
                0x0000000000f18c40      0x480 App/SysStateManager/src/libSysStateManager.a(StateMngt.o)
                0x0000000000f18c40                SysStateHandle13

.text.SysSwitchKeyTriVote
                0x0000000000f190c0      0x204
 .text.SysSwitchKeyTriVote
                0x0000000000f190c0      0x204 App/SysStateManager/src/libSysStateManager.a(StateMngt.o)

.text.SysSwitchKeyDoulVote
                0x0000000000f192c4       0xc0
 .text.SysSwitchKeyDoulVote
                0x0000000000f192c4       0xc0 App/SysStateManager/src/libSysStateManager.a(StateMngt.o)

.text.check_cm_recvTmp
                0x0000000000f19384      0x138
 .text.check_cm_recvTmp
                0x0000000000f19384      0x138 Srv/CommProtocol/src/libCMBusProtocol.a(CMBusProtocol.o)
                0x0000000000f19384                check_cm_recvTmp

.text.CMBusProtocolInit
                0x0000000000f194bc      0x298
 .text.CMBusProtocolInit
                0x0000000000f194bc      0x298 Srv/CommProtocol/src/libCMBusProtocol.a(CMBusProtocol.o)
                0x0000000000f194bc                CMBusProtocolInit

.text.CMBusProtocolCycleWithoutCfgInit
                0x0000000000f19754       0xe8
 .text.CMBusProtocolCycleWithoutCfgInit
                0x0000000000f19754       0xe8 Srv/CommProtocol/src/libCMBusProtocol.a(CMBusProtocol.o)

.text.CreateCMLogicId2SlotIdTable
                0x0000000000f1983c      0x18c
 .text.CreateCMLogicId2SlotIdTable
                0x0000000000f1983c      0x18c Srv/CommProtocol/src/libCMBusProtocol.a(CMBusProtocol.o)

.text.UpdateCMBusLEDwithCfg
                0x0000000000f199c8      0x1b0
 .text.UpdateCMBusLEDwithCfg
                0x0000000000f199c8      0x1b0 Srv/CommProtocol/src/libCMBusProtocol.a(CMBusProtocol.o)

.text.CMBusProtocolCycleWithCfg
                0x0000000000f19b78      0x5dc
 .text.CMBusProtocolCycleWithCfg
                0x0000000000f19b78      0x5dc Srv/CommProtocol/src/libCMBusProtocol.a(CMBusProtocol.o)

.text.CMBusProtocolCycle
                0x0000000000f1a154       0xb4
 .text.CMBusProtocolCycle
                0x0000000000f1a154       0xb4 Srv/CommProtocol/src/libCMBusProtocol.a(CMBusProtocol.o)
                0x0000000000f1a154                CMBusProtocolCycle

.text.UpdateCMBusLED
                0x0000000000f1a208      0x110
 .text.UpdateCMBusLED
                0x0000000000f1a208      0x110 Srv/CommProtocol/src/libCMBusProtocol.a(CMBusProtocol.o)

.text.CMBusProtocolCycleWithoutCfg
                0x0000000000f1a318      0x8b0
 .text.CMBusProtocolCycleWithoutCfg
                0x0000000000f1a318      0x8b0 Srv/CommProtocol/src/libCMBusProtocol.a(CMBusProtocol.o)

.text.CMBusProtocolReceive
                0x0000000000f1abc8      0x1d8
 .text.CMBusProtocolReceive
                0x0000000000f1abc8      0x1d8 Srv/CommProtocol/src/libCMBusProtocol.a(CMBusProtocol.o)

.text.CMBusProtocolReceivePreHandling
                0x0000000000f1ada0      0x14c
 .text.CMBusProtocolReceivePreHandling
                0x0000000000f1ada0      0x14c Srv/CommProtocol/src/libCMBusProtocol.a(CMBusProtocol.o)

.text.CMBusProtocolParseSysCMState
                0x0000000000f1aeec      0x81c
 .text.CMBusProtocolParseSysCMState
                0x0000000000f1aeec      0x81c Srv/CommProtocol/src/libCMBusProtocol.a(CMBusProtocol.o)

.text.CMBusProtocolParseDetectMsgAck
                0x0000000000f1b708      0x218
 .text.CMBusProtocolParseDetectMsgAck
                0x0000000000f1b708      0x218 Srv/CommProtocol/src/libCMBusProtocol.a(CMBusProtocol.o)

.text.CMBusProtocolParsePCsoftware
                0x0000000000f1b920      0x400
 .text.CMBusProtocolParsePCsoftware
                0x0000000000f1b920      0x400 Srv/CommProtocol/src/libCMBusProtocol.a(CMBusProtocol.o)

.text.CMBusProtocolParseP2P
                0x0000000000f1bd20      0x248
 .text.CMBusProtocolParseP2P
                0x0000000000f1bd20      0x248 Srv/CommProtocol/src/libCMBusProtocol.a(CMBusProtocol.o)

.text.CMBusProtocolParseModbus
                0x0000000000f1bf68      0x1b0
 .text.CMBusProtocolParseModbus
                0x0000000000f1bf68      0x1b0 Srv/CommProtocol/src/libCMBusProtocol.a(CMBusProtocol.o)

.text.CMBusProtocolParseRTDataAck
                0x0000000000f1c118      0x30c
 .text.CMBusProtocolParseRTDataAck
                0x0000000000f1c118      0x30c Srv/CommProtocol/src/libCMBusProtocol.a(CMBusProtocol.o)

.text.CMBusProtocolSend
                0x0000000000f1c424      0x48c
 .text.CMBusProtocolSend
                0x0000000000f1c424      0x48c Srv/CommProtocol/src/libCMBusProtocol.a(CMBusProtocol.o)

.text.CMBusProtocolSendCfgFileHandling
                0x0000000000f1c8b0       0x7c
 .text.CMBusProtocolSendCfgFileHandling
                0x0000000000f1c8b0       0x7c Srv/CommProtocol/src/libCMBusProtocol.a(CMBusProtocol.o)

.text.CMBusProtocolPackSysState
                0x0000000000f1c92c      0x29c
 .text.CMBusProtocolPackSysState
                0x0000000000f1c92c      0x29c Srv/CommProtocol/src/libCMBusProtocol.a(CMBusProtocol.o)

.text.CMBusProtocolPackDetectMsg
                0x0000000000f1cbc8      0x278
 .text.CMBusProtocolPackDetectMsg
                0x0000000000f1cbc8      0x278 Srv/CommProtocol/src/libCMBusProtocol.a(CMBusProtocol.o)

.text.CMBusProtocolPackPCsoftware
                0x0000000000f1ce40      0xb54
 .text.CMBusProtocolPackPCsoftware
                0x0000000000f1ce40      0xb54 Srv/CommProtocol/src/libCMBusProtocol.a(CMBusProtocol.o)

.text.CMBusProtocolPackP2P
                0x0000000000f1d994      0x4e4
 .text.CMBusProtocolPackP2P
                0x0000000000f1d994      0x4e4 Srv/CommProtocol/src/libCMBusProtocol.a(CMBusProtocol.o)

.text.TransCfgFileInit
                0x0000000000f1de78       0x84
 .text.TransCfgFileInit
                0x0000000000f1de78       0x84 Srv/CommProtocol/src/libCMBusProtocol.a(CMBusProtocol.o)

.text.FindLastCfgFileIndex
                0x0000000000f1defc      0x160
 .text.FindLastCfgFileIndex
                0x0000000000f1defc      0x160 Srv/CommProtocol/src/libCMBusProtocol.a(CMBusProtocol.o)

.text.CMBusProtocolPackCfgFile
                0x0000000000f1e05c      0x86c
 .text.CMBusProtocolPackCfgFile
                0x0000000000f1e05c      0x86c Srv/CommProtocol/src/libCMBusProtocol.a(CMBusProtocol.o)

.text.CMBusProtocolPackRTData
                0x0000000000f1e8c8      0x8f4
 .text.CMBusProtocolPackRTData
                0x0000000000f1e8c8      0x8f4 Srv/CommProtocol/src/libCMBusProtocol.a(CMBusProtocol.o)

.text.cmbus_send
                0x0000000000f1f1bc       0xc0
 .text.cmbus_send
                0x0000000000f1f1bc       0xc0 Srv/CommProtocol/src/libCMBusProtocol.a(CMBusProtocol.o)

.text.cmbus_recv
                0x0000000000f1f27c       0xb4
 .text.cmbus_recv
                0x0000000000f1f27c       0xb4 Srv/CommProtocol/src/libCMBusProtocol.a(CMBusProtocol.o)

.text.CMTableInit
                0x0000000000f1f330       0x88
 .text.CMTableInit
                0x0000000000f1f330       0x88 Srv/CommProtocol/src/libCMBusProtocol.a(CMTable.o)
                0x0000000000f1f330                CMTableInit

.text.UpdateCMTable
                0x0000000000f1f3b8      0x144
 .text.UpdateCMTable
                0x0000000000f1f3b8      0x144 Srv/CommProtocol/src/libCMBusProtocol.a(CMTable.o)
                0x0000000000f1f3b8                UpdateCMTable

.text.CMSLotIDToLogicID
                0x0000000000f1f4fc       0x78
 .text.CMSLotIDToLogicID
                0x0000000000f1f4fc       0x78 Srv/CommProtocol/src/libCMBusProtocol.a(CMTable.o)
                0x0000000000f1f4fc                CMSLotIDToLogicID

.text.FindNotUsedCMLogicID
                0x0000000000f1f574       0xf0
 .text.FindNotUsedCMLogicID
                0x0000000000f1f574       0xf0 Srv/CommProtocol/src/libCMBusProtocol.a(CMTable.o)

.text.SysCfgFileInit
                0x0000000000f1f664       0xec
 .text.SysCfgFileInit
                0x0000000000f1f664       0xec Srv/SysResource/src/libSys.a(SysCfgFile.o)
                0x0000000000f1f664                SysCfgFileInit

.text.SysTransCfgFileFlagInit
                0x0000000000f1f750       0x44
 .text.SysTransCfgFileFlagInit
                0x0000000000f1f750       0x44 Srv/SysResource/src/libSys.a(SysCfgFile.o)
                0x0000000000f1f750                SysTransCfgFileFlagInit

.text.SysSetCfgFileTable
                0x0000000000f1f794       0x64
 .text.SysSetCfgFileTable
                0x0000000000f1f794       0x64 Srv/SysResource/src/libSys.a(SysCfgFile.o)
                0x0000000000f1f794                SysSetCfgFileTable

.text.SysSetCfgFileIncreasedTable
                0x0000000000f1f7f8       0x64
 .text.SysSetCfgFileIncreasedTable
                0x0000000000f1f7f8       0x64 Srv/SysResource/src/libSys.a(SysCfgFile.o)
                0x0000000000f1f7f8                SysSetCfgFileIncreasedTable

.text.SysGetCfgFileTable
                0x0000000000f1f85c       0xa0
 .text.SysGetCfgFileTable
                0x0000000000f1f85c       0xa0 Srv/SysResource/src/libSys.a(SysCfgFile.o)
                0x0000000000f1f85c                SysGetCfgFileTable

.text.SysGetCfgFileIncreasedTable
                0x0000000000f1f8fc       0xa0
 .text.SysGetCfgFileIncreasedTable
                0x0000000000f1f8fc       0xa0 Srv/SysResource/src/libSys.a(SysCfgFile.o)
                0x0000000000f1f8fc                SysGetCfgFileIncreasedTable

.text.SysGetCfgFileContentStartAddr
                0x0000000000f1f99c       0x80
 .text.SysGetCfgFileContentStartAddr
                0x0000000000f1f99c       0x80 Srv/SysResource/src/libSys.a(SysCfgFile.o)
                0x0000000000f1f99c                SysGetCfgFileContentStartAddr

.text.SysGetCfgFileContentStartAddress
                0x0000000000f1fa1c      0x3ac
 .text.SysGetCfgFileContentStartAddress
                0x0000000000f1fa1c      0x3ac Srv/SysResource/src/libSys.a(SysCfgFile.o)

.text.SysCheckCfgFileTransFlag
                0x0000000000f1fdc8      0x1dc
 .text.SysCheckCfgFileTransFlag
                0x0000000000f1fdc8      0x1dc Srv/SysResource/src/libSys.a(SysCfgFile.o)
                0x0000000000f1fdc8                SysCheckCfgFileTransFlag

.text.SysCheckCfgFileIncreasedTransFlag
                0x0000000000f1ffa4      0x1dc
 .text.SysCheckCfgFileIncreasedTransFlag
                0x0000000000f1ffa4      0x1dc Srv/SysResource/src/libSys.a(SysCfgFile.o)
                0x0000000000f1ffa4                SysCheckCfgFileIncreasedTransFlag

.text.SysGetCfgFileInfo
                0x0000000000f20180      0x2b4
 .text.SysGetCfgFileInfo
                0x0000000000f20180      0x2b4 Srv/SysResource/src/libSys.a(SysCfgFile.o)
                0x0000000000f20180                SysGetCfgFileInfo

.text.SysGetCfgFileState
                0x0000000000f20434     0x1bc0
 .text.SysGetCfgFileState
                0x0000000000f20434     0x1bc0 Srv/SysResource/src/libSys.a(SysCfgFile.o)
                0x0000000000f20434                SysGetCfgFileState

.text.SysSetCfgFileInfo
                0x0000000000f21ff4      0x264
 .text.SysSetCfgFileInfo
                0x0000000000f21ff4      0x264 Srv/SysResource/src/libSys.a(SysCfgFile.o)
                0x0000000000f21ff4                SysSetCfgFileInfo

.text.SysSetCfgFileFinished
                0x0000000000f22258      0xe48
 .text.SysSetCfgFileFinished
                0x0000000000f22258      0xe48 Srv/SysResource/src/libSys.a(SysCfgFile.o)
                0x0000000000f22258                SysSetCfgFileFinished

.text.SysSetAllCfgFileFinished
                0x0000000000f230a0       0x20
 .text.SysSetAllCfgFileFinished
                0x0000000000f230a0       0x20 Srv/SysResource/src/libSys.a(SysCfgFile.o)
                0x0000000000f230a0                SysSetAllCfgFileFinished

.text.SysDeleteCfgFile
                0x0000000000f230c0      0xa60
 .text.SysDeleteCfgFile
                0x0000000000f230c0      0xa60 Srv/SysResource/src/libSys.a(SysCfgFile.o)
                0x0000000000f230c0                SysDeleteCfgFile

.text.SysSetTransCfgFileFlag
                0x0000000000f23b20       0x44
 .text.SysSetTransCfgFileFlag
                0x0000000000f23b20       0x44 Srv/SysResource/src/libSys.a(SysCfgFile.o)
                0x0000000000f23b20                SysSetTransCfgFileFlag

.text.SysGetTransCfgFileFlag
                0x0000000000f23b64       0x54
 .text.SysGetTransCfgFileFlag
                0x0000000000f23b64       0x54 Srv/SysResource/src/libSys.a(SysCfgFile.o)
                0x0000000000f23b64                SysGetTransCfgFileFlag

.text.SysSetCfgFileConfigFlg
                0x0000000000f23bb8      0x804
 .text.SysSetCfgFileConfigFlg
                0x0000000000f23bb8      0x804 Srv/SysResource/src/libSys.a(SysCfgFile.o)
                0x0000000000f23bb8                SysSetCfgFileConfigFlg

.text.SysGetCfgFileCMInfo
                0x0000000000f243bc      0x1c0
 .text.SysGetCfgFileCMInfo
                0x0000000000f243bc      0x1c0 Srv/SysResource/src/libSys.a(SysCfgFile.o)

.text.SysGetCfgFileModbusMasterInfo
                0x0000000000f2457c      0x1c0
 .text.SysGetCfgFileModbusMasterInfo
                0x0000000000f2457c      0x1c0 Srv/SysResource/src/libSys.a(SysCfgFile.o)

.text.SysGetCfgFileModbusSlaveInfo
                0x0000000000f2473c      0x1c0
 .text.SysGetCfgFileModbusSlaveInfo
                0x0000000000f2473c      0x1c0 Srv/SysResource/src/libSys.a(SysCfgFile.o)

.text.SysGetCfgFileOPCInfo
                0x0000000000f248fc      0x1c0
 .text.SysGetCfgFileOPCInfo
                0x0000000000f248fc      0x1c0 Srv/SysResource/src/libSys.a(SysCfgFile.o)

.text.SysGetCfgFileCtrlStationInfo
                0x0000000000f24abc      0x1a4
 .text.SysGetCfgFileCtrlStationInfo
                0x0000000000f24abc      0x1a4 Srv/SysResource/src/libSys.a(SysCfgFile.o)

.text.SysGetCfgFileSOEInfo
                0x0000000000f24c60      0x1c0
 .text.SysGetCfgFileSOEInfo
                0x0000000000f24c60      0x1c0 Srv/SysResource/src/libSys.a(SysCfgFile.o)

.text.SysGetCfgFileP2PInfo
                0x0000000000f24e20      0x1c0
 .text.SysGetCfgFileP2PInfo
                0x0000000000f24e20      0x1c0 Srv/SysResource/src/libSys.a(SysCfgFile.o)

.text.SysGetCfgFileVoteInfo
                0x0000000000f24fe0      0x1c0
 .text.SysGetCfgFileVoteInfo
                0x0000000000f24fe0      0x1c0 Srv/SysResource/src/libSys.a(SysCfgFile.o)

.text.SysGetCfgFileIOModInfo
                0x0000000000f251a0      0x1c0
 .text.SysGetCfgFileIOModInfo
                0x0000000000f251a0      0x1c0 Srv/SysResource/src/libSys.a(SysCfgFile.o)

.text.SysGetCfgFileRetainInfo
                0x0000000000f25360      0x1c0
 .text.SysGetCfgFileRetainInfo
                0x0000000000f25360      0x1c0 Srv/SysResource/src/libSys.a(SysCfgFile.o)

.text.SysGetCfgFilePrgInfo
                0x0000000000f25520      0x1c0
 .text.SysGetCfgFilePrgInfo
                0x0000000000f25520      0x1c0 Srv/SysResource/src/libSys.a(SysCfgFile.o)

.text.SysSetCfgFileCMInfo
                0x0000000000f256e0      0x324
 .text.SysSetCfgFileCMInfo
                0x0000000000f256e0      0x324 Srv/SysResource/src/libSys.a(SysCfgFile.o)

.text.SysSetCfgFileModbusMasterInfo
                0x0000000000f25a04      0x324
 .text.SysSetCfgFileModbusMasterInfo
                0x0000000000f25a04      0x324 Srv/SysResource/src/libSys.a(SysCfgFile.o)

.text.SysSetCfgFileModbusSlaveInfo
                0x0000000000f25d28      0x324
 .text.SysSetCfgFileModbusSlaveInfo
                0x0000000000f25d28      0x324 Srv/SysResource/src/libSys.a(SysCfgFile.o)

.text.SysSetCfgFileOPCInfo
                0x0000000000f2604c      0x324
 .text.SysSetCfgFileOPCInfo
                0x0000000000f2604c      0x324 Srv/SysResource/src/libSys.a(SysCfgFile.o)

.text.SysSetCfgFileCtrlStationInfo
                0x0000000000f26370      0x2c8
 .text.SysSetCfgFileCtrlStationInfo
                0x0000000000f26370      0x2c8 Srv/SysResource/src/libSys.a(SysCfgFile.o)

.text.SysSetCfgFileSOEInfo
                0x0000000000f26638      0x324
 .text.SysSetCfgFileSOEInfo
                0x0000000000f26638      0x324 Srv/SysResource/src/libSys.a(SysCfgFile.o)

.text.SysSetCfgFileP2PInfo
                0x0000000000f2695c      0x324
 .text.SysSetCfgFileP2PInfo
                0x0000000000f2695c      0x324 Srv/SysResource/src/libSys.a(SysCfgFile.o)

.text.SysSetCfgFileVoteInfo
                0x0000000000f26c80      0x324
 .text.SysSetCfgFileVoteInfo
                0x0000000000f26c80      0x324 Srv/SysResource/src/libSys.a(SysCfgFile.o)

.text.SysSetCfgFileIOModInfo
                0x0000000000f26fa4      0x324
 .text.SysSetCfgFileIOModInfo
                0x0000000000f26fa4      0x324 Srv/SysResource/src/libSys.a(SysCfgFile.o)

.text.SysSetCfgFileRetainInfo
                0x0000000000f272c8      0x324
 .text.SysSetCfgFileRetainInfo
                0x0000000000f272c8      0x324 Srv/SysResource/src/libSys.a(SysCfgFile.o)

.text.SysSetCfgFilePrgInfo
                0x0000000000f275ec      0x324
 .text.SysSetCfgFilePrgInfo
                0x0000000000f275ec      0x324 Srv/SysResource/src/libSys.a(SysCfgFile.o)

.text.FindReadableDB
                0x0000000000f27910       0x70
 .text.FindReadableDB
                0x0000000000f27910       0x70 Srv/SysResource/src/libSys.a(SysCfgFile.o)

.text.FindWriteableDB
                0x0000000000f27980       0x70
 .text.FindWriteableDB
                0x0000000000f27980       0x70 Srv/SysResource/src/libSys.a(SysCfgFile.o)

.text.SetDBWriteable
                0x0000000000f279f0      0xcf0
 .text.SetDBWriteable
                0x0000000000f279f0      0xcf0 Srv/SysResource/src/libSys.a(SysCfgFile.o)

.text.SysCMBusInit
                0x0000000000f286e0       0x48
 .text.SysCMBusInit
                0x0000000000f286e0       0x48 Srv/SysResource/src/libSys.a(SysCMBus.o)
                0x0000000000f286e0                SysCMBusInit

.text.SysGetMsg
                0x0000000000f28728      0x160
 .text.SysGetMsg
                0x0000000000f28728      0x160 Srv/SysResource/src/libSys.a(SysCMBus.o)
                0x0000000000f28728                SysGetMsg

.text.SysGetMsgLen
                0x0000000000f28888      0x110
 .text.SysGetMsgLen
                0x0000000000f28888      0x110 Srv/SysResource/src/libSys.a(SysCMBus.o)
                0x0000000000f28888                SysGetMsgLen

.text.SysSetMsg
                0x0000000000f28998      0x16c
 .text.SysSetMsg
                0x0000000000f28998      0x16c Srv/SysResource/src/libSys.a(SysCMBus.o)
                0x0000000000f28998                SysSetMsg

.text.SysInit   0x0000000000f28b04       0x90
 .text.SysInit  0x0000000000f28b04       0x90 Srv/SysResource/src/libSys.a(SysCommon.o)
                0x0000000000f28b04                SysInit

.text.SysSetPMState
                0x0000000000f28b94      0x118
 .text.SysSetPMState
                0x0000000000f28b94      0x118 Srv/SysResource/src/libSys.a(SysCommon.o)
                0x0000000000f28b94                SysSetPMState

.text.SysGetSysState
                0x0000000000f28cac      0x248
 .text.SysGetSysState
                0x0000000000f28cac      0x248 Srv/SysResource/src/libSys.a(SysCommon.o)
                0x0000000000f28cac                SysGetSysState

.text.SysSetCMLogicID
                0x0000000000f28ef4       0x9c
 .text.SysSetCMLogicID
                0x0000000000f28ef4       0x9c Srv/SysResource/src/libSys.a(SysCommon.o)
                0x0000000000f28ef4                SysSetCMLogicID

.text.SysSetCMState
                0x0000000000f28f90       0xac
 .text.SysSetCMState
                0x0000000000f28f90       0xac Srv/SysResource/src/libSys.a(SysCommon.o)
                0x0000000000f28f90                SysSetCMState

.text.SysGetCMBusCommState
                0x0000000000f2903c       0x98
 .text.SysGetCMBusCommState
                0x0000000000f2903c       0x98 Srv/SysResource/src/libSys.a(SysCommon.o)
                0x0000000000f2903c                SysGetCMBusCommState

.text.SysSetCMBusCommState
                0x0000000000f290d4       0xd0
 .text.SysSetCMBusCommState
                0x0000000000f290d4       0xd0 Srv/SysResource/src/libSys.a(SysCommon.o)
                0x0000000000f290d4                SysSetCMBusCommState

.text.SysSetCMSystemTime
                0x0000000000f291a4      0x3d4
 .text.SysSetCMSystemTime
                0x0000000000f291a4      0x3d4 Srv/SysResource/src/libSys.a(SysCommon.o)
                0x0000000000f291a4                SysSetCMSystemTime

.text.SysGetLocalCMBusCommState
                0x0000000000f29578       0x68
 .text.SysGetLocalCMBusCommState
                0x0000000000f29578       0x68 Srv/SysResource/src/libSys.a(SysCommon.o)
                0x0000000000f29578                SysGetLocalCMBusCommState

.text.SysSetLocalCMBusCommState
                0x0000000000f295e0      0x118
 .text.SysSetLocalCMBusCommState
                0x0000000000f295e0      0x118 Srv/SysResource/src/libSys.a(SysCommon.o)
                0x0000000000f295e0                SysSetLocalCMBusCommState

.text.SysGetCfgFileAllTable
                0x0000000000f296f8       0x30
 .text.SysGetCfgFileAllTable
                0x0000000000f296f8       0x30 Srv/SysResource/src/libSys.a(SysCommon.o)
                0x0000000000f296f8                SysGetCfgFileAllTable

.text.SysGetCfgFileIncreTable
                0x0000000000f29728       0x30
 .text.SysGetCfgFileIncreTable
                0x0000000000f29728       0x30 Srv/SysResource/src/libSys.a(SysCommon.o)
                0x0000000000f29728                SysGetCfgFileIncreTable

.text.SysGetFileName
                0x0000000000f29758      0x4f0
 .text.SysGetFileName
                0x0000000000f29758      0x4f0 Srv/SysResource/src/libSys.a(SysCommon.o)
                0x0000000000f29758                SysGetFileName

.text.SysGetTmpFileName
                0x0000000000f29c48      0x4f0
 .text.SysGetTmpFileName
                0x0000000000f29c48      0x4f0 Srv/SysResource/src/libSys.a(SysCommon.o)
                0x0000000000f29c48                SysGetTmpFileName

.text.SysGetOldFileName
                0x0000000000f2a138      0x4f0
 .text.SysGetOldFileName
                0x0000000000f2a138      0x4f0 Srv/SysResource/src/libSys.a(SysCommon.o)
                0x0000000000f2a138                SysGetOldFileName

.text.SysSetRemoteProjVersion
                0x0000000000f2a628      0x2fc
 .text.SysSetRemoteProjVersion
                0x0000000000f2a628      0x2fc Srv/SysResource/src/libSys.a(SysCommon.o)
                0x0000000000f2a628                SysSetRemoteProjVersion

.text.SysGetRemoteProjVersion
                0x0000000000f2a924      0x2fc
 .text.SysGetRemoteProjVersion
                0x0000000000f2a924      0x2fc Srv/SysResource/src/libSys.a(SysCommon.o)
                0x0000000000f2a924                SysGetRemoteProjVersion

.text.SysFileManagerInit
                0x0000000000f2ac20       0xe0
 .text.SysFileManagerInit
                0x0000000000f2ac20       0xe0 Srv/SysResource/src/libSys.a(SysFileManager.o)
                0x0000000000f2ac20                SysFileManagerInit

.text.SysWriteFile
                0x0000000000f2ad00      0x228
 .text.SysWriteFile
                0x0000000000f2ad00      0x228 Srv/SysResource/src/libSys.a(SysFileManager.o)
                0x0000000000f2ad00                SysWriteFile

.text.SysSendAck
                0x0000000000f2af28      0x104
 .text.SysSendAck
                0x0000000000f2af28      0x104 Srv/SysResource/src/libSys.a(SysFileManager.o)
                0x0000000000f2af28                SysSendAck

.text.SysReadFMReqMsg
                0x0000000000f2b02c      0x12c
 .text.SysReadFMReqMsg
                0x0000000000f2b02c      0x12c Srv/SysResource/src/libSys.a(SysFileManager.o)
                0x0000000000f2b02c                SysReadFMReqMsg

.text.SysRecvAckHeader
                0x0000000000f2b158      0x12c
 .text.SysRecvAckHeader
                0x0000000000f2b158      0x12c Srv/SysResource/src/libSys.a(SysFileManager.o)
                0x0000000000f2b158                SysRecvAckHeader

.text.SysOpenFile
                0x0000000000f2b284      0x1d4
 .text.SysOpenFile
                0x0000000000f2b284      0x1d4 Srv/SysResource/src/libSys.a(SysFileManager.o)
                0x0000000000f2b284                SysOpenFile

.text.SysCloseFile
                0x0000000000f2b458      0x1ac
 .text.SysCloseFile
                0x0000000000f2b458      0x1ac Srv/SysResource/src/libSys.a(SysFileManager.o)
                0x0000000000f2b458                SysCloseFile

.text.SysDeleteFile
                0x0000000000f2b604      0x1d4
 .text.SysDeleteFile
                0x0000000000f2b604      0x1d4 Srv/SysResource/src/libSys.a(SysFileManager.o)
                0x0000000000f2b604                SysDeleteFile

.text.SysSendIsFileExist
                0x0000000000f2b7d8      0x1d4
 .text.SysSendIsFileExist
                0x0000000000f2b7d8      0x1d4 Srv/SysResource/src/libSys.a(SysFileManager.o)
                0x0000000000f2b7d8                SysSendIsFileExist

.text.SysRenameFile
                0x0000000000f2b9ac      0x250
 .text.SysRenameFile
                0x0000000000f2b9ac      0x250 Srv/SysResource/src/libSys.a(SysFileManager.o)
                0x0000000000f2b9ac                SysRenameFile

.text.SysEraseNorflash
                0x0000000000f2bbfc       0xc8
 .text.SysEraseNorflash
                0x0000000000f2bbfc       0xc8 Srv/SysResource/src/libSys.a(SysFileManager.o)
                0x0000000000f2bbfc                SysEraseNorflash

.text.SysEraseFirmware
                0x0000000000f2bcc4      0x154
 .text.SysEraseFirmware
                0x0000000000f2bcc4      0x154 Srv/SysResource/src/libSys.a(SysFileManager.o)
                0x0000000000f2bcc4                SysEraseFirmware

.text.SysModbusInit
                0x0000000000f2be18       0x48
 .text.SysModbusInit
                0x0000000000f2be18       0x48 Srv/SysResource/src/libSys.a(SysModbus.o)
                0x0000000000f2be18                SysModbusInit

.text.SysGetModbusMsgQueue
                0x0000000000f2be60      0x250
 .text.SysGetModbusMsgQueue
                0x0000000000f2be60      0x250 Srv/SysResource/src/libSys.a(SysModbus.o)
                0x0000000000f2be60                SysGetModbusMsgQueue

.text.SysGetModbusMsgNum
                0x0000000000f2c0b0       0x94
 .text.SysGetModbusMsgNum
                0x0000000000f2c0b0       0x94 Srv/SysResource/src/libSys.a(SysModbus.o)
                0x0000000000f2c0b0                SysGetModbusMsgNum

.text.SysSetModbusMsgQueue
                0x0000000000f2c144      0x228
 .text.SysSetModbusMsgQueue
                0x0000000000f2c144      0x228 Srv/SysResource/src/libSys.a(SysModbus.o)
                0x0000000000f2c144                SysSetModbusMsgQueue

.text.SysP2PInit
                0x0000000000f2c36c       0x48
 .text.SysP2PInit
                0x0000000000f2c36c       0x48 Srv/SysResource/src/libSys.a(SysP2P.o)
                0x0000000000f2c36c                SysP2PInit

.text.SysGetP2PMsg
                0x0000000000f2c3b4      0x158
 .text.SysGetP2PMsg
                0x0000000000f2c3b4      0x158 Srv/SysResource/src/libSys.a(SysP2P.o)
                0x0000000000f2c3b4                SysGetP2PMsg

.text.SysGetP2PMsgLen
                0x0000000000f2c50c      0x108
 .text.SysGetP2PMsgLen
                0x0000000000f2c50c      0x108 Srv/SysResource/src/libSys.a(SysP2P.o)
                0x0000000000f2c50c                SysGetP2PMsgLen

.text.SysSetP2PMsg
                0x0000000000f2c614      0x154
 .text.SysSetP2PMsg
                0x0000000000f2c614      0x154 Srv/SysResource/src/libSys.a(SysP2P.o)
                0x0000000000f2c614                SysSetP2PMsg

.text.SysRTDataInit
                0x0000000000f2c768       0x60
 .text.SysRTDataInit
                0x0000000000f2c768       0x60 Srv/SysResource/src/libSys.a(SysRTData.o)
                0x0000000000f2c768                SysRTDataInit

.text.SysReadRTData
                0x0000000000f2c7c8      0x56c
 .text.SysReadRTData
                0x0000000000f2c7c8      0x56c Srv/SysResource/src/libSys.a(SysRTData.o)
                0x0000000000f2c7c8                SysReadRTData

.text.SysReadRTDataReset
                0x0000000000f2cd34      0x3d0
 .text.SysReadRTDataReset
                0x0000000000f2cd34      0x3d0 Srv/SysResource/src/libSys.a(SysRTData.o)
                0x0000000000f2cd34                SysReadRTDataReset

.text.SysGetRTDataReadOffset
                0x0000000000f2d104       0xe8
 .text.SysGetRTDataReadOffset
                0x0000000000f2d104       0xe8 Srv/SysResource/src/libSys.a(SysRTData.o)
                0x0000000000f2d104                SysGetRTDataReadOffset

.text.SysGetRTDataAreaLen
                0x0000000000f2d1ec       0xdc
 .text.SysGetRTDataAreaLen
                0x0000000000f2d1ec       0xdc Srv/SysResource/src/libSys.a(SysRTData.o)
                0x0000000000f2d1ec                SysGetRTDataAreaLen

.text.SysGetRTDataReadFlag
                0x0000000000f2d2c8       0xd8
 .text.SysGetRTDataReadFlag
                0x0000000000f2d2c8       0xd8 Srv/SysResource/src/libSys.a(SysRTData.o)
                0x0000000000f2d2c8                SysGetRTDataReadFlag

.text.SysCopySharedRtDataToCore1RtData
                0x0000000000f2d3a0     0x1048
 .text.SysCopySharedRtDataToCore1RtData
                0x0000000000f2d3a0     0x1048 Srv/SysResource/src/libSys.a(SysRTData.o)
                0x0000000000f2d3a0                SysCopySharedRtDataToCore1RtData

.text.SysSetCopyRtDataFinished
                0x0000000000f2e3e8       0x44
 .text.SysSetCopyRtDataFinished
                0x0000000000f2e3e8       0x44 Srv/SysResource/src/libSys.a(SysRTData.o)
                0x0000000000f2e3e8                SysSetCopyRtDataFinished

.text.SysSetRtDataAreaWriteOnly
                0x0000000000f2e42c       0x2c
 .text.SysSetRtDataAreaWriteOnly
                0x0000000000f2e42c       0x2c Srv/SysResource/src/libSys.a(SysRTData.o)
                0x0000000000f2e42c                SysSetRtDataAreaWriteOnly

.text.SysSwitchPosInit
                0x0000000000f2e458       0x34
 .text.SysSwitchPosInit
                0x0000000000f2e458       0x34 Srv/SysResource/src/libSys.a(SysMonitor.o)
                0x0000000000f2e458                SysSwitchPosInit

.text.SysTemperatureInit
                0x0000000000f2e48c       0x2c
 .text.SysTemperatureInit
                0x0000000000f2e48c       0x2c Srv/SysResource/src/libSys.a(SysMonitor.o)
                0x0000000000f2e48c                SysTemperatureInit

.text.SysSupplyAlarmBitInit
                0x0000000000f2e4b8       0x50
 .text.SysSupplyAlarmBitInit
                0x0000000000f2e4b8       0x50 Srv/SysResource/src/libSys.a(SysMonitor.o)
                0x0000000000f2e4b8                SysSupplyAlarmBitInit

.text.SysPMHardStatusInit
                0x0000000000f2e508       0x40
 .text.SysPMHardStatusInit
                0x0000000000f2e508       0x40 Srv/SysResource/src/libSys.a(SysMonitor.o)
                0x0000000000f2e508                SysPMHardStatusInit

.text.SysReadSwitchPos
                0x0000000000f2e548       0x48
 .text.SysReadSwitchPos
                0x0000000000f2e548       0x48 Srv/SysResource/src/libSys.a(SysMonitor.o)
                0x0000000000f2e548                SysReadSwitchPos

.text.SysReadTemperature
                0x0000000000f2e590      0x148
 .text.SysReadTemperature
                0x0000000000f2e590      0x148 Srv/SysResource/src/libSys.a(SysMonitor.o)
                0x0000000000f2e590                SysReadTemperature

.text.SysReadSupplyAlarmBit
                0x0000000000f2e6d8      0x120
 .text.SysReadSupplyAlarmBit
                0x0000000000f2e6d8      0x120 Srv/SysResource/src/libSys.a(SysMonitor.o)
                0x0000000000f2e6d8                SysReadSupplyAlarmBit

.text.SysReadMCUStat
                0x0000000000f2e7f8       0x9c
 .text.SysReadMCUStat
                0x0000000000f2e7f8       0x9c Srv/SysResource/src/libSys.a(SysMonitor.o)
                0x0000000000f2e7f8                SysReadMCUStat

.text.SysReadPPMStat
                0x0000000000f2e894       0x9c
 .text.SysReadPPMStat
                0x0000000000f2e894       0x9c Srv/SysResource/src/libSys.a(SysMonitor.o)
                0x0000000000f2e894                SysReadPPMStat

.text.SysReadPMHardStatus
                0x0000000000f2e930       0xf4
 .text.SysReadPMHardStatus
                0x0000000000f2e930       0xf4 Srv/SysResource/src/libSys.a(SysMonitor.o)
                0x0000000000f2e930                SysReadPMHardStatus

.text.SysSyncInit
                0x0000000000f2ea24       0xac
 .text.SysSyncInit
                0x0000000000f2ea24       0xac Srv/SysResource/src/libSys.a(SysSync.o)
                0x0000000000f2ea24                SysSyncInit

.text.SysGetSyncSrvQueue
                0x0000000000f2ead0       0x30
 .text.SysGetSyncSrvQueue
                0x0000000000f2ead0       0x30 Srv/SysResource/src/libSys.a(SysSync.o)
                0x0000000000f2ead0                SysGetSyncSrvQueue

.text.SysSyncSrvQueueExist
                0x0000000000f2eb00      0x178
 .text.SysSyncSrvQueueExist
                0x0000000000f2eb00      0x178 Srv/SysResource/src/libSys.a(SysSync.o)
                0x0000000000f2eb00                SysSyncSrvQueueExist

.text.SysSyncSrvQueueEmpty
                0x0000000000f2ec78       0x7c
 .text.SysSyncSrvQueueEmpty
                0x0000000000f2ec78       0x7c Srv/SysResource/src/libSys.a(SysSync.o)
                0x0000000000f2ec78                SysSyncSrvQueueEmpty

.text.SysSyncSrvQueueFront
                0x0000000000f2ecf4       0xa8
 .text.SysSyncSrvQueueFront
                0x0000000000f2ecf4       0xa8 Srv/SysResource/src/libSys.a(SysSync.o)
                0x0000000000f2ecf4                SysSyncSrvQueueFront

.text.SysDeSyncSrvQueue
                0x0000000000f2ed9c      0x15c
 .text.SysDeSyncSrvQueue
                0x0000000000f2ed9c      0x15c Srv/SysResource/src/libSys.a(SysSync.o)
                0x0000000000f2ed9c                SysDeSyncSrvQueue

.text.SysSyncSrvQueueFull
                0x0000000000f2eef8       0x7c
 .text.SysSyncSrvQueueFull
                0x0000000000f2eef8       0x7c Srv/SysResource/src/libSys.a(SysSync.o)
                0x0000000000f2eef8                SysSyncSrvQueueFull

.text.SysEnSyncSrvQueue
                0x0000000000f2ef74      0x1ac
 .text.SysEnSyncSrvQueue
                0x0000000000f2ef74      0x1ac Srv/SysResource/src/libSys.a(SysSync.o)
                0x0000000000f2ef74                SysEnSyncSrvQueue

.text.SysSyncSrvQueueUpdate
                0x0000000000f2f120      0x148
 .text.SysSyncSrvQueueUpdate
                0x0000000000f2f120      0x148 Srv/SysResource/src/libSys.a(SysSync.o)
                0x0000000000f2f120                SysSyncSrvQueueUpdate

.text.SysSyncSrvQueueWait
                0x0000000000f2f268      0x148
 .text.SysSyncSrvQueueWait
                0x0000000000f2f268      0x148 Srv/SysResource/src/libSys.a(SysSync.o)
                0x0000000000f2f268                SysSyncSrvQueueWait

.text.SysClearSyncSrvQueue
                0x0000000000f2f3b0      0x30c
 .text.SysClearSyncSrvQueue
                0x0000000000f2f3b0      0x30c Srv/SysResource/src/libSys.a(SysSync.o)
                0x0000000000f2f3b0                SysClearSyncSrvQueue

.text.SysGetSyncPrjQueue
                0x0000000000f2f6bc       0x30
 .text.SysGetSyncPrjQueue
                0x0000000000f2f6bc       0x30 Srv/SysResource/src/libSys.a(SysSync.o)
                0x0000000000f2f6bc                SysGetSyncPrjQueue

.text.SysSyncPrjQueueExist
                0x0000000000f2f6ec      0x130
 .text.SysSyncPrjQueueExist
                0x0000000000f2f6ec      0x130 Srv/SysResource/src/libSys.a(SysSync.o)
                0x0000000000f2f6ec                SysSyncPrjQueueExist

.text.SysSyncPrjQueueEmpty
                0x0000000000f2f81c       0x7c
 .text.SysSyncPrjQueueEmpty
                0x0000000000f2f81c       0x7c Srv/SysResource/src/libSys.a(SysSync.o)
                0x0000000000f2f81c                SysSyncPrjQueueEmpty

.text.SysSyncPrjQueueFront
                0x0000000000f2f898      0x16c
 .text.SysSyncPrjQueueFront
                0x0000000000f2f898      0x16c Srv/SysResource/src/libSys.a(SysSync.o)
                0x0000000000f2f898                SysSyncPrjQueueFront

.text.SysDeSyncPrjQueue
                0x0000000000f2fa04      0x11c
 .text.SysDeSyncPrjQueue
                0x0000000000f2fa04      0x11c Srv/SysResource/src/libSys.a(SysSync.o)
                0x0000000000f2fa04                SysDeSyncPrjQueue

.text.SysSyncPrjQueueFull
                0x0000000000f2fb20       0x7c
 .text.SysSyncPrjQueueFull
                0x0000000000f2fb20       0x7c Srv/SysResource/src/libSys.a(SysSync.o)
                0x0000000000f2fb20                SysSyncPrjQueueFull

.text.SysEnSyncPrjQueue
                0x0000000000f2fb9c      0x200
 .text.SysEnSyncPrjQueue
                0x0000000000f2fb9c      0x200 Srv/SysResource/src/libSys.a(SysSync.o)
                0x0000000000f2fb9c                SysEnSyncPrjQueue

.text.SysSyncPrjQueueUpdate
                0x0000000000f2fd9c      0x148
 .text.SysSyncPrjQueueUpdate
                0x0000000000f2fd9c      0x148 Srv/SysResource/src/libSys.a(SysSync.o)
                0x0000000000f2fd9c                SysSyncPrjQueueUpdate

.text.SysSyncPrjQueueWait
                0x0000000000f2fee4      0x148
 .text.SysSyncPrjQueueWait
                0x0000000000f2fee4      0x148 Srv/SysResource/src/libSys.a(SysSync.o)
                0x0000000000f2fee4                SysSyncPrjQueueWait

.text.SysClearSyncPrjQueue
                0x0000000000f3002c       0x60
 .text.SysClearSyncPrjQueue
                0x0000000000f3002c       0x60 Srv/SysResource/src/libSys.a(SysSync.o)
                0x0000000000f3002c                SysClearSyncPrjQueue

.text.SysDiffSyncTime
                0x0000000000f3008c      0x154
 .text.SysDiffSyncTime
                0x0000000000f3008c      0x154 Srv/SysResource/src/libSys.a(SysSync.o)
                0x0000000000f3008c                SysDiffSyncTime

.text.SysGetSyncDataInit
                0x0000000000f301e0       0x38
 .text.SysGetSyncDataInit
                0x0000000000f301e0       0x38 Srv/SysResource/src/libSys.a(SysSync.o)
                0x0000000000f301e0                SysGetSyncDataInit

.text.SysSetSyncDataInit
                0x0000000000f30218       0x30
 .text.SysSetSyncDataInit
                0x0000000000f30218       0x30 Srv/SysResource/src/libSys.a(SysSync.o)
                0x0000000000f30218                SysSetSyncDataInit

.text.SysGetTimerStatus
                0x0000000000f30248      0x100
 .text.SysGetTimerStatus
                0x0000000000f30248      0x100 Srv/SysResource/src/libSys.a(SysSync.o)
                0x0000000000f30248                SysGetTimerStatus

.text.SysCalRelativeTime
                0x0000000000f30348      0x170
 .text.SysCalRelativeTime
                0x0000000000f30348      0x170 Srv/SysResource/src/libSys.a(SysSync.o)
                0x0000000000f30348                SysCalRelativeTime

.text.SysGetSrvInfo
                0x0000000000f304b8       0x78
 .text.SysGetSrvInfo
                0x0000000000f304b8       0x78 Srv/SysResource/src/libSys.a(SysSync.o)
                0x0000000000f304b8                SysGetSrvInfo

.text.SysGetCtrlSrvInfo
                0x0000000000f30530       0x54
 .text.SysGetCtrlSrvInfo
                0x0000000000f30530       0x54 Srv/SysResource/src/libSys.a(SysSync.o)
                0x0000000000f30530                SysGetCtrlSrvInfo

.text.SysStateMngtInit
                0x0000000000f30584       0x6c
 .text.SysStateMngtInit
                0x0000000000f30584       0x6c Srv/SysResource/src/libSys.a(SysStateMngt.o)
                0x0000000000f30584                SysStateMngtInit

.text.SysSetAjustTimerEn
                0x0000000000f305f0       0xc4
 .text.SysSetAjustTimerEn
                0x0000000000f305f0       0xc4 Srv/SysResource/src/libSys.a(SysStateMngt.o)
                0x0000000000f305f0                SysSetAjustTimerEn

.text.SysGetAjustTimerEn
                0x0000000000f306b4       0xa0
 .text.SysGetAjustTimerEn
                0x0000000000f306b4       0xa0 Srv/SysResource/src/libSys.a(SysStateMngt.o)
                0x0000000000f306b4                SysGetAjustTimerEn

.text.SysGetPMStateInfo
                0x0000000000f30754       0x54
 .text.SysGetPMStateInfo
                0x0000000000f30754       0x54 Srv/SysResource/src/libSys.a(SysStateMngt.o)
                0x0000000000f30754                SysGetPMStateInfo

.text.SysGetPrjInfo
                0x0000000000f307a8       0x5c
 .text.SysGetPrjInfo
                0x0000000000f307a8       0x5c Srv/SysResource/src/libSys.a(SysStateMngt.o)
                0x0000000000f307a8                SysGetPrjInfo

.text.SysGetDownLoadPrjInfo
                0x0000000000f30804       0x5c
 .text.SysGetDownLoadPrjInfo
                0x0000000000f30804       0x5c Srv/SysResource/src/libSys.a(SysStateMngt.o)
                0x0000000000f30804                SysGetDownLoadPrjInfo

.text.SysSetState
                0x0000000000f30860       0x48
 .text.SysSetState
                0x0000000000f30860       0x48 Srv/SysResource/src/libSys.a(SysStateMngt.o)
                0x0000000000f30860                SysSetState

.text.SysConfigModDownLoadVernInit
                0x0000000000f308a8       0x40
 .text.SysConfigModDownLoadVernInit
                0x0000000000f308a8       0x40 Srv/SysResource/src/libSys.a(SysPMConfig.o)
                0x0000000000f308a8                SysConfigModDownLoadVernInit

.text.SysConfigGetModDownLoadVern
                0x0000000000f308e8       0x60
 .text.SysConfigGetModDownLoadVern
                0x0000000000f308e8       0x60 Srv/SysResource/src/libSys.a(SysPMConfig.o)
                0x0000000000f308e8                SysConfigGetModDownLoadVern

.text.SysConfigSetModDownLoadVern
                0x0000000000f30948       0x58
 .text.SysConfigSetModDownLoadVern
                0x0000000000f30948       0x58 Srv/SysResource/src/libSys.a(SysPMConfig.o)
                0x0000000000f30948                SysConfigSetModDownLoadVern

.text.copy_to_cmbuf
                0x0000000000f309a0       0xbc
 .text.copy_to_cmbuf
                0x0000000000f309a0       0xbc /vagrant/workspace/PM_FW_COMMON/Srv/Scheduler/lib/CORE1/cagOsCORE1-0.a(cmbus.o)
                0x0000000000f309a0                copy_to_cmbuf

.text.enable_cm_send
                0x0000000000f30a5c       0x84
 .text.enable_cm_send
                0x0000000000f30a5c       0x84 /vagrant/workspace/PM_FW_COMMON/Srv/Scheduler/lib/CORE1/cagOsCORE1-0.a(cmbus.o)
                0x0000000000f30a5c                enable_cm_send

.text.check_cm_send
                0x0000000000f30ae0       0x54
 .text.check_cm_send
                0x0000000000f30ae0       0x54 /vagrant/workspace/PM_FW_COMMON/Srv/Scheduler/lib/CORE1/cagOsCORE1-0.a(cmbus.o)
                0x0000000000f30ae0                check_cm_send

.text.check_cm_recv
                0x0000000000f30b34       0xe4
 .text.check_cm_recv
                0x0000000000f30b34       0xe4 /vagrant/workspace/PM_FW_COMMON/Srv/Scheduler/lib/CORE1/cagOsCORE1-0.a(cmbus.o)
                0x0000000000f30b34                check_cm_recv

.text.copy_from_cmbuf
                0x0000000000f30c18       0x98
 .text.copy_from_cmbuf
                0x0000000000f30c18       0x98 /vagrant/workspace/PM_FW_COMMON/Srv/Scheduler/lib/CORE1/cagOsCORE1-0.a(cmbus.o)
                0x0000000000f30c18                copy_from_cmbuf

.text.ipbus_write
                0x0000000000f30cb0      0x170
 .text.ipbus_write
                0x0000000000f30cb0      0x170 /vagrant/workspace/PM_FW_COMMON/Srv/Scheduler/lib/CORE1/cagOsCORE1-0.a(ipbus.o)
                0x0000000000f30cb0                ipbus_write

.text.ipbus_read
                0x0000000000f30e20      0x130
 .text.ipbus_read
                0x0000000000f30e20      0x130 /vagrant/workspace/PM_FW_COMMON/Srv/Scheduler/lib/CORE1/cagOsCORE1-0.a(ipbus.o)
                0x0000000000f30e20                ipbus_read

.text.pcie_read
                0x0000000000f30f50       0x50
 .text.pcie_read
                0x0000000000f30f50       0x50 /vagrant/workspace/PM_FW_COMMON/Srv/Scheduler/lib/CORE1/cagOsCORE1-0.a(pcie.o)
                0x0000000000f30f50                pcie_read

.text.pcie_write
                0x0000000000f30fa0       0x50
 .text.pcie_write
                0x0000000000f30fa0       0x50 /vagrant/workspace/PM_FW_COMMON/Srv/Scheduler/lib/CORE1/cagOsCORE1-0.a(pcie.o)
                0x0000000000f30fa0                pcie_write

.text.set_pm_slot
                0x0000000000f30ff0       0xdc
 .text.set_pm_slot
                0x0000000000f30ff0       0xdc /vagrant/workspace/PM_FW_COMMON/Srv/Scheduler/lib/CORE1/cagOsCORE1-0.a(pmbus.o)
                0x0000000000f30ff0                set_pm_slot

.text.copy_to_pmbuf
                0x0000000000f310cc      0x15c
 .text.copy_to_pmbuf
                0x0000000000f310cc      0x15c /vagrant/workspace/PM_FW_COMMON/Srv/Scheduler/lib/CORE1/cagOsCORE1-0.a(pmbus.o)
                0x0000000000f310cc                copy_to_pmbuf

.text.copy_from_pmbuf
                0x0000000000f31228      0x238
 .text.copy_from_pmbuf
                0x0000000000f31228      0x238 /vagrant/workspace/PM_FW_COMMON/Srv/Scheduler/lib/CORE1/cagOsCORE1-0.a(pmbus.o)
                0x0000000000f31228                copy_from_pmbuf

.text.clear_precvstat_status
                0x0000000000f31460       0x68
 .text.clear_precvstat_status
                0x0000000000f31460       0x68 /vagrant/workspace/PM_FW_COMMON/Srv/Scheduler/lib/CORE1/cagOsCORE1-0.a(pmbus.o)
                0x0000000000f31460                clear_precvstat_status

.text.clear_precvdata_status
                0x0000000000f314c8       0x68
 .text.clear_precvdata_status
                0x0000000000f314c8       0x68 /vagrant/workspace/PM_FW_COMMON/Srv/Scheduler/lib/CORE1/cagOsCORE1-0.a(pmbus.o)
                0x0000000000f314c8                clear_precvdata_status

.text.enable_pm_send
                0x0000000000f31530      0x158
 .text.enable_pm_send
                0x0000000000f31530      0x158 /vagrant/workspace/PM_FW_COMMON/Srv/Scheduler/lib/CORE1/cagOsCORE1-0.a(pmbus.o)
                0x0000000000f31530                enable_pm_send

.text.check_pm_recv
                0x0000000000f31688      0x250
 .text.check_pm_recv
                0x0000000000f31688      0x250 /vagrant/workspace/PM_FW_COMMON/Srv/Scheduler/lib/CORE1/cagOsCORE1-0.a(pmbus.o)
                0x0000000000f31688                check_pm_recv

.text.check_pm_send
                0x0000000000f318d8      0x120
 .text.check_pm_send
                0x0000000000f318d8      0x120 /vagrant/workspace/PM_FW_COMMON/Srv/Scheduler/lib/CORE1/cagOsCORE1-0.a(pmbus.o)
                0x0000000000f318d8                check_pm_send

.text.SharedSetTask0RetainData
                0x0000000000f319f8      0x11c
 .text.SharedSetTask0RetainData
                0x0000000000f319f8      0x11c /vagrant/workspace/PM_FW_COMMON/Srv/SharedMem/src/libSharedMem.a(SharedRetain.o)
                0x0000000000f319f8                SharedSetTask0RetainData

.text.SharedSetTask1RetainData
                0x0000000000f31b14      0x120
 .text.SharedSetTask1RetainData
                0x0000000000f31b14      0x120 /vagrant/workspace/PM_FW_COMMON/Srv/SharedMem/src/libSharedMem.a(SharedRetain.o)
                0x0000000000f31b14                SharedSetTask1RetainData

.text.SharedSetDisableTabl
                0x0000000000f31c34      0x120
 .text.SharedSetDisableTabl
                0x0000000000f31c34      0x120 /vagrant/workspace/PM_FW_COMMON/Srv/SharedMem/src/libSharedMem.a(SharedRetain.o)
                0x0000000000f31c34                SharedSetDisableTabl

.text.SharedGetDisableTabl
                0x0000000000f31d54       0xb0
 .text.SharedGetDisableTabl
                0x0000000000f31d54       0xb0 /vagrant/workspace/PM_FW_COMMON/Srv/SharedMem/src/libSharedMem.a(SharedRetain.o)
                0x0000000000f31d54                SharedGetDisableTabl

.text.SharedSetInputModuleVar
                0x0000000000f31e04      0x160
 .text.SharedSetInputModuleVar
                0x0000000000f31e04      0x160 /vagrant/workspace/PM_FW_COMMON/Srv/SharedMem/src/libSharedMem.a(SharedRetain.o)
                0x0000000000f31e04                SharedSetInputModuleVar

.text.SysCrc32Cal
                0x0000000000f31f64       0xc4
 .text.SysCrc32Cal
                0x0000000000f31f64       0xc4 /vagrant/workspace/PM_FW_COMMON/Srv/Algrithm/src/libAlgrithm.a(Algrithm.o)
                0x0000000000f31f64                SysCrc32Cal

.text.SysCrc16Cal
                0x0000000000f32028       0xfc
 .text.SysCrc16Cal
                0x0000000000f32028       0xfc /vagrant/workspace/PM_FW_COMMON/Srv/Algrithm/src/libAlgrithm.a(Algrithm.o)
                0x0000000000f32028                SysCrc16Cal

.text.BoardDiagErrHandle
                0x0000000000f32124      0x104
 .text.BoardDiagErrHandle
                0x0000000000f32124      0x104 /vagrant/workspace/PM_FW_COMMON/Srv/Diag/src/libCDiag.a(DiagCommon.o)
                0x0000000000f32124                BoardDiagErrHandle

.text.BoardDiagHandleErr_Fatal
                0x0000000000f32228       0x64
 .text.BoardDiagHandleErr_Fatal
                0x0000000000f32228       0x64 /vagrant/workspace/PM_FW_COMMON/Srv/Diag/src/libCDiag.a(DiagCommon.o)
                0x0000000000f32228                BoardDiagHandleErr_Fatal

.text.DiagCommGetDiagCtrlInfo
                0x0000000000f3228c       0x28
 .text.DiagCommGetDiagCtrlInfo
                0x0000000000f3228c       0x28 /vagrant/workspace/PM_FW_COMMON/Srv/Diag/src/libCDiag.a(DiagCommon.o)
                0x0000000000f3228c                DiagCommGetDiagCtrlInfo

.text.DiagCommGetExcptCtrlInfo
                0x0000000000f322b4       0x28
 .text.DiagCommGetExcptCtrlInfo
                0x0000000000f322b4       0x28 /vagrant/workspace/PM_FW_COMMON/Srv/Diag/src/libCDiag.a(DiagCommon.o)
                0x0000000000f322b4                DiagCommGetExcptCtrlInfo

.text.DiagCommCheckRunSeq
                0x0000000000f322dc      0x120
 .text.DiagCommCheckRunSeq
                0x0000000000f322dc      0x120 /vagrant/workspace/PM_FW_COMMON/Srv/Diag/src/libCDiag.a(DiagCommon.o)
                0x0000000000f322dc                DiagCommCheckRunSeq

.text.DiagCommPrintDiagVec
                0x0000000000f323fc       0xe4
 .text.DiagCommPrintDiagVec
                0x0000000000f323fc       0xe4 /vagrant/workspace/PM_FW_COMMON/Srv/Diag/src/libCDiag.a(DiagCommon.o)
                0x0000000000f323fc                DiagCommPrintDiagVec

.text.DiagCommPrintExcptInfo
                0x0000000000f324e0       0x24
 .text.DiagCommPrintExcptInfo
                0x0000000000f324e0       0x24 /vagrant/workspace/PM_FW_COMMON/Srv/Diag/src/libCDiag.a(DiagCommon.o)
                0x0000000000f324e0                DiagCommPrintExcptInfo

.text.DiagCommSetCore1FailFlag
                0x0000000000f32504       0x44
 .text.DiagCommSetCore1FailFlag
                0x0000000000f32504       0x44 /vagrant/workspace/PM_FW_COMMON/Srv/Diag/src/libCDiag.a(DiagCommon.o)
                0x0000000000f32504                DiagCommSetCore1FailFlag

.text.DiagCommGetCore0FailFlag
                0x0000000000f32548       0x50
 .text.DiagCommGetCore0FailFlag
                0x0000000000f32548       0x50 /vagrant/workspace/PM_FW_COMMON/Srv/Diag/src/libCDiag.a(DiagCommon.o)
                0x0000000000f32548                DiagCommGetCore0FailFlag

.text.DiagCommGetCore1FailFlag
                0x0000000000f32598       0x50
 .text.DiagCommGetCore1FailFlag
                0x0000000000f32598       0x50 /vagrant/workspace/PM_FW_COMMON/Srv/Diag/src/libCDiag.a(DiagCommon.o)
                0x0000000000f32598                DiagCommGetCore1FailFlag

.text.Core1DiagInit
                0x0000000000f325e8       0xc4
 .text.Core1DiagInit
                0x0000000000f325e8       0xc4 /vagrant/workspace/PM_FW_COMMON/Srv/Diag/src/libCDiag.a(BoardDiag.o)
                0x0000000000f325e8                Core1DiagInit

.text.Core1DiagPowerOn
                0x0000000000f326ac       0x48
 .text.Core1DiagPowerOn
                0x0000000000f326ac       0x48 /vagrant/workspace/PM_FW_COMMON/Srv/Diag/src/libCDiag.a(BoardDiag.o)
                0x0000000000f326ac                Core1DiagPowerOn

.text.Core1DiagCycle
                0x0000000000f326f4       0x68
 .text.Core1DiagCycle
                0x0000000000f326f4       0x68 /vagrant/workspace/PM_FW_COMMON/Srv/Diag/src/libCDiag.a(BoardDiag.o)
                0x0000000000f326f4                Core1DiagCycle

.text.BoardDiagMngt
                0x0000000000f3275c      0x28c
 .text.BoardDiagMngt
                0x0000000000f3275c      0x28c /vagrant/workspace/PM_FW_COMMON/Srv/Diag/src/libCDiag.a(BoardDiag.o)
                0x0000000000f3275c                BoardDiagMngt

.text.BoardDiagCycleEnable
                0x0000000000f329e8       0x68
 .text.BoardDiagCycleEnable
                0x0000000000f329e8       0x68 /vagrant/workspace/PM_FW_COMMON/Srv/Diag/src/libCDiag.a(BoardDiag.o)
                0x0000000000f329e8                BoardDiagCycleEnable

.text.BoardDiagGetDiagDone
                0x0000000000f32a50       0x54
 .text.BoardDiagGetDiagDone
                0x0000000000f32a50       0x54 /vagrant/workspace/PM_FW_COMMON/Srv/Diag/src/libCDiag.a(BoardDiag.o)
                0x0000000000f32a50                BoardDiagGetDiagDone

.text.BoardDiagSetDiagDone
                0x0000000000f32aa4       0x48
 .text.BoardDiagSetDiagDone
                0x0000000000f32aa4       0x48 /vagrant/workspace/PM_FW_COMMON/Srv/Diag/src/libCDiag.a(BoardDiag.o)
                0x0000000000f32aa4                BoardDiagSetDiagDone

.text.BoardDiagClrDiagDone
                0x0000000000f32aec       0x48
 .text.BoardDiagClrDiagDone
                0x0000000000f32aec       0x48 /vagrant/workspace/PM_FW_COMMON/Srv/Diag/src/libCDiag.a(BoardDiag.o)
                0x0000000000f32aec                BoardDiagClrDiagDone

.text.BoardDiagGetDiagEnable
                0x0000000000f32b34       0x54
 .text.BoardDiagGetDiagEnable
                0x0000000000f32b34       0x54 /vagrant/workspace/PM_FW_COMMON/Srv/Diag/src/libCDiag.a(BoardDiag.o)
                0x0000000000f32b34                BoardDiagGetDiagEnable

.text.BoardDiagSetDiagEnable
                0x0000000000f32b88       0x48
 .text.BoardDiagSetDiagEnable
                0x0000000000f32b88       0x48 /vagrant/workspace/PM_FW_COMMON/Srv/Diag/src/libCDiag.a(BoardDiag.o)
                0x0000000000f32b88                BoardDiagSetDiagEnable

.text.BoardDiagClrDiagEnable
                0x0000000000f32bd0       0x48
 .text.BoardDiagClrDiagEnable
                0x0000000000f32bd0       0x48 /vagrant/workspace/PM_FW_COMMON/Srv/Diag/src/libCDiag.a(BoardDiag.o)
                0x0000000000f32bd0                BoardDiagClrDiagEnable

.text.ExceptionTestInit
                0x0000000000f32c18       0x20
 .text.ExceptionTestInit
                0x0000000000f32c18       0x20 /vagrant/workspace/PM_FW_COMMON/Srv/Diag/src/libCDiag.a(ExceptionTest.o)
                0x0000000000f32c18                ExceptionTestInit

.text.ExceptionTestCycle
                0x0000000000f32c38       0x38
 .text.ExceptionTestCycle
                0x0000000000f32c38       0x38 /vagrant/workspace/PM_FW_COMMON/Srv/Diag/src/libCDiag.a(ExceptionTest.o)
                0x0000000000f32c38                ExceptionTestCycle

.text.DataCacheTestInit
                0x0000000000f32c70       0x78
 .text.DataCacheTestInit
                0x0000000000f32c70       0x78 /vagrant/workspace/PM_FW_COMMON/Srv/Diag/src/libCDiag.a(DataCacheTest.o)
                0x0000000000f32c70                DataCacheTestInit

.text.CPUTestInit
                0x0000000000f32ce8       0x20
 .text.CPUTestInit
                0x0000000000f32ce8       0x20 /vagrant/workspace/PM_FW_COMMON/Srv/Diag/src/libCDiag.a(CPUTest.o)
                0x0000000000f32ce8                CPUTestInit

.text.CPUTestCycle
                0x0000000000f32d08      0x214
 .text.CPUTestCycle
                0x0000000000f32d08      0x214 /vagrant/workspace/PM_FW_COMMON/Srv/Diag/src/libCDiag.a(CPUTest.o)
                0x0000000000f32d08                CPUTestCycle

.text.CpuTestPowerOn
                0x0000000000f32f1c      0x108
 .text.CpuTestPowerOn
                0x0000000000f32f1c      0x108 /vagrant/workspace/PM_FW_COMMON/Srv/Diag/src/libCDiag.a(CPUTest.o)
                0x0000000000f32f1c                CpuTestPowerOn

.text.CpuTestLr
                0x0000000000f33024       0xd8
 .text.CpuTestLr
                0x0000000000f33024       0xd8 /vagrant/workspace/PM_FW_COMMON/Srv/Diag/src/libCDiag.a(CPUTest.o)
                0x0000000000f33024                CpuTestLr

.text.CpuTestCr
                0x0000000000f330fc       0xd8
 .text.CpuTestCr
                0x0000000000f330fc       0xd8 /vagrant/workspace/PM_FW_COMMON/Srv/Diag/src/libCDiag.a(CPUTest.o)
                0x0000000000f330fc                CpuTestCr

.text.CpuTestGprInterWord
                0x0000000000f331d4       0xd8
 .text.CpuTestGprInterWord
                0x0000000000f331d4       0xd8 /vagrant/workspace/PM_FW_COMMON/Srv/Diag/src/libCDiag.a(CPUTest.o)
                0x0000000000f331d4                CpuTestGprInterWord

.text.CpuTestGprIntraWord
                0x0000000000f332ac       0xd8
 .text.CpuTestGprIntraWord
                0x0000000000f332ac       0xd8 /vagrant/workspace/PM_FW_COMMON/Srv/Diag/src/libCDiag.a(CPUTest.o)
                0x0000000000f332ac                CpuTestGprIntraWord

.text.CpuTestSprInterWord
                0x0000000000f33384       0xd8
 .text.CpuTestSprInterWord
                0x0000000000f33384       0xd8 /vagrant/workspace/PM_FW_COMMON/Srv/Diag/src/libCDiag.a(CPUTest.o)
                0x0000000000f33384                CpuTestSprInterWord

.text.CpuTestSprIntraWord
                0x0000000000f3345c       0xd8
 .text.CpuTestSprIntraWord
                0x0000000000f3345c       0xd8 /vagrant/workspace/PM_FW_COMMON/Srv/Diag/src/libCDiag.a(CPUTest.o)
                0x0000000000f3345c                CpuTestSprIntraWord

.text.CpuTestSprg
                0x0000000000f33534       0xd8
 .text.CpuTestSprg
                0x0000000000f33534       0xd8 /vagrant/workspace/PM_FW_COMMON/Srv/Diag/src/libCDiag.a(CPUTest.o)
                0x0000000000f33534                CpuTestSprg

.text.CpuTestConBranchInst
                0x0000000000f3360c      0x15c
 .text.CpuTestConBranchInst
                0x0000000000f3360c      0x15c /vagrant/workspace/PM_FW_COMMON/Srv/Diag/src/libCDiag.a(CPUTest.o)
                0x0000000000f3360c                CpuTestConBranchInst

.text.CpuTestUnConBranchInst
                0x0000000000f33768      0x11c
 .text.CpuTestUnConBranchInst
                0x0000000000f33768      0x11c /vagrant/workspace/PM_FW_COMMON/Srv/Diag/src/libCDiag.a(CPUTest.o)
                0x0000000000f33768                CpuTestUnConBranchInst

.text.CpuTestIu
                0x0000000000f33884      0x11c
 .text.CpuTestIu
                0x0000000000f33884      0x11c /vagrant/workspace/PM_FW_COMMON/Srv/Diag/src/libCDiag.a(CPUTest.o)
                0x0000000000f33884                CpuTestIu

.text.CpuTestPipeLine
                0x0000000000f339a0       0xd8
 .text.CpuTestPipeLine
                0x0000000000f339a0       0xd8 /vagrant/workspace/PM_FW_COMMON/Srv/Diag/src/libCDiag.a(CPUTest.o)
                0x0000000000f339a0                CpuTestPipeLine

.text.CpuTestLsu
                0x0000000000f33a78      0x15c
 .text.CpuTestLsu
                0x0000000000f33a78      0x15c /vagrant/workspace/PM_FW_COMMON/Srv/Diag/src/libCDiag.a(CPUTest.o)
                0x0000000000f33a78                CpuTestLsu

.text.CpuTestCriSpr
                0x0000000000f33bd4       0x94
 .text.CpuTestCriSpr
                0x0000000000f33bd4       0x94 /vagrant/workspace/PM_FW_COMMON/Srv/Diag/src/libCDiag.a(CPUTest.o)
                0x0000000000f33bd4                CpuTestCriSpr

.text.CpuTestDataCache
                0x0000000000f33c68      0x254
 .text.CpuTestDataCache
                0x0000000000f33c68      0x254 /vagrant/workspace/PM_FW_COMMON/Srv/Diag/src/libCDiag.a(CPUTest.o)
                0x0000000000f33c68                CpuTestDataCache

.text.CpuTestDDRDataLine
                0x0000000000f33ebc      0x204
 .text.CpuTestDDRDataLine
                0x0000000000f33ebc      0x204 /vagrant/workspace/PM_FW_COMMON/Srv/Diag/src/libCDiag.a(CPUTest.o)
                0x0000000000f33ebc                CpuTestDDRDataLine

.text.ResetTestBit
                0x0000000000f340c0       0x50
 .text.ResetTestBit
                0x0000000000f340c0       0x50 /vagrant/workspace/PM_FW_COMMON/Srv/Diag/src/libCDiag.a(CPUTest.o)
                0x0000000000f340c0                ResetTestBit

.text.CheckAddressDataCache
                0x0000000000f34110      0x110
 .text.CheckAddressDataCache
                0x0000000000f34110      0x110 /vagrant/workspace/PM_FW_COMMON/Srv/Diag/src/libCDiag.a(CPUTest.o)
                0x0000000000f34110                CheckAddressDataCache

.text.CodeTestInit
                0x0000000000f34220       0x20
 .text.CodeTestInit
                0x0000000000f34220       0x20 /vagrant/workspace/PM_FW_COMMON/Srv/Diag/src/libCDiag.a(CodeTest.o)
                0x0000000000f34220                CodeTestInit

.text.CodeTestCycle
                0x0000000000f34240      0x51c
 .text.CodeTestCycle
                0x0000000000f34240      0x51c /vagrant/workspace/PM_FW_COMMON/Srv/Diag/src/libCDiag.a(CodeTest.o)
                0x0000000000f34240                CodeTestCycle

.text.SysGetCurExeIndex
                0x0000000000f3475c       0x38
 .text.SysGetCurExeIndex
                0x0000000000f3475c       0x38 /vagrant/workspace/PM_FW_COMMON/Srv/Diag/src/libCDiag.a(SysTest.o)
                0x0000000000f3475c                SysGetCurExeIndex

.text.RamTestInit
                0x0000000000f34794      0x264
 .text.RamTestInit
                0x0000000000f34794      0x264 /vagrant/workspace/PM_FW_COMMON/Srv/Diag/src/libCDiag.a(RamTest.o)
                0x0000000000f34794                RamTestInit

.text.RamTestCycle
                0x0000000000f349f8      0x140
 .text.RamTestCycle
                0x0000000000f349f8      0x140 /vagrant/workspace/PM_FW_COMMON/Srv/Diag/src/libCDiag.a(RamTest.o)
                0x0000000000f349f8                RamTestCycle

.text.RamTestStart
                0x0000000000f34b38      0x364
 .text.RamTestStart
                0x0000000000f34b38      0x364 /vagrant/workspace/PM_FW_COMMON/Srv/Diag/src/libCDiag.a(RamTest.o)
                0x0000000000f34b38                RamTestStart

.text.RamTestMarchW0
                0x0000000000f34e9c       0xcc
 .text.RamTestMarchW0
                0x0000000000f34e9c       0xcc /vagrant/workspace/PM_FW_COMMON/Srv/Diag/src/libCDiag.a(RamTest.o)
                0x0000000000f34e9c                RamTestMarchW0

.text.RamTestMarchR0W1R1W0R0W1
                0x0000000000f34f68      0x228
 .text.RamTestMarchR0W1R1W0R0W1
                0x0000000000f34f68      0x228 /vagrant/workspace/PM_FW_COMMON/Srv/Diag/src/libCDiag.a(RamTest.o)
                0x0000000000f34f68                RamTestMarchR0W1R1W0R0W1

.text.RamTestMarchR1W0W1
                0x0000000000f35190      0x154
 .text.RamTestMarchR1W0W1
                0x0000000000f35190      0x154 /vagrant/workspace/PM_FW_COMMON/Srv/Diag/src/libCDiag.a(RamTest.o)
                0x0000000000f35190                RamTestMarchR1W0W1

.text.RamTestMarchR1W0W1W0
                0x0000000000f352e4      0x1ac
 .text.RamTestMarchR1W0W1W0
                0x0000000000f352e4      0x1ac /vagrant/workspace/PM_FW_COMMON/Srv/Diag/src/libCDiag.a(RamTest.o)
                0x0000000000f352e4                RamTestMarchR1W0W1W0

.text.RamTestMarchR0W1W0
                0x0000000000f35490      0x160
 .text.RamTestMarchR0W1W0
                0x0000000000f35490      0x160 /vagrant/workspace/PM_FW_COMMON/Srv/Diag/src/libCDiag.a(RamTest.o)
                0x0000000000f35490                RamTestMarchR0W1W0

.text.RamTestGetCurDiagAddr
                0x0000000000f355f0      0x2bc
 .text.RamTestGetCurDiagAddr
                0x0000000000f355f0      0x2bc /vagrant/workspace/PM_FW_COMMON/Srv/Diag/src/libCDiag.a(RamTest.o)
                0x0000000000f355f0                RamTestGetCurDiagAddr

.text.RamTestUpdateCurState
                0x0000000000f358ac      0x12c
 .text.RamTestUpdateCurState
                0x0000000000f358ac      0x12c /vagrant/workspace/PM_FW_COMMON/Srv/Diag/src/libCDiag.a(RamTest.o)
                0x0000000000f358ac                RamTestUpdateCurState

.text.LogInit   0x0000000000f359d8       0x54
 .text.LogInit  0x0000000000f359d8       0x54 /vagrant/workspace/PM_FW_COMMON/Srv/Log/src/libLog.a(Log.o)
                0x0000000000f359d8                LogInit

.text.LogWrite  0x0000000000f35a2c       0xd0
 .text.LogWrite
                0x0000000000f35a2c       0xd0 /vagrant/workspace/PM_FW_COMMON/Srv/Log/src/libLog.a(Log.o)
                0x0000000000f35a2c                LogWrite

.text.LogRead   0x0000000000f35afc      0x10c
 .text.LogRead  0x0000000000f35afc      0x10c /vagrant/workspace/PM_FW_COMMON/Srv/Log/src/libLog.a(Log.o)
                0x0000000000f35afc                LogRead

.text.LogInitCore0
                0x0000000000f35c08      0x248
 .text.LogInitCore0
                0x0000000000f35c08      0x248 /vagrant/workspace/PM_FW_COMMON/Srv/Log/src/libLog.a(LogCore0.o)
                0x0000000000f35c08                LogInitCore0

.text.LogWriteCore0
                0x0000000000f35e50      0x2c4
 .text.LogWriteCore0
                0x0000000000f35e50      0x2c4 /vagrant/workspace/PM_FW_COMMON/Srv/Log/src/libLog.a(LogCore0.o)
                0x0000000000f35e50                LogWriteCore0

.text.LogReadCore0
                0x0000000000f36114      0x320
 .text.LogReadCore0
                0x0000000000f36114      0x320 /vagrant/workspace/PM_FW_COMMON/Srv/Log/src/libLog.a(LogCore0.o)
                0x0000000000f36114                LogReadCore0

.text.WriteQueueInfoToSRAM
                0x0000000000f36434      0x310
 .text.WriteQueueInfoToSRAM
                0x0000000000f36434       0xe0 /vagrant/workspace/PM_FW_COMMON/Srv/Log/src/libLog.a(LogCore0.o)
 .text.WriteQueueInfoToSRAM
                0x0000000000f36514       0xe0 /vagrant/workspace/PM_FW_COMMON/Srv/Log/src/libLog.a(LogCore1.o)
 .text.WriteQueueInfoToSRAM
                0x0000000000f365f4      0x150 /vagrant/workspace/PM_FW_COMMON/Srv/Log/src/libLog.a(LogUser.o)

.text.ReadQueueInfoFromSRAM
                0x0000000000f36744      0x314
 .text.ReadQueueInfoFromSRAM
                0x0000000000f36744       0xe0 /vagrant/workspace/PM_FW_COMMON/Srv/Log/src/libLog.a(LogCore0.o)
 .text.ReadQueueInfoFromSRAM
                0x0000000000f36824       0xe0 /vagrant/workspace/PM_FW_COMMON/Srv/Log/src/libLog.a(LogCore1.o)
 .text.ReadQueueInfoFromSRAM
                0x0000000000f36904      0x154 /vagrant/workspace/PM_FW_COMMON/Srv/Log/src/libLog.a(LogUser.o)

.text.LogInitCore1
                0x0000000000f36a58      0x344
 .text.LogInitCore1
                0x0000000000f36a58      0x344 /vagrant/workspace/PM_FW_COMMON/Srv/Log/src/libLog.a(LogCore1.o)
                0x0000000000f36a58                LogInitCore1

.text.LogWriteCore1
                0x0000000000f36d9c      0x2c4
 .text.LogWriteCore1
                0x0000000000f36d9c      0x2c4 /vagrant/workspace/PM_FW_COMMON/Srv/Log/src/libLog.a(LogCore1.o)
                0x0000000000f36d9c                LogWriteCore1

.text.LogReadCore1
                0x0000000000f37060      0x320
 .text.LogReadCore1
                0x0000000000f37060      0x320 /vagrant/workspace/PM_FW_COMMON/Srv/Log/src/libLog.a(LogCore1.o)
                0x0000000000f37060                LogReadCore1

.text.LogInitUser
                0x0000000000f37380      0x27c
 .text.LogInitUser
                0x0000000000f37380      0x27c /vagrant/workspace/PM_FW_COMMON/Srv/Log/src/libLog.a(LogUser.o)
                0x0000000000f37380                LogInitUser

.text.LogWriteUser
                0x0000000000f375fc      0x2c8
 .text.LogWriteUser
                0x0000000000f375fc      0x2c8 /vagrant/workspace/PM_FW_COMMON/Srv/Log/src/libLog.a(LogUser.o)
                0x0000000000f375fc                LogWriteUser

.text.LogReadUser
                0x0000000000f378c4      0x408
 .text.LogReadUser
                0x0000000000f378c4      0x408 /vagrant/workspace/PM_FW_COMMON/Srv/Log/src/libLog.a(LogUser.o)
                0x0000000000f378c4                LogReadUser

.text.SetLogAlarm
                0x0000000000f37ccc       0x40
 .text.SetLogAlarm
                0x0000000000f37ccc       0x40 /vagrant/workspace/PM_FW_COMMON/Srv/Log/src/libLog.a(LogUser.o)
                0x0000000000f37ccc                SetLogAlarm

.text.ClearLogAlarm
                0x0000000000f37d0c       0x40
 .text.ClearLogAlarm
                0x0000000000f37d0c       0x40 /vagrant/workspace/PM_FW_COMMON/Srv/Log/src/libLog.a(LogUser.o)
                0x0000000000f37d0c                ClearLogAlarm

.text.UpdateLogAlarm
                0x0000000000f37d4c      0x268
 .text.UpdateLogAlarm
                0x0000000000f37d4c      0x268 /vagrant/workspace/PM_FW_COMMON/Srv/Log/src/libLog.a(LogUser.o)

.text.PMBUS_Send
                0x0000000000f37fb4      0x134
 .text.PMBUS_Send
                0x0000000000f37fb4      0x134 /vagrant/workspace/PM_FW_COMMON/Srv/PMBUS/src/libPMBUS.a(PMBUS.o)
                0x0000000000f37fb4                PMBUS_Send

.text.PMBUS_Receive
                0x0000000000f380e8      0x194
 .text.PMBUS_Receive
                0x0000000000f380e8      0x194 /vagrant/workspace/PM_FW_COMMON/Srv/PMBUS/src/libPMBUS.a(PMBUS.o)
                0x0000000000f380e8                PMBUS_Receive

.text.P2PCommInitSend
                0x0000000000f3827c       0xa0
 .text.P2PCommInitSend
                0x0000000000f3827c       0xa0 /vagrant/workspace/PM_FW_COMMON/Srv/SafetyProtocol/src/libSafetyProtocol.a(P2PSafetyComm.o)
                0x0000000000f3827c                P2PCommInitSend

.text.P2PHandleSendReqTO
                0x0000000000f3831c       0x98
 .text.P2PHandleSendReqTO
                0x0000000000f3831c       0x98 /vagrant/workspace/PM_FW_COMMON/Srv/SafetyProtocol/src/libSafetyProtocol.a(P2PSafetyComm.o)
                0x0000000000f3831c                P2PHandleSendReqTO

.text.P2PMakeReq
                0x0000000000f383b4      0x314
 .text.P2PMakeReq
                0x0000000000f383b4      0x314 /vagrant/workspace/PM_FW_COMMON/Srv/SafetyProtocol/src/libSafetyProtocol.a(P2PSafetyComm.o)
                0x0000000000f383b4                P2PMakeReq

.text.P2PHandleRespTO
                0x0000000000f386c8      0x12c
 .text.P2PHandleRespTO
                0x0000000000f386c8      0x12c /vagrant/workspace/PM_FW_COMMON/Srv/SafetyProtocol/src/libSafetyProtocol.a(P2PSafetyComm.o)
                0x0000000000f386c8                P2PHandleRespTO

.text.P2PDecodeResp
                0x0000000000f387f4      0x26c
 .text.P2PDecodeResp
                0x0000000000f387f4      0x26c /vagrant/workspace/PM_FW_COMMON/Srv/SafetyProtocol/src/libSafetyProtocol.a(P2PSafetyComm.o)
                0x0000000000f387f4                P2PDecodeResp

.text.ClearP2PSendInfo
                0x0000000000f38a60       0x5c
 .text.ClearP2PSendInfo
                0x0000000000f38a60       0x5c /vagrant/workspace/PM_FW_COMMON/Srv/SafetyProtocol/src/libSafetyProtocol.a(P2PSafetyComm.o)

.text.ClearRespDecodeResult
                0x0000000000f38abc       0x50
 .text.ClearRespDecodeResult
                0x0000000000f38abc       0x50 /vagrant/workspace/PM_FW_COMMON/Srv/SafetyProtocol/src/libSafetyProtocol.a(P2PSafetyComm.o)

.text.DecodePMResp
                0x0000000000f38b0c      0x510
 .text.DecodePMResp
                0x0000000000f38b0c      0x510 /vagrant/workspace/PM_FW_COMMON/Srv/SafetyProtocol/src/libSafetyProtocol.a(P2PSafetyComm.o)

.text.HandleLocalSendSQ
                0x0000000000f3901c      0x394
 .text.HandleLocalSendSQ
                0x0000000000f3901c      0x394 /vagrant/workspace/PM_FW_COMMON/Srv/SafetyProtocol/src/libSafetyProtocol.a(P2PSafetyComm.o)

.text.UpdateTolInfo
                0x0000000000f393b0       0xa0
 .text.UpdateTolInfo
                0x0000000000f393b0       0xa0 /vagrant/workspace/PM_FW_COMMON/Srv/SafetyProtocol/src/libSafetyProtocol.a(SafetyCommon.o)
                0x0000000000f393b0                UpdateTolInfo

.text.HandleSafetyCommError
                0x0000000000f39450       0xbc
 .text.HandleSafetyCommError
                0x0000000000f39450       0xbc /vagrant/workspace/PM_FW_COMMON/Srv/SafetyProtocol/src/libSafetyProtocol.a(SafetyCommon.o)
                0x0000000000f39450                HandleSafetyCommError

.text.HandleSafetyCommRecover
                0x0000000000f3950c      0x128
 .text.HandleSafetyCommRecover
                0x0000000000f3950c      0x128 /vagrant/workspace/PM_FW_COMMON/Srv/SafetyProtocol/src/libSafetyProtocol.a(SafetyCommon.o)
                0x0000000000f3950c                HandleSafetyCommRecover

.text.CompareData
                0x0000000000f39634       0xc8
 .text.CompareData
                0x0000000000f39634       0xc8 /vagrant/workspace/PM_FW_COMMON/Srv/SafetyProtocol/src/libSafetyProtocol.a(SafetyCommon.o)
                0x0000000000f39634                CompareData

.text.ReverseData
                0x0000000000f396fc       0x9c
 .text.ReverseData
                0x0000000000f396fc       0x9c /vagrant/workspace/PM_FW_COMMON/Srv/SafetyProtocol/src/libSafetyProtocol.a(SafetyCommon.o)
                0x0000000000f396fc                ReverseData

.text.SysGetLocalPMID
                0x0000000000f39798       0x3c
 .text.SysGetLocalPMID
                0x0000000000f39798       0x3c /vagrant/workspace/PM_FW_COMMON/Srv/Sys/src/libSysCommon.a(CommSysCommom.o)
                0x0000000000f39798                SysGetLocalPMID

.text.SysGetNextPMID
                0x0000000000f397d4       0x54
 .text.SysGetNextPMID
                0x0000000000f397d4       0x54 /vagrant/workspace/PM_FW_COMMON/Srv/Sys/src/libSysCommon.a(CommSysCommom.o)
                0x0000000000f397d4                SysGetNextPMID

.text.SysGetPrePMID
                0x0000000000f39828       0x54
 .text.SysGetPrePMID
                0x0000000000f39828       0x54 /vagrant/workspace/PM_FW_COMMON/Srv/Sys/src/libSysCommon.a(CommSysCommom.o)
                0x0000000000f39828                SysGetPrePMID

.text.SysGetCfgFileType
                0x0000000000f3987c       0xf0
 .text.SysGetCfgFileType
                0x0000000000f3987c       0xf0 /vagrant/workspace/PM_FW_COMMON/Srv/Sys/src/libSysCommon.a(CommSysCommom.o)
                0x0000000000f3987c                SysGetCfgFileType

.text.SysGetBin1Num
                0x0000000000f3996c       0x60
 .text.SysGetBin1Num
                0x0000000000f3996c       0x60 /vagrant/workspace/PM_FW_COMMON/Srv/Sys/src/libSysCommon.a(CommSysCommom.o)
                0x0000000000f3996c                SysGetBin1Num

.text.SysCheckCMSlotID
                0x0000000000f399cc      0x108
 .text.SysCheckCMSlotID
                0x0000000000f399cc      0x108 /vagrant/workspace/PM_FW_COMMON/Srv/Sys/src/libSysCommon.a(CommSysConfig.o)
                0x0000000000f399cc                SysCheckCMSlotID

.text.CommSysSyncInit
                0x0000000000f39ad4       0x28
 .text.CommSysSyncInit
                0x0000000000f39ad4       0x28 /vagrant/workspace/PM_FW_COMMON/Srv/Sys/src/libSysCommon.a(CommSysSync.o)
                0x0000000000f39ad4                CommSysSyncInit

.text.SysGetSyncTime
                0x0000000000f39afc      0x134
 .text.SysGetSyncTime
                0x0000000000f39afc      0x134 /vagrant/workspace/PM_FW_COMMON/Srv/Sys/src/libSysCommon.a(CommSysSync.o)
                0x0000000000f39afc                SysGetSyncTime

.text.SysSetSyncTime
                0x0000000000f39c30      0x184
 .text.SysSetSyncTime
                0x0000000000f39c30      0x184 /vagrant/workspace/PM_FW_COMMON/Srv/Sys/src/libSysCommon.a(CommSysSync.o)
                0x0000000000f39c30                SysSetSyncTime

.text.SysGetSyncAjust
                0x0000000000f39db4       0x30
 .text.SysGetSyncAjust
                0x0000000000f39db4       0x30 /vagrant/workspace/PM_FW_COMMON/Srv/Sys/src/libSysCommon.a(CommSysSync.o)
                0x0000000000f39db4                SysGetSyncAjust

.text.SysSetSyncAjust
                0x0000000000f39de4       0x30
 .text.SysSetSyncAjust
                0x0000000000f39de4       0x30 /vagrant/workspace/PM_FW_COMMON/Srv/Sys/src/libSysCommon.a(CommSysSync.o)
                0x0000000000f39de4                SysSetSyncAjust

.text.ShowVersion
                0x0000000000f39e14       0x98
 .text.ShowVersion
                0x0000000000f39e14       0x98 /vagrant/workspace/PM_FW_COMMON/Srv/Ver/src/libVer.a(Ver.o)
                0x0000000000f39e14                ShowVersion

.text.ShowfpgaVer
                0x0000000000f39eac      0x178
 .text.ShowfpgaVer
                0x0000000000f39eac      0x178 /vagrant/workspace/PM_FW_COMMON/Srv/Ver/src/libVer.a(Ver.o)

.text.LEDManagerInit
                0x0000000000f3a024       0x34
 .text.LEDManagerInit
                0x0000000000f3a024       0x34 App/LEDManager/src/libLEDManager.a(LEDManager.o)
                0x0000000000f3a024                LEDManagerInit

.text.LEDManagerCycle
                0x0000000000f3a058       0x34
 .text.LEDManagerCycle
                0x0000000000f3a058       0x34 App/LEDManager/src/libLEDManager.a(LEDManager.o)
                0x0000000000f3a058                LEDManagerCycle

.eh_frame       0x0000000000f3a08c        0x0
 .eh_frame      0x0000000000000000        0x0 ./App/Main/src/RTSTaskExeEntryBin0.o

.rodata.sysStaticTlbDesc
                0x0000000000f3a08c       0xf0
 .rodata.sysStaticTlbDesc
                0x0000000000f3a08c       0xf0 ../PM_FW_COMMON/Srv/Scheduler/lib/CORE1/cagOsCORE1-0.a(sysCpuLib.o)
                0x0000000000f3a08c                sysStaticTlbDesc

.rodata         0x0000000000f3a17c     0x4504
 .rodata        0x0000000000f3a17c       0xfb ../PM_FW_COMMON/Srv/Scheduler/lib/CORE1/cagOsCORE1-0.a(sysCpuLib.o)
 *fill*         0x0000000000f3a277        0x1 
 .rodata        0x0000000000f3a278       0x41 ../PM_FW_COMMON/Srv/Scheduler/lib/CORE1/cagOsCORE1-0.a(sysEntry.o)
 *fill*         0x0000000000f3a2b9        0x3 
 .rodata        0x0000000000f3a2bc      0x6e0 ../PM_FW_COMMON/Srv/Scheduler/lib/CORE1/cagOsCORE1-0.a(sysExcArchLib.o)
 .rodata        0x0000000000f3a99c       0x4c ../PM_FW_COMMON/Srv/Scheduler/lib/CORE1/cagOsCORE1-0.a(sysInt.o)
 .rodata        0x0000000000f3a9e8       0x29 ../PM_FW_COMMON/Srv/Scheduler/lib/CORE1/cagOsCORE1-0.a(sysPic.o)
 *fill*         0x0000000000f3aa11        0x3 
 .rodata        0x0000000000f3aa14       0x28 ../PM_FW_COMMON/Srv/Scheduler/lib/CORE1/cagOsCORE1-0.a(sysTask.o)
 .rodata        0x0000000000f3aa3c       0x59 ../PM_FW_COMMON/Srv/Scheduler/lib/CORE1/cagOsCORE1-0.a(dfs.o)
 *fill*         0x0000000000f3aa95        0x3 
 .rodata        0x0000000000f3aa98       0xe9 ../PM_FW_COMMON/Srv/Scheduler/lib/CORE1/cagOsCORE1-0.a(hw_init.o)
 *fill*         0x0000000000f3ab81        0x3 
 .rodata        0x0000000000f3ab84       0x6e ../PM_FW_COMMON/Srv/Scheduler/lib/CORE1/cagOsCORE1-0.a(printk.o)
 *fill*         0x0000000000f3abf2        0x2 
 .rodata        0x0000000000f3abf4      0x52c ../PM_FW_COMMON/Srv/Scheduler/lib/CORE1/cagOsCORE1-0.a(sffs.o)
 .rodata        0x0000000000f3b120       0x7e ../PM_FW_COMMON/Srv/Scheduler/lib/CORE1/cagOsCORE1-0.a(sf.o)
 *fill*         0x0000000000f3b19e        0x2 
 .rodata        0x0000000000f3b1a0      0x20b ../PM_FW_COMMON/Srv/Scheduler/lib/CORE1/cagOsCORE1-0.a(sysBanner.o)
 *fill*         0x0000000000f3b3ab        0x1 
 .rodata        0x0000000000f3b3ac      0x51e ../PM_FW_COMMON/Srv/Scheduler/lib/CORE1/cagOsCORE1-0.a(sysBoard.o)
 *fill*         0x0000000000f3b8ca        0x2 
 .rodata        0x0000000000f3b8cc       0x48 ../PM_FW_COMMON/Srv/Scheduler/lib/CORE1/cagOsCORE1-0.a(sysCore.o)
 .rodata        0x0000000000f3b914       0x28 ../PM_FW_COMMON/Srv/Scheduler/lib/CORE1/cagOsCORE1-0.a(sysDec.o)
 .rodata        0x0000000000f3b93c      0x236 ../PM_FW_COMMON/Srv/Scheduler/lib/CORE1/cagOsCORE1-0.a(fs_api.o)
 *fill*         0x0000000000f3bb72        0x2 
 .rodata        0x0000000000f3bb74       0x2e ../PM_FW_COMMON/Srv/Scheduler/lib/CORE1/cagOsCORE1-0.a(sysApi.o)
 *fill*         0x0000000000f3bba2        0x2 
 .rodata        0x0000000000f3bba4       0x43 ../PM_FW_COMMON/Srv/SharedMem/src/SharedComm.o
 *fill*         0x0000000000f3bbe7        0x1 
 .rodata        0x0000000000f3bbe8       0x57 ../PM_FW_COMMON/Srv/SharedMem/src/SharedConfig.o
 *fill*         0x0000000000f3bc3f        0x1 
 .rodata        0x0000000000f3bc40       0x3d App/Main/src/libMain.a(main.o)
 *fill*         0x0000000000f3bc7d        0x3 
 .rodata        0x0000000000f3bc80      0x228 App/Main/src/libMain.a(Task.o)
 .rodata        0x0000000000f3bea8      0x890 App/Comm/src/libComm.a(Comm.o)
 .rodata        0x0000000000f3c738       0x5a App/Diag/src/libDiag.a(Diag.o)
 *fill*         0x0000000000f3c792        0x2 
 .rodata        0x0000000000f3c794        0xd App/FileManager/src/libFileManager.a(FileManager.o)
 *fill*         0x0000000000f3c7a1        0x3 
 .rodata        0x0000000000f3c7a4       0x18 App/Manager/src/libManager.a(Watchdog.o)
 .rodata        0x0000000000f3c7bc      0x676 App/ProjectConfig/src/libProjectConfig.a(Config.o)
 *fill*         0x0000000000f3ce32        0x2 
 .rodata        0x0000000000f3ce34      0x901 App/Sync/src/libSync.a(Sync.o)
 *fill*         0x0000000000f3d735        0x3 
 .rodata        0x0000000000f3d738      0x1cd App/SysStateManager/src/libSysStateManager.a(StateMngt.o)
 *fill*         0x0000000000f3d905        0x3 
 .rodata        0x0000000000f3d908       0x53 Srv/CommProtocol/src/libCMBusProtocol.a(CMBusProtocol.o)
 *fill*         0x0000000000f3d95b        0x1 
 .rodata        0x0000000000f3d95c      0x1f7 Srv/SysResource/src/libSys.a(SysCommon.o)
 *fill*         0x0000000000f3db53        0x1 
 .rodata        0x0000000000f3db54       0x3f Srv/SysResource/src/libSys.a(SysFileManager.o)
 *fill*         0x0000000000f3db93        0x1 
 .rodata        0x0000000000f3db94        0x6 Srv/SysResource/src/libSys.a(SysMonitor.o)
 *fill*         0x0000000000f3db9a        0x2 
 .rodata        0x0000000000f3db9c        0xb Srv/SysResource/src/libSys.a(SysSync.o)
 *fill*         0x0000000000f3dba7        0x1 
 .rodata        0x0000000000f3dba8       0x8e /vagrant/workspace/PM_FW_COMMON/Srv/Diag/src/libCDiag.a(DiagCommon.o)
 *fill*         0x0000000000f3dc36        0x2 
 .rodata        0x0000000000f3dc38       0x25 /vagrant/workspace/PM_FW_COMMON/Srv/Diag/src/libCDiag.a(BoardDiag.o)
 *fill*         0x0000000000f3dc5d        0x3 
 .rodata        0x0000000000f3dc60      0x5ff /vagrant/workspace/PM_FW_COMMON/Srv/Diag/src/libCDiag.a(CPUTest.o)
 *fill*         0x0000000000f3e25f        0x1 
 .rodata        0x0000000000f3e260       0x50 /vagrant/workspace/PM_FW_COMMON/Srv/Diag/src/libCDiag.a(CodeTest.o)
 .rodata        0x0000000000f3e2b0      0x216 /vagrant/workspace/PM_FW_COMMON/Srv/Diag/src/libCDiag.a(RamTest.o)
 *fill*         0x0000000000f3e4c6        0x2 
 .rodata        0x0000000000f3e4c8       0x18 /vagrant/workspace/PM_FW_COMMON/Srv/Log/src/libLog.a(LogCore0.o)
 .rodata        0x0000000000f3e4e0       0x6f /vagrant/workspace/PM_FW_COMMON/Srv/Log/src/libLog.a(LogCore1.o)
 *fill*         0x0000000000f3e54f        0x1 
 .rodata        0x0000000000f3e550       0x13 /vagrant/workspace/PM_FW_COMMON/Srv/Log/src/libLog.a(LogUser.o)
 *fill*         0x0000000000f3e563        0x1 
 .rodata        0x0000000000f3e564       0x16 /vagrant/workspace/PM_FW_COMMON/Srv/PMBUS/src/libPMBUS.a(PMBUS.o)
 *fill*         0x0000000000f3e57a        0x2 
 .rodata        0x0000000000f3e57c       0x1c /vagrant/workspace/PM_FW_COMMON/Srv/Sys/src/libSysCommon.a(CommSysSync.o)
 .rodata        0x0000000000f3e598       0xe8 /vagrant/workspace/PM_FW_COMMON/Srv/Ver/src/libVer.a(Ver.o)

.rodata.__FUNCTION__.2201
                0x0000000000f3e680        0xd
 .rodata.__FUNCTION__.2201
                0x0000000000f3e680        0xd ../PM_FW_COMMON/Srv/Scheduler/lib/CORE1/cagOsCORE1-0.a(sysInt.o)

.rodata.OSTaskDel
                0x0000000000f3e690       0x40
 .rodata.OSTaskDel
                0x0000000000f3e690       0x40 ../PM_FW_COMMON/Srv/Scheduler/lib/CORE1/cagOsCORE1-0.a(sysTask.o)

.rodata.OS_TaskChangePrio
                0x0000000000f3e6d0       0x3c
 .rodata.OS_TaskChangePrio
                0x0000000000f3e6d0       0x3c ../PM_FW_COMMON/Srv/Scheduler/lib/CORE1/cagOsCORE1-0.a(sysTask.o)

.rodata.vsprintf
                0x0000000000f3e70c      0x194
 .rodata.vsprintf
                0x0000000000f3e70c      0x194 ../PM_FW_COMMON/Srv/Scheduler/lib/CORE1/cagOsCORE1-0.a(printk.o)

.rodata.__FUNCTION__.1656
                0x0000000000f3e8a0        0xe
 .rodata.__FUNCTION__.1656
                0x0000000000f3e8a0        0xe ../PM_FW_COMMON/Srv/Scheduler/lib/CORE1/cagOsCORE1-0.a(sf.o)

.rodata.__FUNCTION__.1672
                0x0000000000f3e8b0        0xf
 .rodata.__FUNCTION__.1672
                0x0000000000f3e8b0        0xf ../PM_FW_COMMON/Srv/Scheduler/lib/CORE1/cagOsCORE1-0.a(sf.o)

.rodata.__FUNCTION__.1687
                0x0000000000f3e8c0        0xf
 .rodata.__FUNCTION__.1687
                0x0000000000f3e8c0        0xf ../PM_FW_COMMON/Srv/Scheduler/lib/CORE1/cagOsCORE1-0.a(sf.o)

.rodata.__FUNCTION__.1537
                0x0000000000f3e8d0        0x5
 .rodata.__FUNCTION__.1537
                0x0000000000f3e8d0        0x5 ../PM_FW_COMMON/Srv/Scheduler/lib/CORE1/cagOsCORE1-0.a(sysBoard.o)

.rodata.OS_Post
                0x0000000000f3e8d8       0x20
 .rodata.OS_Post
                0x0000000000f3e8d8       0x20 ../PM_FW_COMMON/Srv/Scheduler/lib/CORE1/cagOsCORE1-0.a(sysCore.o)

.rodata.__FUNCTION__.1441
                0x0000000000f3e8f8        0xf
 .rodata.__FUNCTION__.1441
                0x0000000000f3e8f8        0xf ../PM_FW_COMMON/Srv/Scheduler/lib/CORE1/cagOsCORE1-0.a(sysDec.o)

.rodata.OSSemPend
                0x0000000000f3e908       0x10
 .rodata.OSSemPend
                0x0000000000f3e908       0x10 ../PM_FW_COMMON/Srv/Scheduler/lib/CORE1/cagOsCORE1-0.a(sysSem.o)

.rodata.version_string
                0x0000000000f3e918       0x1a
 .rodata.version_string
                0x0000000000f3e918       0x1a ../PM_FW_COMMON/Srv/Scheduler/lib/CORE1/cagOsCORE1-0.a(sysApi.o)
                0x0000000000f3e918                version_string

.rodata.CPU_CntLeadZerosTbl
                0x0000000000f3e934      0x100
 .rodata.CPU_CntLeadZerosTbl
                0x0000000000f3e934      0x100 ../PM_FW_COMMON/Srv/Scheduler/lib/CORE1/cagOsCORE1-0.a(sysCount.o)

.rodata.SharedGetConfigCrc
                0x0000000000f3ea34       0x2c
 .rodata.SharedGetConfigCrc
                0x0000000000f3ea34       0x2c ../PM_FW_COMMON/Srv/SharedMem/src/SharedConfig.o

.rodata.fTempFractionalValue
                0x0000000000f3ea60       0x40
 .rodata.fTempFractionalValue
                0x0000000000f3ea60       0x40 /vagrant/workspace/PM_FW_COMMON/Srv/Sys/src/libSysCommon.a(SysHardware.o)
                0x0000000000f3ea60                fTempFractionalValue

.rodata.CommCS1131Cycle
                0x0000000000f3eaa0      0x110
 .rodata.CommCS1131Cycle
                0x0000000000f3eaa0      0x110 App/Comm/src/libComm.a(Comm.o)

.rodata.CommWriteFileStart
                0x0000000000f3ebb0       0x38
 .rodata.CommWriteFileStart
                0x0000000000f3ebb0       0x38 App/Comm/src/libComm.a(Comm.o)

.rodata.CommWriteFileContinue
                0x0000000000f3ebe8       0x38
 .rodata.CommWriteFileContinue
                0x0000000000f3ebe8       0x38 App/Comm/src/libComm.a(Comm.o)

.rodata.CommWriteFileDone
                0x0000000000f3ec20       0x38
 .rodata.CommWriteFileDone
                0x0000000000f3ec20       0x38 App/Comm/src/libComm.a(Comm.o)

.rodata.CommAMSCycle
                0x0000000000f3ec58       0x18
 .rodata.CommAMSCycle
                0x0000000000f3ec58       0x18 App/Comm/src/libComm.a(Comm.o)

.rodata.CommSlaveFWUpdate
                0x0000000000f3ec70       0x20
 .rodata.CommSlaveFWUpdate
                0x0000000000f3ec70       0x20 App/Comm/src/libComm.a(Comm.o)

.rodata.CommDiagCycle
                0x0000000000f3ec90       0x40
 .rodata.CommDiagCycle
                0x0000000000f3ec90       0x40 App/Comm/src/libComm.a(Comm.o)

.rodata.CommEraseFlash
                0x0000000000f3ecd0       0x10
 .rodata.CommEraseFlash
                0x0000000000f3ecd0       0x10 App/Comm/src/libComm.a(Comm.o)

.rodata.CommPMUpdate
                0x0000000000f3ece0       0x40
 .rodata.CommPMUpdate
                0x0000000000f3ece0       0x40 App/Comm/src/libComm.a(Comm.o)

.rodata.KeyManagerCycle
                0x0000000000f3ed20       0x38
 .rodata.KeyManagerCycle
                0x0000000000f3ed20       0x38 App/Manager/src/libManager.a(Key.o)

.rodata.ConfigCycle
                0x0000000000f3ed58       0x2c
 .rodata.ConfigCycle
                0x0000000000f3ed58       0x2c App/ProjectConfig/src/libProjectConfig.a(Config.o)

.rodata.ConfigPRGFileParse
                0x0000000000f3ed84       0x58
 .rodata.ConfigPRGFileParse
                0x0000000000f3ed84       0x58 App/ProjectConfig/src/libProjectConfig.a(Config.o)

.rodata.ConfigContrlStationFileParse
                0x0000000000f3eddc       0x38
 .rodata.ConfigContrlStationFileParse
                0x0000000000f3eddc       0x38 App/ProjectConfig/src/libProjectConfig.a(Config.o)

.rodata.ConfigIOConfigSectionParse
                0x0000000000f3ee14       0x14
 .rodata.ConfigIOConfigSectionParse
                0x0000000000f3ee14       0x14 App/ProjectConfig/src/libProjectConfig.a(Config.o)

.rodata.SyncMngt
                0x0000000000f3ee28       0x44
 .rodata.SyncMngt
                0x0000000000f3ee28       0x44 App/Sync/src/libSync.a(Sync.o)

.rodata.SyncSendRealData
                0x0000000000f3ee6c       0x18
 .rodata.SyncSendRealData
                0x0000000000f3ee6c       0x18 App/Sync/src/libSync.a(Sync.o)

.rodata.SyncWaitAck
                0x0000000000f3ee84       0x24
 .rodata.SyncWaitAck
                0x0000000000f3ee84       0x24 App/Sync/src/libSync.a(Sync.o)

.rodata.SyncGetNextFile
                0x0000000000f3eea8       0x34
 .rodata.SyncGetNextFile
                0x0000000000f3eea8       0x34 App/Sync/src/libSync.a(Sync.o)

.rodata.s_uiUnstableCode
                0x0000000000f3eedc       0x28
 .rodata.s_uiUnstableCode
                0x0000000000f3eedc       0x28 App/SysStateManager/src/libSysStateManager.a(StateMngt.o)

.rodata.SysGetCfgFileContentStartAddress
                0x0000000000f3ef04       0x2c
 .rodata.SysGetCfgFileContentStartAddress
                0x0000000000f3ef04       0x2c Srv/SysResource/src/libSys.a(SysCfgFile.o)

.rodata.SysSetLocalCMBusCommState
                0x0000000000f3ef30       0x10
 .rodata.SysSetLocalCMBusCommState
                0x0000000000f3ef30       0x10 Srv/SysResource/src/libSys.a(SysCommon.o)

.rodata.SysGetFileName
                0x0000000000f3ef40       0x2c
 .rodata.SysGetFileName
                0x0000000000f3ef40       0x2c Srv/SysResource/src/libSys.a(SysCommon.o)

.rodata.SysGetTmpFileName
                0x0000000000f3ef6c       0x2c
 .rodata.SysGetTmpFileName
                0x0000000000f3ef6c       0x2c Srv/SysResource/src/libSys.a(SysCommon.o)

.rodata.SysGetOldFileName
                0x0000000000f3ef98       0x2c
 .rodata.SysGetOldFileName
                0x0000000000f3ef98       0x2c Srv/SysResource/src/libSys.a(SysCommon.o)

.rodata.SysCopySharedRtDataToCore1RtData
                0x0000000000f3efc4       0x14
 .rodata.SysCopySharedRtDataToCore1RtData
                0x0000000000f3efc4       0x14 Srv/SysResource/src/libSys.a(SysRTData.o)

.rodata.ipbus_write
                0x0000000000f3efd8       0x14
 .rodata.ipbus_write
                0x0000000000f3efd8       0x14 /vagrant/workspace/PM_FW_COMMON/Srv/Scheduler/lib/CORE1/cagOsCORE1-0.a(ipbus.o)

.rodata.s_uiCheckTab
                0x0000000000f3efec       0xb0
 .rodata.s_uiCheckTab
                0x0000000000f3efec       0xb0 /vagrant/workspace/PM_FW_COMMON/Srv/Diag/src/libCDiag.a(DiagCommon.o)

.rodata.s_uiAddTab
                0x0000000000f3f09c       0xb0
 .rodata.s_uiAddTab
                0x0000000000f3f09c       0xb0 /vagrant/workspace/PM_FW_COMMON/Srv/Diag/src/libCDiag.a(DiagCommon.o)

.rodata.BoardDiagErrHandle
                0x0000000000f3f14c       0x14
 .rodata.BoardDiagErrHandle
                0x0000000000f3f14c       0x14 /vagrant/workspace/PM_FW_COMMON/Srv/Diag/src/libCDiag.a(DiagCommon.o)

.rodata.BoardDiagMngt
                0x0000000000f3f160       0x14
 .rodata.BoardDiagMngt
                0x0000000000f3f160       0x14 /vagrant/workspace/PM_FW_COMMON/Srv/Diag/src/libCDiag.a(BoardDiag.o)

.rodata.CPUTestCycle
                0x0000000000f3f174       0x38
 .rodata.CPUTestCycle
                0x0000000000f3f174       0x38 /vagrant/workspace/PM_FW_COMMON/Srv/Diag/src/libCDiag.a(CPUTest.o)

.rodata.RamTestStart
                0x0000000000f3f1ac       0x14
 .rodata.RamTestStart
                0x0000000000f3f1ac       0x14 /vagrant/workspace/PM_FW_COMMON/Srv/Diag/src/libCDiag.a(RamTest.o)

.rodata.SysGetCfgFileType
                0x0000000000f3f1c0       0x2c
 .rodata.SysGetCfgFileType
                0x0000000000f3f1c0       0x2c /vagrant/workspace/PM_FW_COMMON/Srv/Sys/src/libSysCommon.a(CommSysCommom.o)

.rodata.s_ucPMVersion
                0x0000000000f3f1ec       0x17
 .rodata.s_ucPMVersion
                0x0000000000f3f1ec       0x17 /vagrant/workspace/PM_FW_COMMON/Srv/Ver/src/libVer.a(Ver.o)

.rodata.s_ucCore0Version
                0x0000000000f3f204       0x1a
 .rodata.s_ucCore0Version
                0x0000000000f3f204       0x1a /vagrant/workspace/PM_FW_COMMON/Srv/Ver/src/libVer.a(Ver.o)

.rodata.s_ucCore1Version
                0x0000000000f3f220       0x1a
 .rodata.s_ucCore1Version
                0x0000000000f3f220       0x1a /vagrant/workspace/PM_FW_COMMON/Srv/Ver/src/libVer.a(Ver.o)

.rela.dyn       0x0000000000f3f23c        0x0
 .rela.iplt     0x0000000000000000        0x0 ./App/Main/src/RTSTaskExeEntryBin0.o
 .rela.text     0x0000000000000000        0x0 ./App/Main/src/RTSTaskExeEntryBin0.o
 .rela.text.sysCpuStart
                0x0000000000000000        0x0 ./App/Main/src/RTSTaskExeEntryBin0.o
 .rela.text.sysDeviceInit
                0x0000000000000000        0x0 ./App/Main/src/RTSTaskExeEntryBin0.o
 .rela.text.sysOs
                0x0000000000000000        0x0 ./App/Main/src/RTSTaskExeEntryBin0.o
 .rela.text.exceInit
                0x0000000000000000        0x0 ./App/Main/src/RTSTaskExeEntryBin0.o
 .rela.text.unregisterException
                0x0000000000000000        0x0 ./App/Main/src/RTSTaskExeEntryBin0.o
 .rela.text.registerException
                0x0000000000000000        0x0 ./App/Main/src/RTSTaskExeEntryBin0.o
 .rela.text.irqInit
                0x0000000000000000        0x0 ./App/Main/src/RTSTaskExeEntryBin0.o
 .rela.text.irqUnregister
                0x0000000000000000        0x0 ./App/Main/src/RTSTaskExeEntryBin0.o
 .rela.text.irqRregister
                0x0000000000000000        0x0 ./App/Main/src/RTSTaskExeEntryBin0.o
 .rela.text.OSIntHandler
                0x0000000000000000        0x0 ./App/Main/src/RTSTaskExeEntryBin0.o
 .rela.text.sysL2CacheInit
                0x0000000000000000        0x0 ./App/Main/src/RTSTaskExeEntryBin0.o
 .rela.text.sysL2CacheFlush
                0x0000000000000000        0x0 ./App/Main/src/RTSTaskExeEntryBin0.o
 .rela.text.OSIdleTaskHook
                0x0000000000000000        0x0 ./App/Main/src/RTSTaskExeEntryBin0.o
 .rela.text.OSInitHook
                0x0000000000000000        0x0 ./App/Main/src/RTSTaskExeEntryBin0.o
 .rela.text.OSStatTaskHook
                0x0000000000000000        0x0 ./App/Main/src/RTSTaskExeEntryBin0.o
 .rela.text.OSTaskCreateHook
                0x0000000000000000        0x0 ./App/Main/src/RTSTaskExeEntryBin0.o
 .rela.text.OSTaskDelHook
                0x0000000000000000        0x0 ./App/Main/src/RTSTaskExeEntryBin0.o
 .rela.text.OSTaskReturnHook
                0x0000000000000000        0x0 ./App/Main/src/RTSTaskExeEntryBin0.o
 .rela.text.OSTaskStkInit
                0x0000000000000000        0x0 ./App/Main/src/RTSTaskExeEntryBin0.o
 .rela.text.OSTaskSwHook
                0x0000000000000000        0x0 ./App/Main/src/RTSTaskExeEntryBin0.o
 .rela.text.OSTimeTickHook
                0x0000000000000000        0x0 ./App/Main/src/RTSTaskExeEntryBin0.o
 .rela.text.sysEpicInit
                0x0000000000000000        0x0 ./App/Main/src/RTSTaskExeEntryBin0.o
 .rela.text.sysEpicConfig
                0x0000000000000000        0x0 ./App/Main/src/RTSTaskExeEntryBin0.o
 .rela.text.speExcInit
                0x0000000000000000        0x0 ./App/Main/src/RTSTaskExeEntryBin0.o
 .rela.text.OSTaskCreate
                0x0000000000000000        0x0 ./App/Main/src/RTSTaskExeEntryBin0.o
 .rela.text.OSTaskDel
                0x0000000000000000        0x0 ./App/Main/src/RTSTaskExeEntryBin0.o
 .rela.text.OSTaskResume
                0x0000000000000000        0x0 ./App/Main/src/RTSTaskExeEntryBin0.o
 .rela.text.OSTaskSemPend
                0x0000000000000000        0x0 ./App/Main/src/RTSTaskExeEntryBin0.o
 .rela.text.OSTaskSemPendAbort
                0x0000000000000000        0x0 ./App/Main/src/RTSTaskExeEntryBin0.o
 .rela.text.OSTaskSemSet
                0x0000000000000000        0x0 ./App/Main/src/RTSTaskExeEntryBin0.o
 .rela.text.OSTaskStkChk
                0x0000000000000000        0x0 ./App/Main/src/RTSTaskExeEntryBin0.o
 .rela.text.OSTaskSuspend
                0x0000000000000000        0x0 ./App/Main/src/RTSTaskExeEntryBin0.o
 .rela.text.OSTaskTimeQuantaSet
                0x0000000000000000        0x0 ./App/Main/src/RTSTaskExeEntryBin0.o
 .rela.text.OS_TaskInit
                0x0000000000000000        0x0 ./App/Main/src/RTSTaskExeEntryBin0.o
 .rela.text.OS_TaskReturn
                0x0000000000000000        0x0 ./App/Main/src/RTSTaskExeEntryBin0.o
 .rela.text.OS_TaskSemPost
                0x0000000000000000        0x0 ./App/Main/src/RTSTaskExeEntryBin0.o
 .rela.text.OS_TaskSuspend
                0x0000000000000000        0x0 ./App/Main/src/RTSTaskExeEntryBin0.o
 .rela.text.OS_TaskChangePrio
                0x0000000000000000        0x0 ./App/Main/src/RTSTaskExeEntryBin0.o
 .rela.text.OS_TickUpdate
                0x0000000000000000        0x0 ./App/Main/src/RTSTaskExeEntryBin0.o
 .rela.text.OS_TickListInsertDly
                0x0000000000000000        0x0 ./App/Main/src/RTSTaskExeEntryBin0.o
 .rela.text.OS_TickListUpdateDly
                0x0000000000000000        0x0 ./App/Main/src/RTSTaskExeEntryBin0.o
 .rela.text.OS_TickListUpdateTimeout
                0x0000000000000000        0x0 ./App/Main/src/RTSTaskExeEntryBin0.o
 .rela.text.OSTimeDly
                0x0000000000000000        0x0 ./App/Main/src/RTSTaskExeEntryBin0.o
 .rela.text.OSTimeDlyResume
                0x0000000000000000        0x0 ./App/Main/src/RTSTaskExeEntryBin0.o
 .rela.text.OSTimeGet
                0x0000000000000000        0x0 ./App/Main/src/RTSTaskExeEntryBin0.o
 .rela.text.OSTimeSet
                0x0000000000000000        0x0 ./App/Main/src/RTSTaskExeEntryBin0.o
 .rela.text.OSTimeTick
                0x0000000000000000        0x0 ./App/Main/src/RTSTaskExeEntryBin0.o
 .rela.data.flash_ops
                0x0000000000000000        0x0 ./App/Main/src/RTSTaskExeEntryBin0.o
 .rela.text.nor_init
                0x0000000000000000        0x0 ./App/Main/src/RTSTaskExeEntryBin0.o
 .rela.text.fpga_flash_init
                0x0000000000000000        0x0 ./App/Main/src/RTSTaskExeEntryBin0.o
 .rela.text.lld_WriteToBufferCmd
                0x0000000000000000        0x0 ./App/Main/src/RTSTaskExeEntryBin0.o
 .rela.text.lld_EraseSuspendCmd
                0x0000000000000000        0x0 ./App/Main/src/RTSTaskExeEntryBin0.o
 .rela.text.lld_StatusGet
                0x0000000000000000        0x0 ./App/Main/src/RTSTaskExeEntryBin0.o
 .rela.text.sffs_get_errno
                0x0000000000000000        0x0 ./App/Main/src/RTSTaskExeEntryBin0.o
 .rela.text.sffs_slot_clear
                0x0000000000000000        0x0 ./App/Main/src/RTSTaskExeEntryBin0.o
 .rela.text.sffs_register
                0x0000000000000000        0x0 ./App/Main/src/RTSTaskExeEntryBin0.o
 .rela.text.sffs_get_slot
                0x0000000000000000        0x0 ./App/Main/src/RTSTaskExeEntryBin0.o
 .rela.text.coreShow
                0x0000000000000000        0x0 ./App/Main/src/RTSTaskExeEntryBin0.o
 .rela.sdata.OSCfg_MsgPoolBasePtr
                0x0000000000000000        0x0 ./App/Main/src/RTSTaskExeEntryBin0.o
 .rela.text.OSInit
                0x0000000000000000        0x0 ./App/Main/src/RTSTaskExeEntryBin0.o
 .rela.text.OSIntEnter
                0x0000000000000000        0x0 ./App/Main/src/RTSTaskExeEntryBin0.o
 .rela.text.OSIntExit
                0x0000000000000000        0x0 ./App/Main/src/RTSTaskExeEntryBin0.o
 .rela.text.OSSched
                0x0000000000000000        0x0 ./App/Main/src/RTSTaskExeEntryBin0.o
 .rela.text.OSSchedLock
                0x0000000000000000        0x0 ./App/Main/src/RTSTaskExeEntryBin0.o
 .rela.text.OSSchedUnlock
                0x0000000000000000        0x0 ./App/Main/src/RTSTaskExeEntryBin0.o
 .rela.text.OSSchedRoundRobinCfg
                0x0000000000000000        0x0 ./App/Main/src/RTSTaskExeEntryBin0.o
 .rela.text.OSSchedRoundRobinYield
                0x0000000000000000        0x0 ./App/Main/src/RTSTaskExeEntryBin0.o
 .rela.text.OSStart
                0x0000000000000000        0x0 ./App/Main/src/RTSTaskExeEntryBin0.o
 .rela.text.OS_IdleTask
                0x0000000000000000        0x0 ./App/Main/src/RTSTaskExeEntryBin0.o
 .rela.text.OS_IdleTaskInit
                0x0000000000000000        0x0 ./App/Main/src/RTSTaskExeEntryBin0.o
 .rela.text.OS_Pend
                0x0000000000000000        0x0 ./App/Main/src/RTSTaskExeEntryBin0.o
 .rela.text.OS_RdyListInit
                0x0000000000000000        0x0 ./App/Main/src/RTSTaskExeEntryBin0.o
 .rela.text.OS_RdyListInsert
                0x0000000000000000        0x0 ./App/Main/src/RTSTaskExeEntryBin0.o
 .rela.text.OS_RdyListInsertHead
                0x0000000000000000        0x0 ./App/Main/src/RTSTaskExeEntryBin0.o
 .rela.text.OS_RdyListInsertTail
                0x0000000000000000        0x0 ./App/Main/src/RTSTaskExeEntryBin0.o
 .rela.text.OS_RdyListRemove
                0x0000000000000000        0x0 ./App/Main/src/RTSTaskExeEntryBin0.o
 .rela.text.OS_SchedRoundRobin
                0x0000000000000000        0x0 ./App/Main/src/RTSTaskExeEntryBin0.o
 .rela.text.OS_TaskBlock
                0x0000000000000000        0x0 ./App/Main/src/RTSTaskExeEntryBin0.o
 .rela.text.mmuE500TlbStaticInit
                0x0000000000000000        0x0 ./App/Main/src/RTSTaskExeEntryBin0.o
 .rela.text.OS_MsgPoolInit
                0x0000000000000000        0x0 ./App/Main/src/RTSTaskExeEntryBin0.o
 .rela.text.OS_MsgQFreeAll
                0x0000000000000000        0x0 ./App/Main/src/RTSTaskExeEntryBin0.o
 .rela.text.OS_MsgQGet
                0x0000000000000000        0x0 ./App/Main/src/RTSTaskExeEntryBin0.o
 .rela.text.OS_MsgQPut
                0x0000000000000000        0x0 ./App/Main/src/RTSTaskExeEntryBin0.o
 .rela.text.OSMutexCreate
                0x0000000000000000        0x0 ./App/Main/src/RTSTaskExeEntryBin0.o
 .rela.text.OSMutexDel
                0x0000000000000000        0x0 ./App/Main/src/RTSTaskExeEntryBin0.o
 .rela.text.OSMutexPend
                0x0000000000000000        0x0 ./App/Main/src/RTSTaskExeEntryBin0.o
 .rela.text.OSMutexPendAbort
                0x0000000000000000        0x0 ./App/Main/src/RTSTaskExeEntryBin0.o
 .rela.text.OSMutexPost
                0x0000000000000000        0x0 ./App/Main/src/RTSTaskExeEntryBin0.o
 .rela.text.OS_MutexInit
                0x0000000000000000        0x0 ./App/Main/src/RTSTaskExeEntryBin0.o
 .rela.text.OS_PrioInit
                0x0000000000000000        0x0 ./App/Main/src/RTSTaskExeEntryBin0.o
 .rela.text.OS_PrioGetHighest
                0x0000000000000000        0x0 ./App/Main/src/RTSTaskExeEntryBin0.o
 .rela.text.OS_PrioInsert
                0x0000000000000000        0x0 ./App/Main/src/RTSTaskExeEntryBin0.o
 .rela.text.OS_PrioRemove
                0x0000000000000000        0x0 ./App/Main/src/RTSTaskExeEntryBin0.o
 .rela.text.OSQCreate
                0x0000000000000000        0x0 ./App/Main/src/RTSTaskExeEntryBin0.o
 .rela.text.OSQDel
                0x0000000000000000        0x0 ./App/Main/src/RTSTaskExeEntryBin0.o
 .rela.text.OSQFlush
                0x0000000000000000        0x0 ./App/Main/src/RTSTaskExeEntryBin0.o
 .rela.text.OSQPend
                0x0000000000000000        0x0 ./App/Main/src/RTSTaskExeEntryBin0.o
 .rela.text.OSQPendAbort
                0x0000000000000000        0x0 ./App/Main/src/RTSTaskExeEntryBin0.o
 .rela.text.OS_QInit
                0x0000000000000000        0x0 ./App/Main/src/RTSTaskExeEntryBin0.o
 .rela.text.OSSemCreate
                0x0000000000000000        0x0 ./App/Main/src/RTSTaskExeEntryBin0.o
 .rela.text.OSSemDel
                0x0000000000000000        0x0 ./App/Main/src/RTSTaskExeEntryBin0.o
 .rela.text.OSSemPend
                0x0000000000000000        0x0 ./App/Main/src/RTSTaskExeEntryBin0.o
 .rela.text.OSSemPendAbort
                0x0000000000000000        0x0 ./App/Main/src/RTSTaskExeEntryBin0.o
 .rela.text.OSSemSet
                0x0000000000000000        0x0 ./App/Main/src/RTSTaskExeEntryBin0.o
 .rela.text.OS_SemInit
                0x0000000000000000        0x0 ./App/Main/src/RTSTaskExeEntryBin0.o
 .rela.text.fs_mount
                0x0000000000000000        0x0 ./App/Main/src/RTSTaskExeEntryBin0.o
 .rela.text.fs_mount2
                0x0000000000000000        0x0 ./App/Main/src/RTSTaskExeEntryBin0.o
 .rela.text.fs_umount
                0x0000000000000000        0x0 ./App/Main/src/RTSTaskExeEntryBin0.o
 .rela.text.fs_file_len
                0x0000000000000000        0x0 ./App/Main/src/RTSTaskExeEntryBin0.o
 .rela.text.fs_file_len2
                0x0000000000000000        0x0 ./App/Main/src/RTSTaskExeEntryBin0.o
 .rela.text.fs_rename2
                0x0000000000000000        0x0 ./App/Main/src/RTSTaskExeEntryBin0.o
 .rela.text.fs_rename
                0x0000000000000000        0x0 ./App/Main/src/RTSTaskExeEntryBin0.o
 .rela.text.fs_lseek
                0x0000000000000000        0x0 ./App/Main/src/RTSTaskExeEntryBin0.o
 .rela.text.fs_free
                0x0000000000000000        0x0 ./App/Main/src/RTSTaskExeEntryBin0.o
 .rela.text.fs_free2
                0x0000000000000000        0x0 ./App/Main/src/RTSTaskExeEntryBin0.o
 .rela.text.fs_used
                0x0000000000000000        0x0 ./App/Main/src/RTSTaskExeEntryBin0.o
 .rela.text.fs_used2
                0x0000000000000000        0x0 ./App/Main/src/RTSTaskExeEntryBin0.o
 .rela.text.fs_open
                0x0000000000000000        0x0 ./App/Main/src/RTSTaskExeEntryBin0.o
 .rela.text.fs_remove2
                0x0000000000000000        0x0 ./App/Main/src/RTSTaskExeEntryBin0.o
 .rela.text.fs_remove
                0x0000000000000000        0x0 ./App/Main/src/RTSTaskExeEntryBin0.o
 .rela.text.fs_read
                0x0000000000000000        0x0 ./App/Main/src/RTSTaskExeEntryBin0.o
 .rela.text.fs_write
                0x0000000000000000        0x0 ./App/Main/src/RTSTaskExeEntryBin0.o
 .rela.text.fs_close
                0x0000000000000000        0x0 ./App/Main/src/RTSTaskExeEntryBin0.o
 .rela.text.fs_format
                0x0000000000000000        0x0 ./App/Main/src/RTSTaskExeEntryBin0.o
 .rela.text.fs_format2
                0x0000000000000000        0x0 ./App/Main/src/RTSTaskExeEntryBin0.o
 .rela.text.fs_ls
                0x0000000000000000        0x0 ./App/Main/src/RTSTaskExeEntryBin0.o
 .rela.text.fs_ls2
                0x0000000000000000        0x0 ./App/Main/src/RTSTaskExeEntryBin0.o
 .rela.text.rts_var_init
                0x0000000000000000        0x0 ./App/Main/src/RTSTaskExeEntryBin0.o
 .rela.text.os_create_task
                0x0000000000000000        0x0 ./App/Main/src/RTSTaskExeEntryBin0.o
 .rela.text.os_del_task
                0x0000000000000000        0x0 ./App/Main/src/RTSTaskExeEntryBin0.o
 .rela.text.os_resume_task
                0x0000000000000000        0x0 ./App/Main/src/RTSTaskExeEntryBin0.o
 .rela.text.os_suspend_task
                0x0000000000000000        0x0 ./App/Main/src/RTSTaskExeEntryBin0.o
 .rela.text.os_task_set_ts
                0x0000000000000000        0x0 ./App/Main/src/RTSTaskExeEntryBin0.o
 .rela.text.os_queue_create
                0x0000000000000000        0x0 ./App/Main/src/RTSTaskExeEntryBin0.o
 .rela.text.os_queue_del
                0x0000000000000000        0x0 ./App/Main/src/RTSTaskExeEntryBin0.o
 .rela.text.os_queue_post
                0x0000000000000000        0x0 ./App/Main/src/RTSTaskExeEntryBin0.o
 .rela.text.os_queue_get
                0x0000000000000000        0x0 ./App/Main/src/RTSTaskExeEntryBin0.o
 .rela.text.os_sem_create
                0x0000000000000000        0x0 ./App/Main/src/RTSTaskExeEntryBin0.o
 .rela.text.os_sem_del
                0x0000000000000000        0x0 ./App/Main/src/RTSTaskExeEntryBin0.o
 .rela.text.os_sem_pend
                0x0000000000000000        0x0 ./App/Main/src/RTSTaskExeEntryBin0.o
 .rela.text.os_sem_post
                0x0000000000000000        0x0 ./App/Main/src/RTSTaskExeEntryBin0.o
 .rela.text.os_mutex_create
                0x0000000000000000        0x0 ./App/Main/src/RTSTaskExeEntryBin0.o
 .rela.text.os_mutex_del
                0x0000000000000000        0x0 ./App/Main/src/RTSTaskExeEntryBin0.o
 .rela.text.os_mutex_pend
                0x0000000000000000        0x0 ./App/Main/src/RTSTaskExeEntryBin0.o
 .rela.text.os_mutex_post
                0x0000000000000000        0x0 ./App/Main/src/RTSTaskExeEntryBin0.o
 .rela.text.os_get_tno
                0x0000000000000000        0x0 ./App/Main/src/RTSTaskExeEntryBin0.o
 .rela.text.SharedRtDataInit
                0x0000000000000000        0x0 ./App/Main/src/RTSTaskExeEntryBin0.o
 .rela.text.SysGetSharedMemRtDataStartAddr
                0x0000000000000000        0x0 ./App/Main/src/RTSTaskExeEntryBin0.o
 .rela.text.SysGetSharedMemAppendInfoStartAddr
                0x0000000000000000        0x0 ./App/Main/src/RTSTaskExeEntryBin0.o
 .rela.text.CMBusProtocolInit
                0x0000000000000000        0x0 ./App/Main/src/RTSTaskExeEntryBin0.o
 .rela.text.CMBusProtocolCycleWithCfg
                0x0000000000000000        0x0 ./App/Main/src/RTSTaskExeEntryBin0.o
 .rela.text.CMBusProtocolCycleWithoutCfg
                0x0000000000000000        0x0 ./App/Main/src/RTSTaskExeEntryBin0.o
 .rela.text.UpdateCMTable
                0x0000000000000000        0x0 ./App/Main/src/RTSTaskExeEntryBin0.o
 .rela.text.SysInit
                0x0000000000000000        0x0 ./App/Main/src/RTSTaskExeEntryBin0.o
 .rela.text.SysSetFileDownloadFlg
                0x0000000000000000        0x0 ./App/Main/src/RTSTaskExeEntryBin0.o
 .rela.text.SysGetFileDownloadFlg
                0x0000000000000000        0x0 ./App/Main/src/RTSTaskExeEntryBin0.o
 .rela.text.SysSetFileNewConfigFlg
                0x0000000000000000        0x0 ./App/Main/src/RTSTaskExeEntryBin0.o
 .rela.text.SysGetFileNewConfigFlg
                0x0000000000000000        0x0 ./App/Main/src/RTSTaskExeEntryBin0.o
 .rela.text.SysCopySharedRtDataToCore1RtData
                0x0000000000000000        0x0 ./App/Main/src/RTSTaskExeEntryBin0.o
 .rela.text.SysSyncInit
                0x0000000000000000        0x0 ./App/Main/src/RTSTaskExeEntryBin0.o
 .rela.text.SysGetActiveInfo
                0x0000000000000000        0x0 ./App/Main/src/RTSTaskExeEntryBin0.o
 .rela.text.SysStateMngtInit
                0x0000000000000000        0x0 ./App/Main/src/RTSTaskExeEntryBin0.o
 .rela.text.SysGetPMStateInfo
                0x0000000000000000        0x0 ./App/Main/src/RTSTaskExeEntryBin0.o
 .rela.text.SysGetPrjInfo
                0x0000000000000000        0x0 ./App/Main/src/RTSTaskExeEntryBin0.o
 .rela.text.SysGetDownLoadPrjInfo
                0x0000000000000000        0x0 ./App/Main/src/RTSTaskExeEntryBin0.o
 .rela.text.SysGetConfigStatus
                0x0000000000000000        0x0 ./App/Main/src/RTSTaskExeEntryBin0.o
 .rela.text.SysSetConfigStatus
                0x0000000000000000        0x0 ./App/Main/src/RTSTaskExeEntryBin0.o
 .rela.text.RamTestGetCurDiagAddr
                0x0000000000000000        0x0 ./App/Main/src/RTSTaskExeEntryBin0.o
 .rela.text.CommSysSyncInit
                0x0000000000000000        0x0 ./App/Main/src/RTSTaskExeEntryBin0.o
 .rela.text.SysGetSyncAjust
                0x0000000000000000        0x0 ./App/Main/src/RTSTaskExeEntryBin0.o
 .rela.text.SysSetSyncAjust
                0x0000000000000000        0x0 ./App/Main/src/RTSTaskExeEntryBin0.o

.shared_memory  0x0000000001600000   0x3d06a8
 ../PM_FW_COMMON/Srv/SharedMem/src/SharedRtData.o(.bss.*)
 ../PM_FW_COMMON/Srv/SharedMem/src/SharedRtData.o(.sbss)
 ../PM_FW_COMMON/Srv/SharedMem/src/SharedRtData.o(COMMON)
 COMMON         0x0000000001600000    0x50868 ../PM_FW_COMMON/Srv/SharedMem/src/SharedRtData.o
                0x0000000001600000                g_stSharedRtData
                0x0000000001650868                . = ALIGN (0x8)
 ../PM_FW_COMMON/Srv/SharedMem/src/SharedComm.o(.bss.*)
 .bss.s_stSMMsgBox
                0x0000000001650868    0x7d300 ../PM_FW_COMMON/Srv/SharedMem/src/SharedComm.o
 ../PM_FW_COMMON/Srv/SharedMem/src/SharedComm.o(.sbss)
 ../PM_FW_COMMON/Srv/SharedMem/src/SharedComm.o(COMMON)
                0x00000000016cdb68                . = ALIGN (0x8)
 ../PM_FW_COMMON/Srv/SharedMem/src/SharedConfig.o(.bss.*)
 .bss.s_stCodeArea
                0x00000000016cdb68    0xfa00c ../PM_FW_COMMON/Srv/SharedMem/src/SharedConfig.o
 .bss.s_emTaskStatus
                0x00000000017c7b74       0x18 ../PM_FW_COMMON/Srv/SharedMem/src/SharedConfig.o
 .bss.s_uiSingleStepFlg
                0x00000000017c7b8c        0x8 ../PM_FW_COMMON/Srv/SharedMem/src/SharedConfig.o
 .bss.s_stLogicCfg
                0x00000000017c7b94       0x44 ../PM_FW_COMMON/Srv/SharedMem/src/SharedConfig.o
 .bss.s_stExLibCfg
                0x00000000017c7bd8     0x834c ../PM_FW_COMMON/Srv/SharedMem/src/SharedConfig.o
 .bss.s_stSysIoModCfg
                0x00000000017cff24    0x36a1c ../PM_FW_COMMON/Srv/SharedMem/src/SharedConfig.o
 .bss.s_stCtrlStationCfg
                0x0000000001806940     0x3964 ../PM_FW_COMMON/Srv/SharedMem/src/SharedConfig.o
 .bss.s_stSOECfg
                0x000000000180a2a4    0x18a40 ../PM_FW_COMMON/Srv/SharedMem/src/SharedConfig.o
 .bss.s_stP2PCfg
                0x0000000001822ce4    0x681c4 ../PM_FW_COMMON/Srv/SharedMem/src/SharedConfig.o
 .bss.s_stModbusMasterCfg
                0x000000000188aea8    0x2d504 ../PM_FW_COMMON/Srv/SharedMem/src/SharedConfig.o
 .bss.s_stModbusSlaveCfg
                0x00000000018b83ac    0xfdf5c ../PM_FW_COMMON/Srv/SharedMem/src/SharedConfig.o
 .bss.s_stVoteCfg
                0x00000000019b6308    0x1393c ../PM_FW_COMMON/Srv/SharedMem/src/SharedConfig.o
 .bss.s_stRetainVarCfg
                0x00000000019c9c44     0x3ea4 ../PM_FW_COMMON/Srv/SharedMem/src/SharedConfig.o
 .bss.s_stCMCfg
                0x00000000019cdae8      0xfac ../PM_FW_COMMON/Srv/SharedMem/src/SharedConfig.o
 .bss.s_stCMSlotIdTablCfg
                0x00000000019cea94       0x4c ../PM_FW_COMMON/Srv/SharedMem/src/SharedConfig.o
 .bss.s_emDownloadFlg
                0x00000000019ceae0        0x4 ../PM_FW_COMMON/Srv/SharedMem/src/SharedConfig.o
 .bss.s_uiSwitchPos
                0x00000000019ceae4        0x4 ../PM_FW_COMMON/Srv/SharedMem/src/SharedConfig.o
 .bss.s_uiSwitchPosTmp
                0x00000000019ceae8        0x4 ../PM_FW_COMMON/Srv/SharedMem/src/SharedConfig.o
 .bss.s_emLocalID
                0x00000000019ceaec        0x4 ../PM_FW_COMMON/Srv/SharedMem/src/SharedConfig.o
 .bss.s_emSyncDataFlag
                0x00000000019ceaf0        0x8 ../PM_FW_COMMON/Srv/SharedMem/src/SharedConfig.o
 .bss.s_emDownloadPMID
                0x00000000019ceaf8        0x4 ../PM_FW_COMMON/Srv/SharedMem/src/SharedConfig.o
 .bss.s_uiPowerOnConfigSwitch
                0x00000000019ceafc        0x4 ../PM_FW_COMMON/Srv/SharedMem/src/SharedConfig.o
 .bss.s_emWorkStatus
                0x00000000019ceb00        0xc ../PM_FW_COMMON/Srv/SharedMem/src/SharedConfig.o
 .bss.s_uiUsedParaBufID
                0x00000000019ceb0c        0x4 ../PM_FW_COMMON/Srv/SharedMem/src/SharedConfig.o
 .bss.s_emOnlineDownLoadSwitchFlg
                0x00000000019ceb10        0x8 ../PM_FW_COMMON/Srv/SharedMem/src/SharedConfig.o
 .bss.s_bModConfigChangeFlg
                0x00000000019ceb18       0xf0 ../PM_FW_COMMON/Srv/SharedMem/src/SharedConfig.o
 .bss.s_uiDisableRecover
                0x00000000019cec08        0x4 ../PM_FW_COMMON/Srv/SharedMem/src/SharedConfig.o
 .bss.s_stOldCMSlotIdTabl
                0x00000000019cec0c       0x24 ../PM_FW_COMMON/Srv/SharedMem/src/SharedConfig.o
 .bss.s_uiDownloadStartFlag
                0x00000000019cec30        0x4 ../PM_FW_COMMON/Srv/SharedMem/src/SharedConfig.o
 ../PM_FW_COMMON/Srv/SharedMem/src/SharedConfig.o(.sbss)
 ../PM_FW_COMMON/Srv/SharedMem/src/SharedConfig.o(COMMON)
                0x00000000019cec38                . = ALIGN (0x8)
 *fill*         0x00000000019cec34        0x4 
 ../PM_FW_COMMON/Srv/SharedMem/src/SharedMem.o(.bss.*)
 .bss.s_emSysPauseFlag
                0x00000000019cec38        0x8 ../PM_FW_COMMON/Srv/SharedMem/src/SharedMem.o
 .bss.s_uiIECErrTime
                0x00000000019cec40        0x8 ../PM_FW_COMMON/Srv/SharedMem/src/SharedMem.o
 .bss.s_usPMState
                0x00000000019cec48        0x2 ../PM_FW_COMMON/Srv/SharedMem/src/SharedMem.o
 .bss.stOSCPCfg
                0x00000000019cec4a       0x38 ../PM_FW_COMMON/Srv/SharedMem/src/SharedMem.o
 .bss.stOSCPCtrl
                0x00000000019cec82       0x18 ../PM_FW_COMMON/Srv/SharedMem/src/SharedMem.o
 .bss.s_ucOSCPVar
                0x00000000019cec9a     0x1000 ../PM_FW_COMMON/Srv/SharedMem/src/SharedMem.o
 ../PM_FW_COMMON/Srv/SharedMem/src/SharedMem.o(.sbss)
 ../PM_FW_COMMON/Srv/SharedMem/src/SharedMem.o(COMMON)
                0x00000000019cfca0                . = ALIGN (0x8)
 *fill*         0x00000000019cfc9a        0x6 
 ../PM_FW_COMMON/Srv/SharedMem/src/LED.o(.bss.*)
 .bss.s_emLEDStatus
                0x00000000019cfca0       0x30 ../PM_FW_COMMON/Srv/SharedMem/src/LED.o
 ../PM_FW_COMMON/Srv/SharedMem/src/LED.o(.sbss)
 ../PM_FW_COMMON/Srv/SharedMem/src/LED.o(COMMON)
                0x00000000019cfcd0                . = ALIGN (0x8)
 ../PM_FW_COMMON/Srv/SharedMem/src/SharedWatchdog.o(.bss.*)
 .bss.s_stSMWTD
                0x00000000019cfcd0        0x8 ../PM_FW_COMMON/Srv/SharedMem/src/SharedWatchdog.o
 ../PM_FW_COMMON/Srv/SharedMem/src/SharedWatchdog.o(.sbss)
 ../PM_FW_COMMON/Srv/SharedMem/src/SharedWatchdog.o(COMMON)
                0x00000000019cfcd8                . = ALIGN (0x8)
 ../PM_FW_COMMON/Srv/SharedMem/src/SharedHandshake.o(.bss.*)
 .bss.s_stC0toC1Signal
                0x00000000019cfcd8        0x8 ../PM_FW_COMMON/Srv/SharedMem/src/SharedHandshake.o
 .bss.s_stC1toC0Signal
                0x00000000019cfce0        0x8 ../PM_FW_COMMON/Srv/SharedMem/src/SharedHandshake.o
 .bss.s_stC0toC1SysTime
                0x00000000019cfce8       0x10 ../PM_FW_COMMON/Srv/SharedMem/src/SharedHandshake.o
 .bss.s_stC1toC0SysTime
                0x00000000019cfcf8       0x10 ../PM_FW_COMMON/Srv/SharedMem/src/SharedHandshake.o
 ../PM_FW_COMMON/Srv/SharedMem/src/SharedHandshake.o(.sbss)
 ../PM_FW_COMMON/Srv/SharedMem/src/SharedHandshake.o(COMMON)
                0x00000000019cfd08                . = ALIGN (0x8)
 ../PM_FW_COMMON/Srv/SharedMem/src/SharedSafetyComm.o(.bss.*)
 .bss.s_stSysP2PRecvInfo
                0x00000000019cfd08      0x100 ../PM_FW_COMMON/Srv/SharedMem/src/SharedSafetyComm.o
 .bss.s_stSysP2PSendInfo
                0x00000000019cfe08      0x100 ../PM_FW_COMMON/Srv/SharedMem/src/SharedSafetyComm.o
 .bss.s_stSysPMRecvInfo
                0x00000000019cff08        0xc ../PM_FW_COMMON/Srv/SharedMem/src/SharedSafetyComm.o
 .bss.s_stSysPMSendInfo
                0x00000000019cff14        0xc ../PM_FW_COMMON/Srv/SharedMem/src/SharedSafetyComm.o
 .bss.s_bAutoResume
                0x00000000019cff20        0x1 ../PM_FW_COMMON/Srv/SharedMem/src/SharedSafetyComm.o
 .bss.s_bUserConfirm
                0x00000000019cff21        0x1 ../PM_FW_COMMON/Srv/SharedMem/src/SharedSafetyComm.o
 .bss.s_stSysPMIOCommInfo
                0x00000000019cff22      0x780 ../PM_FW_COMMON/Srv/SharedMem/src/SharedSafetyComm.o
 ../PM_FW_COMMON/Srv/SharedMem/src/SharedSafetyComm.o(.sbss)
 ../PM_FW_COMMON/Srv/SharedMem/src/SharedSafetyComm.o(COMMON)
                0x00000000019d06a8                . = ALIGN (0x8)
 *fill*         0x00000000019d06a2        0x6 

.shared_memory2
                0x0000000000180000   0x125118
                0x0000000000180000                . = ALIGN (0x8)
 ../PM_FW_COMMON/Srv/SharedMem/src/SharedSOE.o(.bss.*)
 .bss.stSOEQueue
                0x0000000000180000      0x198 ../PM_FW_COMMON/Srv/SharedMem/src/SharedSOE.o
 .bss.stSoftSOEArray
                0x0000000000180198   0x124f80 ../PM_FW_COMMON/Srv/SharedMem/src/SharedSOE.o
 ../PM_FW_COMMON/Srv/SharedMem/src/SharedSOE.o(.sbss)
 ../PM_FW_COMMON/Srv/SharedMem/src/SharedSOE.o(COMMON)
                0x00000000002a5118                . = ALIGN (0x8)

.Shared_dc      0x0000000000004000       0x38
 ../PM_FW_COMMON/Srv/SharedMem/src/SharedDiagCode.o(.bss.*)
 .bss.uiBaTest  0x0000000000004000       0x10 ../PM_FW_COMMON/Srv/SharedMem/src/SharedDiagCode.o
 .bss.uiBlaTest
                0x0000000000004010        0x8 ../PM_FW_COMMON/Srv/SharedMem/src/SharedDiagCode.o
 .bss.uiBcaTest
                0x0000000000004018        0xc ../PM_FW_COMMON/Srv/SharedMem/src/SharedDiagCode.o
 .bss.uiBclaTest
                0x0000000000004024       0x10 ../PM_FW_COMMON/Srv/SharedMem/src/SharedDiagCode.o
 ../PM_FW_COMMON/Srv/SharedMem/src/SharedDiagCode.o(.sbss)
 ../PM_FW_COMMON/Srv/SharedMem/src/SharedDiagCode.o(COMMON)
                0x0000000000004038                . = ALIGN (0x8)
 *fill*         0x0000000000004034        0x4 

.fmupdate       0x0000000008000000   0xa00000
                0x0000000008000000                . = ALIGN (0x8)
 ./Srv/SysResource/src/SysUpdate.o(.bss.*)
 .bss.s_ucSlaveFW
                0x0000000008000000   0xa00000 ./Srv/SysResource/src/SysUpdate.o
 ./Srv/SysResource/src/SysUpdate.o(.sbss)
 ./Srv/SysResource/src/SysUpdate.o(COMMON)
                0x0000000008a00000                . = ALIGN (0x8)

.sdata2         0x0000000001000000        0x0
                0x0000000001007ff0                _SDA2_BASE_ = (. + 0x7ff0)
 *(.sdata2)
 *(.sbss2)
                0x0000000001000000                . = ALIGN (0x1000)
                0x0000000001000000                cag_kernel_text_end = .
                0x0000000001000000                _cag_kernel_text_end = .
                0x0000000001000000                etext = .
                0x0000000001000000                _etext = .
                0x0000000001000000                . = ALIGN (0x1000)

.data           0x0000000001000000        0x0
                0x0000000001000000                cag_kernel_data_start = .
                0x0000000001000000                _cag_kernel_data_start = .
                0x0000000001000000                _CAG_START_DATA = .
 *(.data)
                0x0000000001000000                . = ALIGN (0x1000)

.data.uiStartTime
                0x0000000001000000       0x14
 .data.uiStartTime
                0x0000000001000000        0x4 ./App/Main/src/RTSTaskExeEntryBin0.o
 .data.uiStartTime
                0x0000000001000004        0x4 ./App/Main/src/DiagTaskExeEntryBin0.o
 .data.uiStartTime
                0x0000000001000008        0x4 ./App/Main/src/FileTaskExeEntryBin0.o
 .data.uiStartTime
                0x000000000100000c        0x4 ./App/Main/src/CommTaskExeEntryBin0.o
 .data.uiStartTime
                0x0000000001000010        0x4 App/Main/src/libMain.a(Task.o)

.data.uiTimeWindow1
                0x0000000001000014        0xc
 .data.uiTimeWindow1
                0x0000000001000014        0x4 ./App/Main/src/RTSTaskExeEntryBin0.o
 .data.uiTimeWindow1
                0x0000000001000018        0x4 ./App/Main/src/DiagTaskExeEntryBin0.o
 .data.uiTimeWindow1
                0x000000000100001c        0x4 ./App/Main/src/CommTaskExeEntryBin0.o

.data.uiTimeWindow2
                0x0000000001000020        0xc
 .data.uiTimeWindow2
                0x0000000001000020        0x4 ./App/Main/src/RTSTaskExeEntryBin0.o
 .data.uiTimeWindow2
                0x0000000001000024        0x4 ./App/Main/src/DiagTaskExeEntryBin0.o
 .data.uiTimeWindow2
                0x0000000001000028        0x4 ./App/Main/src/CommTaskExeEntryBin0.o

.data.excVecBase
                0x000000000100002c        0x4
 .data.excVecBase
                0x000000000100002c        0x4 ../PM_FW_COMMON/Srv/Scheduler/lib/CORE1/cagOsCORE1-0.a(sysExcArchLib.o)

.data.preg      0x0000000001000030      0x140
 .data.preg     0x0000000001000030      0x140 ../PM_FW_COMMON/Srv/Scheduler/lib/CORE1/cagOsCORE1-0.a(sysExcArchLib.o)
                0x0000000001000030                preg

.data.pEpicRegBase
                0x0000000001000170        0x4
 .data.pEpicRegBase
                0x0000000001000170        0x4 ../PM_FW_COMMON/Srv/Scheduler/lib/CORE1/cagOsCORE1-0.a(sysPic.o)

.data.flash_struct
                0x0000000001000174       0x3c
 .data.flash_struct
                0x0000000001000174       0x3c ../PM_FW_COMMON/Srv/Scheduler/lib/CORE1/cagOsCORE1-0.a(hw_init.o)
                0x0000000001000174                flash_struct

.data.flash_ops
                0x00000000010001b0       0xd0
 .data.flash_ops
                0x00000000010001b0       0xd0 ../PM_FW_COMMON/Srv/Scheduler/lib/CORE1/cagOsCORE1-0.a(hw_init.o)
                0x00000000010001b0                flash_ops

.data.finited   0x0000000001000280        0x1
 .data.finited  0x0000000001000280        0x1 ../PM_FW_COMMON/Srv/Scheduler/lib/CORE1/cagOsCORE1-0.a(hw_init.o)

.data.testlld   0x0000000001000284        0x4
 .data.testlld  0x0000000001000284        0x4 ../PM_FW_COMMON/Srv/Scheduler/lib/CORE1/cagOsCORE1-0.a(lld.o)

.data.hdrsStat  0x0000000001000288      0x100
 .data.hdrsStat
                0x0000000001000288      0x100 ../PM_FW_COMMON/Srv/Scheduler/lib/CORE1/cagOsCORE1-0.a(sffs.o)
                0x0000000001000288                hdrsStat

.data.logo.1241
                0x0000000001000388       0x24
 .data.logo.1241
                0x0000000001000388       0x24 ../PM_FW_COMMON/Srv/Scheduler/lib/CORE1/cagOsCORE1-0.a(sysBanner.o)

.data.stack_pos
                0x00000000010003ac        0x4
 .data.stack_pos
                0x00000000010003ac        0x4 ../PM_FW_COMMON/Srv/Scheduler/lib/CORE1/cagOsCORE1-0.a(sysApi.o)

.data.ulStartTime
                0x00000000010003b0        0x8
 .data.ulStartTime
                0x00000000010003b0        0x8 App/Main/src/libMain.a(Task.o)

.data.ulEndTime
                0x00000000010003b8        0x8
 .data.ulEndTime
                0x00000000010003b8        0x8 App/Main/src/libMain.a(Task.o)

.data.ucRTDataBackupCount
                0x00000000010003c0        0x1
 .data.ucRTDataBackupCount
                0x00000000010003c0        0x1 App/Comm/src/libComm.a(Comm.o)

.data.s_usMsgSEQ
                0x00000000010003c2        0x2
 .data.s_usMsgSEQ
                0x00000000010003c2        0x2 App/Comm/src/libComm.a(Comm.o)

.data.ss_ucTest
                0x00000000010003c4        0x1
 .data.ss_ucTest
                0x00000000010003c4        0x1 App/Comm/src/libComm.a(Comm.o)

.data.s_ucFWUpdateRest
                0x00000000010003c5        0x1
 .data.s_ucFWUpdateRest
                0x00000000010003c5        0x1 App/Comm/src/libComm.a(Comm.o)

.data.s_ucTimeout.4922
                0x00000000010003c8        0x4
 .data.s_ucTimeout.4922
                0x00000000010003c8        0x4 App/Comm/src/libComm.a(Comm.o)

.data.ucSendACKFlg.4925
                0x00000000010003cc        0x4
 .data.ucSendACKFlg.4925
                0x00000000010003cc        0x4 App/Comm/src/libComm.a(Comm.o)

.data.emProcessStag.4998
                0x00000000010003d0        0x4
 .data.emProcessStag.4998
                0x00000000010003d0        0x4 App/Comm/src/libComm.a(Comm.o)

.data.uiTimeCount.5000
                0x00000000010003d4        0x4
 .data.uiTimeCount.5000
                0x00000000010003d4        0x4 App/Comm/src/libComm.a(Comm.o)

.data.emProcessStag.5010
                0x00000000010003d8        0x4
 .data.emProcessStag.5010
                0x00000000010003d8        0x4 App/Comm/src/libComm.a(Comm.o)

.data.uiTimeCount.5012
                0x00000000010003dc        0x4
 .data.uiTimeCount.5012
                0x00000000010003dc        0x4 App/Comm/src/libComm.a(Comm.o)

.data.emProcessStag.5023
                0x00000000010003e0        0x4
 .data.emProcessStag.5023
                0x00000000010003e0        0x4 App/Comm/src/libComm.a(Comm.o)

.data.uiTimeCount.5025
                0x00000000010003e4        0x4
 .data.uiTimeCount.5025
                0x00000000010003e4        0x4 App/Comm/src/libComm.a(Comm.o)

.data.emProcessStag.5035
                0x00000000010003e8        0x4
 .data.emProcessStag.5035
                0x00000000010003e8        0x4 App/Comm/src/libComm.a(Comm.o)

.data.uiTimeCount.5037
                0x00000000010003ec        0x4
 .data.uiTimeCount.5037
                0x00000000010003ec        0x4 App/Comm/src/libComm.a(Comm.o)

.data.emProcessStag.5046
                0x00000000010003f0        0x4
 .data.emProcessStag.5046
                0x00000000010003f0        0x4 App/Comm/src/libComm.a(Comm.o)

.data.uiTimeCount.5048
                0x00000000010003f4        0x4
 .data.uiTimeCount.5048
                0x00000000010003f4        0x4 App/Comm/src/libComm.a(Comm.o)

.data.s_emProcessStag.5058
                0x00000000010003f8        0x4
 .data.s_emProcessStag.5058
                0x00000000010003f8        0x4 App/Comm/src/libComm.a(Comm.o)

.data.uiTimeCount.5060
                0x00000000010003fc        0x4
 .data.uiTimeCount.5060
                0x00000000010003fc        0x4 App/Comm/src/libComm.a(Comm.o)

.data.ucSubSeason.5086
                0x0000000001000400        0x1
 .data.ucSubSeason.5086
                0x0000000001000400        0x1 App/Comm/src/libComm.a(Comm.o)

.data.emProcessStag.5083
                0x0000000001000404        0x4
 .data.emProcessStag.5083
                0x0000000001000404        0x4 App/Comm/src/libComm.a(Comm.o)

.data.emCfgFileType.5095
                0x0000000001000408        0x4
 .data.emCfgFileType.5095
                0x0000000001000408        0x4 App/Comm/src/libComm.a(Comm.o)

.data.pstFileInfo.5091
                0x000000000100040c        0x4
 .data.pstFileInfo.5091
                0x000000000100040c        0x4 App/Comm/src/libComm.a(Comm.o)

.data.ucSubSeason.5114
                0x0000000001000410        0x1
 .data.ucSubSeason.5114
                0x0000000001000410        0x1 App/Comm/src/libComm.a(Comm.o)

.data.emProcessStag.5111
                0x0000000001000414        0x4
 .data.emProcessStag.5111
                0x0000000001000414        0x4 App/Comm/src/libComm.a(Comm.o)

.data.emCfgFileType.5123
                0x0000000001000418        0x4
 .data.emCfgFileType.5123
                0x0000000001000418        0x4 App/Comm/src/libComm.a(Comm.o)

.data.pstFileInfo.5119
                0x000000000100041c        0x4
 .data.pstFileInfo.5119
                0x000000000100041c        0x4 App/Comm/src/libComm.a(Comm.o)

.data.ucSubSeason.5139
                0x0000000001000420        0x1
 .data.ucSubSeason.5139
                0x0000000001000420        0x1 App/Comm/src/libComm.a(Comm.o)

.data.emProcessStag.5136
                0x0000000001000424        0x4
 .data.emProcessStag.5136
                0x0000000001000424        0x4 App/Comm/src/libComm.a(Comm.o)

.data.emCfgFileType.5148
                0x0000000001000428        0x4
 .data.emCfgFileType.5148
                0x0000000001000428        0x4 App/Comm/src/libComm.a(Comm.o)

.data.pstFileInfo.5144
                0x000000000100042c        0x4
 .data.pstFileInfo.5144
                0x000000000100042c        0x4 App/Comm/src/libComm.a(Comm.o)

.data.s_ucTimeout.5254
                0x0000000001000430        0x4
 .data.s_ucTimeout.5254
                0x0000000001000430        0x4 App/Comm/src/libComm.a(Comm.o)

.data.ucSendACKFlg.5257
                0x0000000001000434        0x4
 .data.ucSendACKFlg.5257
                0x0000000001000434        0x4 App/Comm/src/libComm.a(Comm.o)

.data.s_ucTimeout.5279
                0x0000000001000438        0x4
 .data.s_ucTimeout.5279
                0x0000000001000438        0x4 App/Comm/src/libComm.a(Comm.o)

.data.s_bClrDone.5289
                0x000000000100043c        0x1
 .data.s_bClrDone.5289
                0x000000000100043c        0x1 App/Comm/src/libComm.a(Comm.o)

.data.s_ucTimeout.5306
                0x0000000001000440        0x4
 .data.s_ucTimeout.5306
                0x0000000001000440        0x4 App/Comm/src/libComm.a(Comm.o)

.data.uctest.5406
                0x0000000001000444        0x1
 .data.uctest.5406
                0x0000000001000444        0x1 App/Comm/src/libComm.a(Comm.o)

.data.s_emAMSMsgHandleStag.5476
                0x0000000001000448        0x4
 .data.s_emAMSMsgHandleStag.5476
                0x0000000001000448        0x4 App/Comm/src/libComm.a(Comm.o)

.data.emCMIndex.5458
                0x000000000100044c        0x4
 .data.emCMIndex.5458
                0x000000000100044c        0x4 App/Comm/src/libComm.a(Comm.o)

.data.ucSubSeason.5459
                0x0000000001000450        0x1
 .data.ucSubSeason.5459
                0x0000000001000450        0x1 App/Comm/src/libComm.a(Comm.o)

.data.s_ucRetryTime.5475
                0x0000000001000451        0x1
 .data.s_ucRetryTime.5475
                0x0000000001000451        0x1 App/Comm/src/libComm.a(Comm.o)

.data.s_ucWaitACKTimeout.5468
                0x0000000001000452        0x1
 .data.s_ucWaitACKTimeout.5468
                0x0000000001000452        0x1 App/Comm/src/libComm.a(Comm.o)

.data.s_emUpdateIOStag.5517
                0x0000000001000454        0x4
 .data.s_emUpdateIOStag.5517
                0x0000000001000454        0x4 App/Comm/src/libComm.a(Comm.o)

.data.s_usSubPackNum.5522
                0x0000000001000458        0x2
 .data.s_usSubPackNum.5522
                0x0000000001000458        0x2 App/Comm/src/libComm.a(Comm.o)

.data.s_emLastUpdateIOStag.5518
                0x000000000100045c        0x4
 .data.s_emLastUpdateIOStag.5518
                0x000000000100045c        0x4 App/Comm/src/libComm.a(Comm.o)

.data.s_ucWaitACKTimeout.5527
                0x0000000001000460        0x2
 .data.s_ucWaitACKTimeout.5527
                0x0000000001000460        0x2 App/Comm/src/libComm.a(Comm.o)

.data.s_ucLastPackFlg.5529
                0x0000000001000462        0x1
 .data.s_ucLastPackFlg.5529
                0x0000000001000462        0x1 App/Comm/src/libComm.a(Comm.o)

.data.s_usWaitCount.5532
                0x0000000001000464        0x2
 .data.s_usWaitCount.5532
                0x0000000001000464        0x2 App/Comm/src/libComm.a(Comm.o)

.data.emReadSlaveVernStag.5555
                0x0000000001000468        0x4
 .data.emReadSlaveVernStag.5555
                0x0000000001000468        0x4 App/Comm/src/libComm.a(Comm.o)

.data.s_ucPollModAddr.5554
                0x000000000100046c        0x1
 .data.s_ucPollModAddr.5554
                0x000000000100046c        0x1 App/Comm/src/libComm.a(Comm.o)

.data.s_ucWaitACKTimeout.5556
                0x000000000100046d        0x1
 .data.s_ucWaitACKTimeout.5556
                0x000000000100046d        0x1 App/Comm/src/libComm.a(Comm.o)

.data.s_usCounter.5588
                0x000000000100046e        0x2
 .data.s_usCounter.5588
                0x000000000100046e        0x2 App/Comm/src/libComm.a(Comm.o)

.data.emReadAlarmStag.5586
                0x0000000001000470        0x4
 .data.emReadAlarmStag.5586
                0x0000000001000470        0x4 App/Comm/src/libComm.a(Comm.o)

.data.s_ucRackID.5589
                0x0000000001000474        0x1
 .data.s_ucRackID.5589
                0x0000000001000474        0x1 App/Comm/src/libComm.a(Comm.o)

.data.s_ucPollModAddr.5585
                0x0000000001000475        0x1
 .data.s_ucPollModAddr.5585
                0x0000000001000475        0x1 App/Comm/src/libComm.a(Comm.o)

.data.s_ucWaitACKTimeout.5587
                0x0000000001000476        0x1
 .data.s_ucWaitACKTimeout.5587
                0x0000000001000476        0x1 App/Comm/src/libComm.a(Comm.o)

.data.ucSubSeason.5712
                0x0000000001000477        0x1
 .data.ucSubSeason.5712
                0x0000000001000477        0x1 App/Comm/src/libComm.a(Comm.o)

.data.s_emClearDiagStag.5710
                0x0000000001000478        0x4
 .data.s_emClearDiagStag.5710
                0x0000000001000478        0x4 App/Comm/src/libComm.a(Comm.o)

.data.s_ucWaitACKTimeout.5711
                0x000000000100047c        0x1
 .data.s_ucWaitACKTimeout.5711
                0x000000000100047c        0x1 App/Comm/src/libComm.a(Comm.o)

.data.s_ucCrtlSrvACKTimeoutCount.5781
                0x0000000001000480        0x2
 .data.s_ucCrtlSrvACKTimeoutCount.5781
                0x0000000001000480        0x2 App/Comm/src/libComm.a(Comm.o)

.data.s_ucTimeout.5780
                0x0000000001000482        0x1
 .data.s_ucTimeout.5780
                0x0000000001000482        0x1 App/Comm/src/libComm.a(Comm.o)

.data.emProcessStag.5790
                0x0000000001000484        0x4
 .data.emProcessStag.5790
                0x0000000001000484        0x4 App/Comm/src/libComm.a(Comm.o)

.data.uiCMD.5794
                0x0000000001000488        0x4
 .data.uiCMD.5794
                0x0000000001000488        0x4 App/Comm/src/libComm.a(Comm.o)

.data.uiStatusWord.5795
                0x000000000100048c        0x4
 .data.uiStatusWord.5795
                0x000000000100048c        0x4 App/Comm/src/libComm.a(Comm.o)

.data.uiTimeCount.5792
                0x0000000001000490        0x4
 .data.uiTimeCount.5792
                0x0000000001000490        0x4 App/Comm/src/libComm.a(Comm.o)

.data.s_emFMUpdateStag.5809
                0x0000000001000494        0x4
 .data.s_emFMUpdateStag.5809
                0x0000000001000494        0x4 App/Comm/src/libComm.a(Comm.o)

.data.s_uiFWUsedArea.5810
                0x0000000001000498        0x4
 .data.s_uiFWUsedArea.5810
                0x0000000001000498        0x4 App/Comm/src/libComm.a(Comm.o)

.data.s_emFWType.5814
                0x000000000100049c        0x4
 .data.s_emFWType.5814
                0x000000000100049c        0x4 App/Comm/src/libComm.a(Comm.o)

.data.s_emNorFlashOptType.5811
                0x00000000010004a0        0x4
 .data.s_emNorFlashOptType.5811
                0x00000000010004a0        0x4 App/Comm/src/libComm.a(Comm.o)

.data.uiCntInit.3955
                0x00000000010004a4        0x4
 .data.uiCntInit.3955
                0x00000000010004a4        0x4 App/Manager/src/libManager.a(Key.o)

.data.uiCntPrgm.3956
                0x00000000010004a8        0x4
 .data.uiCntPrgm.3956
                0x00000000010004a8        0x4 App/Manager/src/libManager.a(Key.o)

.data.uiCntRun.3957
                0x00000000010004ac        0x4
 .data.uiCntRun.3957
                0x00000000010004ac        0x4 App/Manager/src/libManager.a(Key.o)

.data.uiCntStop.3958
                0x00000000010004b0        0x4
 .data.uiCntStop.3958
                0x00000000010004b0        0x4 App/Manager/src/libManager.a(Key.o)

.data.bInitWrLogFlag.3959
                0x00000000010004b4        0x1
 .data.bInitWrLogFlag.3959
                0x00000000010004b4        0x1 App/Manager/src/libManager.a(Key.o)

.data.bStartWrLogFlag.3960
                0x00000000010004b5        0x1
 .data.bStartWrLogFlag.3960
                0x00000000010004b5        0x1 App/Manager/src/libManager.a(Key.o)

.data.bStopWrLogFlag.3961
                0x00000000010004b6        0x1
 .data.bStopWrLogFlag.3961
                0x00000000010004b6        0x1 App/Manager/src/libManager.a(Key.o)

.data.bProgWrLogFlag.3962
                0x00000000010004b7        0x1
 .data.bProgWrLogFlag.3962
                0x00000000010004b7        0x1 App/Manager/src/libManager.a(Key.o)

.data.s_uiCount
                0x00000000010004b8        0x4
 .data.s_uiCount
                0x00000000010004b8        0x4 App/Manager/src/libManager.a(Watchdog.o)

.data.s_uiRTSCount
                0x00000000010004bc        0x4
 .data.s_uiRTSCount
                0x00000000010004bc        0x4 App/Manager/src/libManager.a(Watchdog.o)

.data.s_uiCore0Wtd
                0x00000000010004c0        0x4
 .data.s_uiCore0Wtd
                0x00000000010004c0        0x4 App/Manager/src/libManager.a(Watchdog.o)

.data.uiCore0CounterOld.3734
                0x00000000010004c4        0x4
 .data.uiCore0CounterOld.3734
                0x00000000010004c4        0x4 App/Manager/src/libManager.a(Watchdog.o)

.data.s_pstSysCfgFileTable
                0x00000000010004c8        0x4
 .data.s_pstSysCfgFileTable
                0x00000000010004c8        0x4 App/ProjectConfig/src/libProjectConfig.a(Config.o)

.data.s_uiWaitCount.5251
                0x00000000010004cc        0x4
 .data.s_uiWaitCount.5251
                0x00000000010004cc        0x4 App/Sync/src/libSync.a(Sync.o)

.data.uiRecvNextPackNum.5291
                0x00000000010004d0        0x4
 .data.uiRecvNextPackNum.5291
                0x00000000010004d0        0x4 App/Sync/src/libSync.a(Sync.o)

.data.uiRecvPrePackNum.5292
                0x00000000010004d4        0x4
 .data.uiRecvPrePackNum.5292
                0x00000000010004d4        0x4 App/Sync/src/libSync.a(Sync.o)

.data.s_uiStateSendFlag1.5297
                0x00000000010004d8        0x4
 .data.s_uiStateSendFlag1.5297
                0x00000000010004d8        0x4 App/Sync/src/libSync.a(Sync.o)

.data.uiPackNum1.5309
                0x00000000010004dc        0x4
 .data.uiPackNum1.5309
                0x00000000010004dc        0x4 App/Sync/src/libSync.a(Sync.o)

.data.s_uiStateSendFlag2.5298
                0x00000000010004e0        0x4
 .data.s_uiStateSendFlag2.5298
                0x00000000010004e0        0x4 App/Sync/src/libSync.a(Sync.o)

.data.uiPackNum2.5310
                0x00000000010004e4        0x4
 .data.uiPackNum2.5310
                0x00000000010004e4        0x4 App/Sync/src/libSync.a(Sync.o)

.data.s_uiWaitAck.5429
                0x00000000010004e8        0xc
 .data.s_uiWaitAck.5429
                0x00000000010004e8        0xc App/Sync/src/libSync.a(Sync.o)

.data.s_uiRecordCon.5430
                0x00000000010004f4        0x4
 .data.s_uiRecordCon.5430
                0x00000000010004f4        0x4 App/Sync/src/libSync.a(Sync.o)

.data.s_uiWaitAck.5457
                0x00000000010004f8        0xc
 .data.s_uiWaitAck.5457
                0x00000000010004f8        0xc App/Sync/src/libSync.a(Sync.o)

.data.s_uiRecordCon.5458
                0x0000000001000504        0x4
 .data.s_uiRecordCon.5458
                0x0000000001000504        0x4 App/Sync/src/libSync.a(Sync.o)

.data.s_uiWaitAck.5485
                0x0000000001000508        0xc
 .data.s_uiWaitAck.5485
                0x0000000001000508        0xc App/Sync/src/libSync.a(Sync.o)

.data.s_uiRecordCon.5486
                0x0000000001000514        0x4
 .data.s_uiRecordCon.5486
                0x0000000001000514        0x4 App/Sync/src/libSync.a(Sync.o)

.data.s_uiWaitAck.5513
                0x0000000001000518        0xc
 .data.s_uiWaitAck.5513
                0x0000000001000518        0xc App/Sync/src/libSync.a(Sync.o)

.data.s_uiRecordCon.5514
                0x0000000001000524        0x4
 .data.s_uiRecordCon.5514
                0x0000000001000524        0x4 App/Sync/src/libSync.a(Sync.o)

.data.s_uiWaitAck.5541
                0x0000000001000528        0xc
 .data.s_uiWaitAck.5541
                0x0000000001000528        0xc App/Sync/src/libSync.a(Sync.o)

.data.s_uiRecordCon.5542
                0x0000000001000534        0x4
 .data.s_uiRecordCon.5542
                0x0000000001000534        0x4 App/Sync/src/libSync.a(Sync.o)

.data.s_uiWaitAck.5579
                0x0000000001000538        0xc
 .data.s_uiWaitAck.5579
                0x0000000001000538        0xc App/Sync/src/libSync.a(Sync.o)

.data.s_uiRecordCon.5580
                0x0000000001000544        0x4
 .data.s_uiRecordCon.5580
                0x0000000001000544        0x4 App/Sync/src/libSync.a(Sync.o)

.data.s_uiWaitAck.5608
                0x0000000001000548        0xc
 .data.s_uiWaitAck.5608
                0x0000000001000548        0xc App/Sync/src/libSync.a(Sync.o)

.data.s_uiRecordCon.5609
                0x0000000001000554        0x4
 .data.s_uiRecordCon.5609
                0x0000000001000554        0x4 App/Sync/src/libSync.a(Sync.o)

.data.s_emDEBUGSrvType.5639
                0x0000000001000558        0x4
 .data.s_emDEBUGSrvType.5639
                0x0000000001000558        0x4 App/Sync/src/libSync.a(Sync.o)

.data.s_emDEBUGLastStatus.5679
                0x000000000100055c        0x4
 .data.s_emDEBUGLastStatus.5679
                0x000000000100055c        0x4 App/Sync/src/libSync.a(Sync.o)

.data.s_emLastStatus.5677
                0x0000000001000560        0x4
 .data.s_emLastStatus.5677
                0x0000000001000560        0x4 App/Sync/src/libSync.a(Sync.o)

.data.pstSyncPrjData.5760
                0x0000000001000564        0x4
 .data.pstSyncPrjData.5760
                0x0000000001000564        0x4 App/Sync/src/libSync.a(Sync.o)

.data.uiDataLen.5752
                0x0000000001000568        0x4
 .data.uiDataLen.5752
                0x0000000001000568        0x4 App/Sync/src/libSync.a(Sync.o)

.data.emLastPackFlag.5764
                0x000000000100056c        0x4
 .data.emLastPackFlag.5764
                0x000000000100056c        0x4 App/Sync/src/libSync.a(Sync.o)

.data.s_uiCacheSize.5749
                0x0000000001000570        0x4
 .data.s_uiCacheSize.5749
                0x0000000001000570        0x4 App/Sync/src/libSync.a(Sync.o)

.data.ucDebugLastStatus.5772
                0x0000000001000574        0x4
 .data.ucDebugLastStatus.5772
                0x0000000001000574        0x4 App/Sync/src/libSync.a(Sync.o)

.data.s_emLastStatus.5771
                0x0000000001000578        0x4
 .data.s_emLastStatus.5771
                0x0000000001000578        0x4 App/Sync/src/libSync.a(Sync.o)

.data.s_uiAjustStart.5871
                0x000000000100057c        0x4
 .data.s_uiAjustStart.5871
                0x000000000100057c        0x4 App/Sync/src/libSync.a(Sync.o)

.data.emlastPreWorkStat
                0x0000000001000580        0x4
 .data.emlastPreWorkStat
                0x0000000001000580        0x4 App/SysStateManager/src/libSysStateManager.a(StateMngt.o)

.data.emlastNextWorkStat
                0x0000000001000584        0x4
 .data.emlastNextWorkStat
                0x0000000001000584        0x4 App/SysStateManager/src/libSysStateManager.a(StateMngt.o)

.data.s_uiOldState.4801
                0x0000000001000588        0xc
 .data.s_uiOldState.4801
                0x0000000001000588        0xc App/SysStateManager/src/libSysStateManager.a(StateMngt.o)

.data.uiCMID.5347
                0x0000000001000594        0x4
 .data.uiCMID.5347
                0x0000000001000594        0x4 Srv/CommProtocol/src/libCMBusProtocol.a(CMBusProtocol.o)

.data.bCMOnlineLogFlag.5352
                0x0000000001000598        0x1
 .data.bCMOnlineLogFlag.5352
                0x0000000001000598        0x1 Srv/CommProtocol/src/libCMBusProtocol.a(CMBusProtocol.o)

.data.bCMOfflineLogFlag.5351
                0x0000000001000599        0x1
 .data.bCMOfflineLogFlag.5351
                0x0000000001000599        0x1 Srv/CommProtocol/src/libCMBusProtocol.a(CMBusProtocol.o)

.data.bIsConfiged.5360
                0x000000000100059a        0x1
 .data.bIsConfiged.5360
                0x000000000100059a        0x1 Srv/CommProtocol/src/libCMBusProtocol.a(CMBusProtocol.o)

.data.j.5373    0x000000000100059b        0x1
 .data.j.5373   0x000000000100059b        0x1 Srv/CommProtocol/src/libCMBusProtocol.a(CMBusProtocol.o)

.data.uiCount.3471
                0x000000000100059c        0x4
 .data.uiCount.3471
                0x000000000100059c        0x4 Srv/SysResource/src/libSys.a(SysMonitor.o)

.data.uiCount.3477
                0x00000000010005a0        0x4
 .data.uiCount.3477
                0x00000000010005a0        0x4 Srv/SysResource/src/libSys.a(SysMonitor.o)

.data.s_emWaitPMId
                0x00000000010005a4        0x4
 .data.s_emWaitPMId
                0x00000000010005a4        0x4 Srv/SysResource/src/libSys.a(SysStateMngt.o)

.data.s_emSysState
                0x00000000010005a8        0x4
 .data.s_emSysState
                0x00000000010005a8        0x4 Srv/SysResource/src/libSys.a(SysStateMngt.o)

.data.s_uiCrc32Table
                0x00000000010005ac      0x400
 .data.s_uiCrc32Table
                0x00000000010005ac      0x400 /vagrant/workspace/PM_FW_COMMON/Srv/Algrithm/src/libAlgrithm.a(Algrithm.o)

.data.s_usCrc16Table
                0x00000000010009ac      0x200
 .data.s_usCrc16Table
                0x00000000010009ac      0x200 /vagrant/workspace/PM_FW_COMMON/Srv/Algrithm/src/libAlgrithm.a(Algrithm.o)

.data.s_uiSeqNum
                0x0000000001000bac        0x8
 .data.s_uiSeqNum
                0x0000000001000bac        0x8 /vagrant/workspace/PM_FW_COMMON/Srv/Diag/src/libCDiag.a(DiagCommon.o)

.data.s_uiCore0TestFail
                0x0000000001000bb4        0x4
 .data.s_uiCore0TestFail
                0x0000000001000bb4        0x4 /vagrant/workspace/PM_FW_COMMON/Srv/Diag/src/libCDiag.a(DiagCommon.o)

.data.s_uiCore1TestFail
                0x0000000001000bb8        0x4
 .data.s_uiCore1TestFail
                0x0000000001000bb8        0x4 /vagrant/workspace/PM_FW_COMMON/Srv/Diag/src/libCDiag.a(DiagCommon.o)

.data.s_uiCTestSn.2079
                0x0000000001000bbc        0x4
 .data.s_uiCTestSn.2079
                0x0000000001000bbc        0x4 /vagrant/workspace/PM_FW_COMMON/Srv/Diag/src/libCDiag.a(CPUTest.o)

.data.s_uiDataCacheRecord.2167
                0x0000000001000bc0        0x4
 .data.s_uiDataCacheRecord.2167
                0x0000000001000bc0        0x4 /vagrant/workspace/PM_FW_COMMON/Srv/Diag/src/libCDiag.a(CPUTest.o)

.data.uiRamTestDBsZero
                0x0000000001000bc4       0x18
 .data.uiRamTestDBsZero
                0x0000000001000bc4       0x18 /vagrant/workspace/PM_FW_COMMON/Srv/Diag/src/libCDiag.a(RamTest.o)

.data.uiRamTestDBsUno
                0x0000000001000bdc       0x18
 .data.uiRamTestDBsUno
                0x0000000001000bdc       0x18 /vagrant/workspace/PM_FW_COMMON/Srv/Diag/src/libCDiag.a(RamTest.o)

.sdata          0x0000000001000bf4      0x40c
                0x0000000001008be4                _SDA_BASE_ = (. + 0x7ff0)
 *(.sdata)
 *(.sdata.*)
 .sdata.sysStaticTlbDescNumEnt
                0x0000000001000bf4        0x4 ../PM_FW_COMMON/Srv/Scheduler/lib/CORE1/cagOsCORE1-0.a(sysCpuLib.o)
                0x0000000001000bf4                sysStaticTlbDescNumEnt
 .sdata.ppcE500ICACHE_LINE_NUM
                0x0000000001000bf8        0x4 ../PM_FW_COMMON/Srv/Scheduler/lib/CORE1/cagOsCORE1-0.a(sysCpuLib.o)
                0x0000000001000bf8                ppcE500ICACHE_LINE_NUM
 .sdata.ppcE500DCACHE_LINE_NUM
                0x0000000001000bfc        0x4 ../PM_FW_COMMON/Srv/Scheduler/lib/CORE1/cagOsCORE1-0.a(sysCpuLib.o)
                0x0000000001000bfc                ppcE500DCACHE_LINE_NUM
 .sdata.ppcE500CACHE_ALIGN_SIZE
                0x0000000001000c00        0x4 ../PM_FW_COMMON/Srv/Scheduler/lib/CORE1/cagOsCORE1-0.a(sysCpuLib.o)
                0x0000000001000c00                ppcE500CACHE_ALIGN_SIZE
 .sdata.l2CacheLineNum
                0x0000000001000c04        0x4 ../PM_FW_COMMON/Srv/Scheduler/lib/CORE1/cagOsCORE1-0.a(sysL2Cache.o)
                0x0000000001000c04                l2CacheLineNum
 .sdata.rtsRunning
                0x0000000001000c08        0x4 ../PM_FW_COMMON/Srv/Scheduler/lib/CORE1/cagOsCORE1-0.a(sysOsSwitchLib.o)
                0x0000000001000c08                rtsRunning
 .sdata.sysEpicSpuriousVector
                0x0000000001000c0c        0x2 ../PM_FW_COMMON/Srv/Scheduler/lib/CORE1/cagOsCORE1-0.a(sysPic.o)
                0x0000000001000c0c                sysEpicSpuriousVector
 *fill*         0x0000000001000c0e        0x2 
 .sdata.numInInts
                0x0000000001000c10        0x4 ../PM_FW_COMMON/Srv/Scheduler/lib/CORE1/cagOsCORE1-0.a(sysPic.o)
                0x0000000001000c10                numInInts
 .sdata.fpga_tick
                0x0000000001000c14        0x4 ../PM_FW_COMMON/Srv/Scheduler/lib/CORE1/cagOsCORE1-0.a(sysTask.o)
                0x0000000001000c14                fpga_tick
 .sdata.dfd     0x0000000001000c18        0x4 ../PM_FW_COMMON/Srv/Scheduler/lib/CORE1/cagOsCORE1-0.a(hw_init.o)
                0x0000000001000c18                dfd
 .sdata.dfd2    0x0000000001000c1c        0x4 ../PM_FW_COMMON/Srv/Scheduler/lib/CORE1/cagOsCORE1-0.a(hw_init.o)
                0x0000000001000c1c                dfd2
 .sdata.dfd3    0x0000000001000c20        0x4 ../PM_FW_COMMON/Srv/Scheduler/lib/CORE1/cagOsCORE1-0.a(hw_init.o)
                0x0000000001000c20                dfd3
 .sdata.nor_flash_errno
                0x0000000001000c24        0x4 ../PM_FW_COMMON/Srv/Scheduler/lib/CORE1/cagOsCORE1-0.a(lld.o)
                0x0000000001000c24                nor_flash_errno
 .sdata.FLSTATEOP
                0x0000000001000c28        0x4 ../PM_FW_COMMON/Srv/Scheduler/lib/CORE1/cagOsCORE1-0.a(lld.o)
                0x0000000001000c28                FLSTATEOP
 .sdata.g_suspend_state
                0x0000000001000c2c        0x1 ../PM_FW_COMMON/Srv/Scheduler/lib/CORE1/cagOsCORE1-0.a(lld.o)
                0x0000000001000c2c                g_suspend_state
 *fill*         0x0000000001000c2d        0x3 
 .sdata.printfEnable
                0x0000000001000c30        0x4 ../PM_FW_COMMON/Srv/Scheduler/lib/CORE1/cagOsCORE1-0.a(printk.o)
                0x0000000001000c30                printfEnable
 .sdata.fsStat  0x0000000001000c34        0x8 ../PM_FW_COMMON/Srv/Scheduler/lib/CORE1/cagOsCORE1-0.a(sffs.o)
                0x0000000001000c34                fsStat
 .sdata.sf2_flash_errno
                0x0000000001000c3c        0x4 ../PM_FW_COMMON/Srv/Scheduler/lib/CORE1/cagOsCORE1-0.a(sf.o)
                0x0000000001000c3c                sf2_flash_errno
 .sdata._pSysL2CacheInvFunc
                0x0000000001000c40        0x4 ../PM_FW_COMMON/Srv/Scheduler/lib/CORE1/cagOsCORE1-0.a(sysCacheE500Lib.o)
                0x0000000001000c40                _pSysL2CacheInvFunc
 .sdata._pSysL2CacheEnable
                0x0000000001000c44        0x4 ../PM_FW_COMMON/Srv/Scheduler/lib/CORE1/cagOsCORE1-0.a(sysCacheE500Lib.o)
                0x0000000001000c44                _pSysL2CacheEnable
 .sdata._pSysL2CacheFlush
                0x0000000001000c48        0x4 ../PM_FW_COMMON/Srv/Scheduler/lib/CORE1/cagOsCORE1-0.a(sysCacheE500Lib.o)
                0x0000000001000c48                _pSysL2CacheFlush
 .sdata._pSysL2CacheDisable
                0x0000000001000c4c        0x4 ../PM_FW_COMMON/Srv/Scheduler/lib/CORE1/cagOsCORE1-0.a(sysCacheE500Lib.o)
                0x0000000001000c4c                _pSysL2CacheDisable
 .sdata.OSCfg_IdleTaskStkLimit
                0x0000000001000c50        0x4 ../PM_FW_COMMON/Srv/Scheduler/lib/CORE1/cagOsCORE1-0.a(sysCfg.o)
                0x0000000001000c50                OSCfg_IdleTaskStkLimit
 .sdata.OSCfg_IdleTaskStkSize
                0x0000000001000c54        0x4 ../PM_FW_COMMON/Srv/Scheduler/lib/CORE1/cagOsCORE1-0.a(sysCfg.o)
                0x0000000001000c54                OSCfg_IdleTaskStkSize
 .sdata.OSCfg_MsgPoolSize
                0x0000000001000c58        0x2 ../PM_FW_COMMON/Srv/Scheduler/lib/CORE1/cagOsCORE1-0.a(sysCfg.o)
                0x0000000001000c58                OSCfg_MsgPoolSize
 *fill*         0x0000000001000c5a        0x2 
 .sdata.OSCfg_MsgPoolBasePtr
                0x0000000001000c5c        0x4 ../PM_FW_COMMON/Srv/Scheduler/lib/CORE1/cagOsCORE1-0.a(sysCfg.o)
                0x0000000001000c5c                OSCfg_MsgPoolBasePtr
 .sdata.OSCfg_StkSizeMin
                0x0000000001000c60        0x4 ../PM_FW_COMMON/Srv/Scheduler/lib/CORE1/cagOsCORE1-0.a(sysCfg.o)
                0x0000000001000c60                OSCfg_StkSizeMin
 .sdata.OSCfg_TickRate_Hz
                0x0000000001000c64        0x4 ../PM_FW_COMMON/Srv/Scheduler/lib/CORE1/cagOsCORE1-0.a(sysCfg.o)
                0x0000000001000c64                OSCfg_TickRate_Hz
 .sdata.synchronization
                0x0000000001000c68        0x4 ../PM_FW_COMMON/Srv/Scheduler/lib/CORE1/cagOsCORE1-0.a(sysCore.o)
                0x0000000001000c68                synchronization
 .sdata.gpioCounter
                0x0000000001000c6c        0x4 ../PM_FW_COMMON/Srv/Scheduler/lib/CORE1/cagOsCORE1-0.a(sysCore.o)
                0x0000000001000c6c                gpioCounter
 .sdata.RtsConsume
                0x0000000001000c70        0x4 ../PM_FW_COMMON/Srv/Scheduler/lib/CORE1/cagOsCORE1-0.a(sysCore.o)
                0x0000000001000c70                RtsConsume
 .sdata.intCounter
                0x0000000001000c74        0x4 ../PM_FW_COMMON/Srv/Scheduler/lib/CORE1/cagOsCORE1-0.a(sysCore.o)
                0x0000000001000c74                intCounter
 .sdata.sysClockFreq
                0x0000000001000c78        0x4 ../PM_FW_COMMON/Srv/Scheduler/lib/CORE1/cagOsCORE1-0.a(sysDec.o)
                0x0000000001000c78                sysClockFreq
 .sdata.sysclkFrequency
                0x0000000001000c7c        0x4 ../PM_FW_COMMON/Srv/Scheduler/lib/CORE1/cagOsCORE1-0.a(sysDec.o)
                0x0000000001000c7c                sysclkFrequency
 .sdata.rolloverPeriod
                0x0000000001000c80        0x4 ../PM_FW_COMMON/Srv/Scheduler/lib/CORE1/cagOsCORE1-0.a(sysDec.o)
                0x0000000001000c80                rolloverPeriod
 .sdata.ticksPerSecond
                0x0000000001000c84        0x4 ../PM_FW_COMMON/Srv/Scheduler/lib/CORE1/cagOsCORE1-0.a(sysDec.o)
                0x0000000001000c84                ticksPerSecond
 .sdata.pos     0x0000000001000c88        0x4 ../PM_FW_COMMON/Srv/Scheduler/lib/CORE1/cagOsCORE1-0.a(sysApi.o)
                0x0000000001000c88                pos
 .sdata.s_emRetRunIndex
                0x0000000001000c8c        0x4 /vagrant/workspace/PM_FW_COMMON/Srv/Diag/src/libCDiag.a(SysTest.o)
                0x0000000001000c8c                s_emRetRunIndex
                0x0000000001001000                . = ALIGN (0x1000)
 *fill*         0x0000000001000c90      0x370 
                0x0000000001001000                edata = .
                0x0000000001001000                _edata = .
                0x0000000001001000                cag_kernel_data_end = .
                0x0000000001001000                _cag_kernel_data_end = .
                0x0000000001001000                . = ALIGN (0x1000)

.sbss           0x0000000001001000     0x1000
                0x0000000001001000                cag_kernel_bss_start = .
                0x0000000001001000                _cag_kernel_bss_start = .
 *(.sbss)
 .sbss          0x0000000000000000        0x0 ./App/Main/src/RTSTaskExeEntryBin0.o
 .sbss          0x0000000001001000        0x8 ../PM_FW_COMMON/Srv/Scheduler/lib/CORE1/cagOsCORE1-0.a(sysCpuLib.o)
                0x0000000001001000                cachePpcReadOrigin
                0x0000000001001004                ppcE500DCACHE_FLUSH_NUM
 .sbss          0x0000000001001008       0x68 ../PM_FW_COMMON/Srv/Scheduler/lib/CORE1/cagOsCORE1-0.a(sysEntry.o)
                0x0000000001001008                OSSchedLockNestingCtr
                0x000000000100100c                OS_AppTaskReturnHookPtr
                0x0000000001001010                OSRunning
                0x0000000001001011                OSPrioHighRdy
                0x0000000001001014                OS_AppTaskCreateHookPtr
                0x0000000001001018                OSPrioCur
                0x000000000100101c                OSTCBCurPtr
                0x0000000001001020                OSQQty
                0x0000000001001022                OSPrioSaved
                0x0000000001001024                OSTCBHighRdyPtr
                0x0000000001001028                OS_AppTaskDelHookPtr
                0x000000000100102c                OS_AppTimeTickHookPtr
                0x0000000001001030                OSTaskCtxSwCtr
                0x0000000001001034                OSIntNestingCtr
                0x0000000001001036                OSTaskQty
                0x0000000001001038                OSMsgPool
                0x0000000001001040                OSSemQty
                0x0000000001001044                OSSchedRoundRobinDfltTimeQuanta
                0x0000000001001048                OS_AppIdleTaskHookPtr
                0x000000000100104c                OSTickCtr
                0x0000000001001050                OS_AppTaskSwHookPtr
                0x0000000001001054                OSIdleTaskCtr
                0x0000000001001058                OS_AppStatTaskHookPtr
                0x000000000100105c                OSMutexQty
                0x0000000001001060                OSTickTaskTimeMax
                0x0000000001001064                OSSchedRoundRobinEn
                0x0000000001001068                OSTickListDly
                0x000000000100106c                OSTickListTimeout
 .sbss          0x0000000001001070        0x4 ../PM_FW_COMMON/Srv/Scheduler/lib/CORE1/cagOsCORE1-0.a(sysPic.o)
                0x0000000001001070                sysEpicIntAckReg
 .sbss          0x0000000001001074        0x8 ../PM_FW_COMMON/Srv/Scheduler/lib/CORE1/cagOsCORE1-0.a(sysSpeExcLib.o)
                0x0000000001001074                e500_spe_exc_mask
                0x0000000001001078                e500_spe_exc_enable
 .sbss          0x000000000100107c        0xc ../PM_FW_COMMON/Srv/Scheduler/lib/CORE1/cagOsCORE1-0.a(hw_init.o)
                0x000000000100107c                sffs_idx
                0x0000000001001080                sffs_idx2
                0x0000000001001084                sffs_idx3
 .sbss          0x0000000001001088        0x8 ../PM_FW_COMMON/Srv/Scheduler/lib/CORE1/cagOsCORE1-0.a(lld.o)
                0x0000000001001088                g_suspend_sector
                0x000000000100108c                g_writebuffer_sector
 .sbss          0x0000000001001090        0x4 ../PM_FW_COMMON/Srv/Scheduler/lib/CORE1/cagOsCORE1-0.a(sysPrio.o)
                0x0000000001001090                OSPrioTbl
 .sbss          0x0000000001001094        0x4 /vagrant/workspace/PM_FW_COMMON/Srv/Sys/src/libSysCommon.a(CommSysSync.o)
                0x0000000001001094                emSyncAjust
 *(.sbss.*)
 *(.scommon)
                0x0000000001002000                . = ALIGN (0x1000)
 *fill*         0x0000000001001098      0xf68 

.bss            0x0000000001002000   0x52f000
 *(.dynbss)
 *(.bss)
 *(.bss.*)
 .bss.dfs_table
                0x0000000001002000       0x20 ../PM_FW_COMMON/Srv/Scheduler/lib/CORE1/cagOsCORE1-0.a(dfs.o)
 .bss.siodev    0x0000000001002020        0x4 ../PM_FW_COMMON/Srv/Scheduler/lib/CORE1/cagOsCORE1-0.a(ns16550.o)
 .bss.s_ucOutputPollFlg
                0x0000000001002024        0x2 /vagrant/workspace/PM_FW_COMMON/Srv/Sys/src/libSysCommon.a(CommSysMonitor.o)
 *fill*         0x0000000001002026        0x2 
 .bss.ucCS1131ACKTimeoutCount
                0x0000000001002028        0x4 App/Comm/src/libComm.a(Comm.o)
 .bss.emFileHandleFlg
                0x000000000100202c       0x10 App/Comm/src/libComm.a(Comm.o)
 .bss.ucOPCACKTimeoutCount
                0x000000000100203c        0x4 App/Comm/src/libComm.a(Comm.o)
 .bss.ucP2PACKTimeoutCount
                0x0000000001002040        0x4 App/Comm/src/libComm.a(Comm.o)
 .bss.stFileInfo
                0x0000000001002044      0x339 App/Comm/src/libComm.a(Comm.o)
 .bss.s_stP2PSendCtrl
                0x000000000100237d      0x514 App/Comm/src/libComm.a(Comm.o)
 *fill*         0x0000000001002891        0x3 
 .bss.s_ucModOnlineFlg
                0x0000000001002894       0x1e App/Comm/src/libComm.a(Comm.o)
 *fill*         0x00000000010028b2        0x2 
 .bss.emAperiodicHandleFlg
                0x00000000010028b4        0x4 App/Comm/src/libComm.a(Comm.o)
 .bss.s_stSlaveFWInfo
                0x00000000010028b8       0xa8 App/Comm/src/libComm.a(Comm.o)
 .bss.s_uiFWUpdateFlg
                0x0000000001002960        0x4 App/Comm/src/libComm.a(Comm.o)
 .bss.stMSGHead.4912
                0x0000000001002964       0x10 App/Comm/src/libComm.a(Comm.o)
 .bss.stFileWriteInfo.5084
                0x0000000001002974        0x4 App/Comm/src/libComm.a(Comm.o)
 .bss.stFileWriteInfo.5112
                0x0000000001002978        0x4 App/Comm/src/libComm.a(Comm.o)
 .bss.ucAMSMsg.5479
                0x000000000100297c      0x400 App/Comm/src/libComm.a(Comm.o)
 .bss.s_stIPBUSMail.5477
                0x0000000001002d7c      0x1f4 App/Comm/src/libComm.a(Comm.o)
 .bss.s_stSendMailHeader.5469
                0x0000000001002f70       0x10 App/Comm/src/libComm.a(Comm.o)
 .bss.stRecvMailHeader.5470
                0x0000000001002f80       0x10 App/Comm/src/libComm.a(Comm.o)
 .bss.stRecvIPBUSMail.5478
                0x0000000001002f90      0x1f4 App/Comm/src/libComm.a(Comm.o)
 .bss.s_iFd     0x0000000001003184        0x4 App/FileManager/src/libFileManager.a(FileManager.o)
 .bss.s_stSysFMReq
                0x0000000001003188     0x1f5b App/FileManager/src/libFileManager.a(FileManager.o)
 .bss.s_stSysFMAck
                0x00000000010050e3     0x1f4e App/FileManager/src/libFileManager.a(FileManager.o)
 .bss.s_stSyncFileStatus
                0x0000000001007031       0x10 App/Sync/src/libSync.a(Sync.o)
 .bss.s_stSyncDataStatus
                0x0000000001007041       0x10 App/Sync/src/libSync.a(Sync.o)
 *fill*         0x0000000001007051        0x3 
 .bss.s_ucBuff  0x0000000001007054      0x400 App/Sync/src/libSync.a(Sync.o)
 .bss.s_stSyncTimer
                0x0000000001007454        0x8 App/Sync/src/libSync.a(Sync.o)
 .bss.s_stSyncData
                0x000000000100745c     0x8010 App/Sync/src/libSync.a(Sync.o)
 .bss.emFileHandleFlg
                0x000000000100f46c        0x4 App/Sync/src/libSync.a(Sync.o)
 .bss.ucData.5765
                0x000000000100f470      0x200 App/Sync/src/libSync.a(Sync.o)
 .bss.s_unStartAjustTime.5872
                0x000000000100f670        0x8 App/Sync/src/libSync.a(Sync.o)
 .bss.s_stRecvBuffer
                0x000000000100f678     0x2000 Srv/CommProtocol/src/libCMBusProtocol.a(CMBusProtocol.o)
 .bss.s_stSendBuffer
                0x0000000001011678     0x2000 Srv/CommProtocol/src/libCMBusProtocol.a(CMBusProtocol.o)
 .bss.s_stCommRecv
                0x0000000001013678        0x6 Srv/CommProtocol/src/libCMBusProtocol.a(CMBusProtocol.o)
 .bss.s_stCommSend
                0x000000000101367e        0x6 Srv/CommProtocol/src/libCMBusProtocol.a(CMBusProtocol.o)
 .bss.s_bSendDetectMsgFlag
                0x0000000001013684        0x4 Srv/CommProtocol/src/libCMBusProtocol.a(CMBusProtocol.o)
 .bss.s_uiCfgReqCmd
                0x0000000001013688       0x10 Srv/CommProtocol/src/libCMBusProtocol.a(CMBusProtocol.o)
 .bss.s_uiRTDataSerialNum
                0x0000000001013698       0x10 Srv/CommProtocol/src/libCMBusProtocol.a(CMBusProtocol.o)
 .bss.s_usCfgFileIndex
                0x00000000010136a8        0x8 Srv/CommProtocol/src/libCMBusProtocol.a(CMBusProtocol.o)
 .bss.s_uiRdOffset
                0x00000000010136b0       0x10 Srv/CommProtocol/src/libCMBusProtocol.a(CMBusProtocol.o)
 .bss.s_uiRdTotalNum
                0x00000000010136c0        0x8 Srv/CommProtocol/src/libCMBusProtocol.a(CMBusProtocol.o)
 .bss.s_uiCfgTransFlag
                0x00000000010136c8       0x10 Srv/CommProtocol/src/libCMBusProtocol.a(CMBusProtocol.o)
 .bss.s_emDataArea
                0x00000000010136d8       0x10 Srv/CommProtocol/src/libCMBusProtocol.a(CMBusProtocol.o)
 .bss.s_usSdDetectSn
                0x00000000010136e8       0x20 Srv/CommProtocol/src/libCMBusProtocol.a(CMBusProtocol.o)
 .bss.s_usRvDetectSn
                0x0000000001013708       0x20 Srv/CommProtocol/src/libCMBusProtocol.a(CMBusProtocol.o)
 .bss.s_usCount
                0x0000000001013728       0x20 Srv/CommProtocol/src/libCMBusProtocol.a(CMBusProtocol.o)
 .bss.s_bSendMsgNum
                0x0000000001013748       0x10 Srv/CommProtocol/src/libCMBusProtocol.a(CMBusProtocol.o)
 .bss.s_bRecvMsgAck
                0x0000000001013758       0x10 Srv/CommProtocol/src/libCMBusProtocol.a(CMBusProtocol.o)
 .bss.s_uiCommCycle
                0x0000000001013768        0x4 Srv/CommProtocol/src/libCMBusProtocol.a(CMBusProtocol.o)
 .bss.s_uiCommCycle2
                0x000000000101376c        0x4 Srv/CommProtocol/src/libCMBusProtocol.a(CMBusProtocol.o)
 .bss.s_ucCMLogicId2SlotIdTable
                0x0000000001013770        0x4 Srv/CommProtocol/src/libCMBusProtocol.a(CMBusProtocol.o)
 .bss.s_ucConfigedCMNum
                0x0000000001013774        0x1 Srv/CommProtocol/src/libCMBusProtocol.a(CMBusProtocol.o)
 *fill*         0x0000000001013775        0x3 
 .bss.s_bRtDataTransferStart
                0x0000000001013778        0x4 Srv/CommProtocol/src/libCMBusProtocol.a(CMBusProtocol.o)
 *fill*         0x000000000101377c        0x4 
 .bss.s_lStartTime
                0x0000000001013780       0x20 Srv/CommProtocol/src/libCMBusProtocol.a(CMBusProtocol.o)
 .bss.s_stCMTable
                0x00000000010137a0       0x20 Srv/CommProtocol/src/libCMBusProtocol.a(CMTable.o)
 .bss.s_stSysCfgDB
                0x00000000010137c0   0x3d0a4a Srv/SysResource/src/libSys.a(SysCfgFile.o)
 .bss.s_stCfgFileTable
                0x00000000013e420a       0x19 Srv/SysResource/src/libSys.a(SysCfgFile.o)
 .bss.s_stCfgFileIncreasedTable
                0x00000000013e4223       0x19 Srv/SysResource/src/libSys.a(SysCfgFile.o)
 .bss.s_uiTransCfgFileFlag
                0x00000000013e423c       0x10 Srv/SysResource/src/libSys.a(SysCfgFile.o)
 .bss.s_stSysMsgBox
                0x00000000013e424c    0x6d6e0 Srv/SysResource/src/libSys.a(SysCMBus.o)
 .bss.s_stSysState
                0x000000000145192c       0x8f Srv/SysResource/src/libSys.a(SysCommon.o)
 .bss.s_stCM2PMInfo
                0x00000000014519bb       0xdc Srv/SysResource/src/libSys.a(SysCommon.o)
 .bss.s_stCfgFileAllTable
                0x0000000001451a97       0x19 Srv/SysResource/src/libSys.a(SysCommon.o)
 .bss.s_stCfgFileIncreTable
                0x0000000001451ab0       0x19 Srv/SysResource/src/libSys.a(SysCommon.o)
 .bss.s_stProjVer
                0x0000000001451ac9       0x40 Srv/SysResource/src/libSys.a(SysCommon.o)
 .bss.s_stFMReqMsgBox
                0x0000000001451b09     0x1f5d Srv/SysResource/src/libSys.a(SysFileManager.o)
 .bss.s_stFMAckMsgBox
                0x0000000001453a66     0x1f50 Srv/SysResource/src/libSys.a(SysFileManager.o)
 *fill*         0x00000000014559b6        0x2 
 .bss.s_iReqSem
                0x00000000014559b8        0x4 Srv/SysResource/src/libSys.a(SysFileManager.o)
 .bss.s_iRespSem
                0x00000000014559bc        0x4 Srv/SysResource/src/libSys.a(SysFileManager.o)
 .bss.s_stSysModbusMsgQueue
                0x00000000014559c0    0x22618 Srv/SysResource/src/libSys.a(SysModbus.o)
 .bss.s_stSysP2PMsgBox
                0x0000000001477fd8     0xc040 Srv/SysResource/src/libSys.a(SysP2P.o)
 .bss.s_stRTDataArea
                0x0000000001484018    0x5b87c Srv/SysResource/src/libSys.a(SysRTData.o)
 .bss.s_uiG1Offset
                0x00000000014df894        0x4 Srv/SysResource/src/libSys.a(SysRTData.o)
 .bss.s_uiG2Offset
                0x00000000014df898        0x4 Srv/SysResource/src/libSys.a(SysRTData.o)
 .bss.s_stAppendInfo
                0x00000000014df89c     0x1860 Srv/SysResource/src/libSys.a(SysRTData.o)
 .bss.s_fTemperature
                0x00000000014e10fc        0x4 Srv/SysResource/src/libSys.a(SysMonitor.o)
 .bss.s_emSupplyAlarmBit
                0x00000000014e1100        0xc Srv/SysResource/src/libSys.a(SysMonitor.o)
 .bss.s_uiPMHardStatus
                0x00000000014e110c        0xc Srv/SysResource/src/libSys.a(SysMonitor.o)
 .bss.s_stSysSyncSrvQueue
                0x00000000014e1118      0x1e8 Srv/SysResource/src/libSys.a(SysSync.o)
 .bss.s_stSysSyncPrjQueue
                0x00000000014e1300       0x20 Srv/SysResource/src/libSys.a(SysSync.o)
 .bss.s_emSyncDataInit
                0x00000000014e1320        0x4 Srv/SysResource/src/libSys.a(SysSync.o)
 .bss.s_stSysSrvInfo
                0x00000000014e1324    0x4695c Srv/SysResource/src/libSys.a(SysSync.o)
 .bss.s_stCtrlSrvInfo
                0x0000000001527c80     0x3ebe Srv/SysResource/src/libSys.a(SysSync.o)
 .bss.s_stSysAjustSyncTime
                0x000000000152bb3e       0x48 Srv/SysResource/src/libSys.a(SysStateMngt.o)
 *fill*         0x000000000152bb86        0x2 
 .bss.s_ucModDownLoadVern
                0x000000000152bb88       0xf0 Srv/SysResource/src/libSys.a(SysPMConfig.o)
 .bss.s_stDiagCtrlInfo
                0x000000000152bc78       0x20 /vagrant/workspace/PM_FW_COMMON/Srv/Diag/src/libCDiag.a(DiagCommon.o)
 .bss.s_stExcptInfo
                0x000000000152bc98      0x120 /vagrant/workspace/PM_FW_COMMON/Srv/Diag/src/libCDiag.a(DiagCommon.o)
 .bss.s_stRamMessage
                0x000000000152bdb8       0x18 /vagrant/workspace/PM_FW_COMMON/Srv/Diag/src/libCDiag.a(DataCacheTest.o)
 .bss.s_pstRTSCodeHeader
                0x000000000152bdd0        0x4 /vagrant/workspace/PM_FW_COMMON/Srv/Diag/src/libCDiag.a(CodeTest.o)
 .bss.s_stRTSCode
                0x000000000152bdd4       0x18 /vagrant/workspace/PM_FW_COMMON/Srv/Diag/src/libCDiag.a(CodeTest.o)
 .bss.s_stRamAddrTable
                0x000000000152bdec       0x1c /vagrant/workspace/PM_FW_COMMON/Srv/Diag/src/libCDiag.a(RamTest.o)
 .bss.s_stRamMessage
                0x000000000152be08       0x18 /vagrant/workspace/PM_FW_COMMON/Srv/Diag/src/libCDiag.a(RamTest.o)
 .bss.s_puiLockFlag
                0x000000000152be20        0x4 /vagrant/workspace/PM_FW_COMMON/Srv/Log/src/libLog.a(LogCore0.o)
 .bss.s_stQueueInfo
                0x000000000152be24       0x14 /vagrant/workspace/PM_FW_COMMON/Srv/Log/src/libLog.a(LogCore0.o)
 .bss.s_pstQueueInfo
                0x000000000152be38        0x4 /vagrant/workspace/PM_FW_COMMON/Srv/Log/src/libLog.a(LogCore0.o)
 .bss.s_pstBaseLogInfo
                0x000000000152be3c        0x4 /vagrant/workspace/PM_FW_COMMON/Srv/Log/src/libLog.a(LogCore0.o)
 .bss.s_puiLockFlag
                0x000000000152be40        0x4 /vagrant/workspace/PM_FW_COMMON/Srv/Log/src/libLog.a(LogCore1.o)
 .bss.s_stQueueInfo
                0x000000000152be44       0x14 /vagrant/workspace/PM_FW_COMMON/Srv/Log/src/libLog.a(LogCore1.o)
 .bss.s_pstQueueInfo
                0x000000000152be58        0x4 /vagrant/workspace/PM_FW_COMMON/Srv/Log/src/libLog.a(LogCore1.o)
 .bss.s_pstBaseLogInfo
                0x000000000152be5c        0x4 /vagrant/workspace/PM_FW_COMMON/Srv/Log/src/libLog.a(LogCore1.o)
 .bss.s_puiLockFlag
                0x000000000152be60        0x4 /vagrant/workspace/PM_FW_COMMON/Srv/Log/src/libLog.a(LogUser.o)
 .bss.s_stQueueInfo
                0x000000000152be64       0x14 /vagrant/workspace/PM_FW_COMMON/Srv/Log/src/libLog.a(LogUser.o)
 .bss.s_pstQueueInfo
                0x000000000152be78        0x4 /vagrant/workspace/PM_FW_COMMON/Srv/Log/src/libLog.a(LogUser.o)
 .bss.s_pstBaseLogInfo
                0x000000000152be7c        0x4 /vagrant/workspace/PM_FW_COMMON/Srv/Log/src/libLog.a(LogUser.o)
 .bss.s_ucTolCnt
                0x000000000152be80        0x1 /vagrant/workspace/PM_FW_COMMON/Srv/SafetyProtocol/src/libSafetyProtocol.a(P2PSafetyComm.o)
 .bss.s_ucTolThr
                0x000000000152be81        0x1 /vagrant/workspace/PM_FW_COMMON/Srv/SafetyProtocol/src/libSafetyProtocol.a(P2PSafetyComm.o)
 .bss.s_stP2PSendInfo
                0x000000000152be82      0x300 /vagrant/workspace/PM_FW_COMMON/Srv/SafetyProtocol/src/libSafetyProtocol.a(P2PSafetyComm.o)
 *(COMMON)
 *fill*         0x000000000152c182        0x2 
 COMMON         0x000000000152c184      0x290 ../PM_FW_COMMON/Srv/Scheduler/lib/CORE1/cagOsCORE1-0.a(sysEntry.o)
                0x000000000152c184                OSRdyList
                0x000000000152c1e4                AppTaskStartTCB
                0x000000000152c270                MainTaskStartTCB
                0x000000000152c2fc                OSIdleTaskTCB
                0x000000000152c388                clockTaskStartTCB
 COMMON         0x000000000152c414      0x150 ../PM_FW_COMMON/Srv/Scheduler/lib/CORE1/cagOsCORE1-0.a(sysExcLib.o)
                0x000000000152c414                exceptionDescTable
 COMMON         0x000000000152c564      0xf70 ../PM_FW_COMMON/Srv/Scheduler/lib/CORE1/cagOsCORE1-0.a(sysInt.o)
                0x000000000152c564                irqDeseTable
 COMMON         0x000000000152d4d4      0x10c ../PM_FW_COMMON/Srv/Scheduler/lib/CORE1/cagOsCORE1-0.a(hw_init.o)
                0x000000000152d4d4                s29gl512pOps2
                0x000000000152d508                s29gl512pOps
                0x000000000152d53c                s29gl512pSt
                0x000000000152d550                fpgaflashSt
                0x000000000152d564                fpgaflashOps2
                0x000000000152d598                s29gl512pSt2
                0x000000000152d5ac                fpgaflashOps
 COMMON         0x000000000152d5e0     0x1570 ../PM_FW_COMMON/Srv/Scheduler/lib/CORE1/cagOsCORE1-0.a(sffs.o)
                0x000000000152d5e0                sffs_slot
 COMMON         0x000000000152eb50     0x15e0 ../PM_FW_COMMON/Srv/Scheduler/lib/CORE1/cagOsCORE1-0.a(sysCfg.o)
                0x000000000152eb50                OSCfg_MsgPool
                0x000000000152f190                OSCfg_IdleTaskStk
 COMMON         0x0000000001530130      0xc08 ../PM_FW_COMMON/Srv/Scheduler/lib/CORE1/cagOsCORE1-0.a(sysApi.o)
                0x0000000001530130                rts_msgq
                0x0000000001530360                rts_sem
                0x0000000001530540                rts_tcbs
                0x0000000001530ab8                rts_mutex
 COMMON         0x0000000001530d38       0x10 Srv/CommProtocol/src/libCMBusProtocol.a(CMBusProtocol.o)
                0x0000000001530d38                s_bCM_slot_table
 COMMON         0x0000000001530d48       0x16 Srv/SysResource/src/libSys.a(SysCommon.o)
                0x0000000001530d48                s_stSysDownLoadFile
 COMMON         0x0000000001530d5e       0x14 Srv/SysResource/src/libSys.a(SysSync.o)
                0x0000000001530d5e                stSysActiveStatus
 COMMON         0x0000000001530d72      0x12c Srv/SysResource/src/libSys.a(SysStateMngt.o)
                0x0000000001530d72                s_stPMStateInfo
 *(.gnu.linkonce.b*)
                0x0000000001531000                . = ALIGN (0x1000)
 *fill*         0x0000000001530e9e      0x162 
                0x0000000001531000                end = .
                0x0000000001531000                _end = .
                0x0000000001531000                cag_kernel_bss_end = .
                0x0000000001531000                _cag_kernel_bss_end = .

.iplt           0x0000000001531000        0x0
 .iplt          0x0000000000000000        0x0 ./App/Main/src/RTSTaskExeEntryBin0.o

.tdata
 *(.tdata .tdata.* .gnu.linkonce.td.*)

.tbss
 *(.tbss .tbss.* .gnu.linkonce.tb.*)
 *(.tcommon)
Address of section .text set to 0xeb0000
START GROUP
LOAD /vagrant/workspace/PM_FW_COMMON/Srv/Scheduler/lib/CORE1/cagOsCORE1-0.a
LOAD /vagrant/workspace/PM_FW_COMMON/Srv/Scheduler/lib/libm.a
LOAD /vagrant/workspace/PM_FW_COMMON/Srv/Scheduler/lib/libgcc.a
LOAD /vagrant/workspace/PM_FW_COMMON/Srv/Scheduler/lib/libgcc_eh.a
LOAD /vagrant/workspace/PM_FW_COMMON/Srv/Scheduler/lib/libc.a
LOAD /vagrant/workspace/PM_FW_COMMON/Srv/SharedMem/src/libSharedMem.a
LOAD /vagrant/workspace/PM_FW_COMMON/Srv/Algrithm/src/libAlgrithm.a
LOAD /vagrant/workspace/PM_FW_COMMON/Srv/Diag/asm/libAsmDiag.a
LOAD /vagrant/workspace/PM_FW_COMMON/Srv/Diag/src/libCDiag.a
LOAD /vagrant/workspace/PM_FW_COMMON/Srv/Log/src/libLog.a
LOAD /vagrant/workspace/PM_FW_COMMON/Srv/PMBUS/src/libPMBUS.a
LOAD /vagrant/workspace/PM_FW_COMMON/Srv/SafetyProtocol/src/libSafetyProtocol.a
LOAD /vagrant/workspace/PM_FW_COMMON/Srv/Sys/src/libSysCommon.a
LOAD /vagrant/workspace/PM_FW_COMMON/Srv/IPBUS/src/libIPBUS.a
LOAD /vagrant/workspace/PM_FW_COMMON/Srv/Ver/src/libVer.a
LOAD App/Main/src/libMain.a
LOAD App/Comm/src/libComm.a
LOAD App/Diag/src/libDiag.a
LOAD App/FileManager/src/libFileManager.a
LOAD App/LEDManager/src/libLEDManager.a
LOAD App/Manager/src/libManager.a
LOAD App/Monitor/src/libMonitor.a
LOAD App/ProjectConfig/src/libProjectConfig.a
LOAD App/Sync/src/libSync.a
LOAD App/SysStateManager/src/libSysStateManager.a
LOAD Srv/CommProtocol/src/libCMBusProtocol.a
LOAD Srv/SysResource/src/libSys.a
END GROUP
OUTPUT(/vagrant/workspace/PM_FW_CORE1/binary/CORE1/RTSCORE1 elf32-powerpc)

.debug_info     0x0000000000000000    0x4ab71
 .debug_info    0x0000000000000000      0x170 ./App/Main/src/RTSTaskExeEntryBin0.o
 .debug_info    0x0000000000000170      0x170 ./App/Main/src/DiagTaskExeEntryBin0.o
 .debug_info    0x00000000000002e0      0x170 ./App/Main/src/FileTaskExeEntryBin0.o
 .debug_info    0x0000000000000450      0x170 ./App/Main/src/CommTaskExeEntryBin0.o
 .debug_info    0x00000000000005c0       0x7b ../PM_FW_COMMON/Srv/Scheduler/lib/CORE1/cagOsCORE1-0.a(sysCpuALib.o)
 .debug_info    0x000000000000063b      0x445 ../PM_FW_COMMON/Srv/Scheduler/lib/CORE1/cagOsCORE1-0.a(sysCpuLib.o)
 .debug_info    0x0000000000000a80       0x7a ../PM_FW_COMMON/Srv/Scheduler/lib/CORE1/cagOsCORE1-0.a(sysE500Tlb.o)
 .debug_info    0x0000000000000afa      0xf6d ../PM_FW_COMMON/Srv/Scheduler/lib/CORE1/cagOsCORE1-0.a(sysEntry.o)
 .debug_info    0x0000000000001a67       0x7e ../PM_FW_COMMON/Srv/Scheduler/lib/CORE1/cagOsCORE1-0.a(sysExcArchALib.o)
 .debug_info    0x0000000000001ae5      0xafa ../PM_FW_COMMON/Srv/Scheduler/lib/CORE1/cagOsCORE1-0.a(sysExcArchLib.o)
 .debug_info    0x00000000000025df      0x2b8 ../PM_FW_COMMON/Srv/Scheduler/lib/CORE1/cagOsCORE1-0.a(sysExcLib.o)
 .debug_info    0x0000000000002897      0x25c ../PM_FW_COMMON/Srv/Scheduler/lib/CORE1/cagOsCORE1-0.a(sysGpio.o)
 .debug_info    0x0000000000002af3      0xaa6 ../PM_FW_COMMON/Srv/Scheduler/lib/CORE1/cagOsCORE1-0.a(sysInt.o)
 .debug_info    0x0000000000003599      0x1d0 ../PM_FW_COMMON/Srv/Scheduler/lib/CORE1/cagOsCORE1-0.a(sysL2Cache.o)
 .debug_info    0x0000000000003769      0xaab ../PM_FW_COMMON/Srv/Scheduler/lib/CORE1/cagOsCORE1-0.a(sysOsSwitchLib.o)
 .debug_info    0x0000000000004214      0x3b1 ../PM_FW_COMMON/Srv/Scheduler/lib/CORE1/cagOsCORE1-0.a(sysPic.o)
 .debug_info    0x00000000000045c5       0xe0 ../PM_FW_COMMON/Srv/Scheduler/lib/CORE1/cagOsCORE1-0.a(sysSpeExcLib.o)
 .debug_info    0x00000000000046a5     0x13ab ../PM_FW_COMMON/Srv/Scheduler/lib/CORE1/cagOsCORE1-0.a(sysTask.o)
 .debug_info    0x0000000000005a50      0x2fd ../PM_FW_COMMON/Srv/Scheduler/lib/CORE1/cagOsCORE1-0.a(sysTbl.o)
 .debug_info    0x0000000000005d4d      0xfeb ../PM_FW_COMMON/Srv/Scheduler/lib/CORE1/cagOsCORE1-0.a(sysTick.o)
 .debug_info    0x0000000000006d38      0xea8 ../PM_FW_COMMON/Srv/Scheduler/lib/CORE1/cagOsCORE1-0.a(sysTime.o)
 .debug_info    0x0000000000007be0      0x4c8 ../PM_FW_COMMON/Srv/Scheduler/lib/CORE1/cagOsCORE1-0.a(update.o)
 .debug_info    0x00000000000080a8      0x3f9 ../PM_FW_COMMON/Srv/Scheduler/lib/CORE1/cagOsCORE1-0.a(dfs.o)
 .debug_info    0x00000000000084a1      0x7b9 ../PM_FW_COMMON/Srv/Scheduler/lib/CORE1/cagOsCORE1-0.a(hw_init.o)
 .debug_info    0x0000000000008c5a      0xfaa ../PM_FW_COMMON/Srv/Scheduler/lib/CORE1/cagOsCORE1-0.a(lld.o)
 .debug_info    0x0000000000009c04       0xd2 ../PM_FW_COMMON/Srv/Scheduler/lib/CORE1/cagOsCORE1-0.a(memcpy.o)
 .debug_info    0x0000000000009cd6       0xc7 ../PM_FW_COMMON/Srv/Scheduler/lib/CORE1/cagOsCORE1-0.a(memset.o)
 .debug_info    0x0000000000009d9d      0x2b3 ../PM_FW_COMMON/Srv/Scheduler/lib/CORE1/cagOsCORE1-0.a(ns16550.o)
 .debug_info    0x000000000000a050      0x56b ../PM_FW_COMMON/Srv/Scheduler/lib/CORE1/cagOsCORE1-0.a(printk.o)
 .debug_info    0x000000000000a5bb     0x113e ../PM_FW_COMMON/Srv/Scheduler/lib/CORE1/cagOsCORE1-0.a(sffs.o)
 .debug_info    0x000000000000b6f9      0x362 ../PM_FW_COMMON/Srv/Scheduler/lib/CORE1/cagOsCORE1-0.a(sf.o)
 .debug_info    0x000000000000ba5b       0xcd ../PM_FW_COMMON/Srv/Scheduler/lib/CORE1/cagOsCORE1-0.a(strcpy.o)
 .debug_info    0x000000000000bb28       0xc4 ../PM_FW_COMMON/Srv/Scheduler/lib/CORE1/cagOsCORE1-0.a(strlen.o)
 .debug_info    0x000000000000bbec       0xe1 ../PM_FW_COMMON/Srv/Scheduler/lib/CORE1/cagOsCORE1-0.a(strncpy.o)
 .debug_info    0x000000000000bccd       0x7a ../PM_FW_COMMON/Srv/Scheduler/lib/CORE1/cagOsCORE1-0.a(sysAccess.o)
 .debug_info    0x000000000000bd47       0xdb ../PM_FW_COMMON/Srv/Scheduler/lib/CORE1/cagOsCORE1-0.a(sysBanner.o)
 .debug_info    0x000000000000be22      0x3f1 ../PM_FW_COMMON/Srv/Scheduler/lib/CORE1/cagOsCORE1-0.a(sysBoard.o)
 .debug_info    0x000000000000c213      0x287 ../PM_FW_COMMON/Srv/Scheduler/lib/CORE1/cagOsCORE1-0.a(sysCacheE500Lib.o)
 .debug_info    0x000000000000c49a      0xa25 ../PM_FW_COMMON/Srv/Scheduler/lib/CORE1/cagOsCORE1-0.a(sysCfg.o)
 .debug_info    0x000000000000cebf     0x184d ../PM_FW_COMMON/Srv/Scheduler/lib/CORE1/cagOsCORE1-0.a(sysCore.o)
 .debug_info    0x000000000000e70c       0x7e ../PM_FW_COMMON/Srv/Scheduler/lib/CORE1/cagOsCORE1-0.a(sysCpuE500ALib.o)
 .debug_info    0x000000000000e78a      0x4e9 ../PM_FW_COMMON/Srv/Scheduler/lib/CORE1/cagOsCORE1-0.a(sysCpuE500Lib.o)
 .debug_info    0x000000000000ec73      0x139 ../PM_FW_COMMON/Srv/Scheduler/lib/CORE1/cagOsCORE1-0.a(sysDec.o)
 .debug_info    0x000000000000edac     0x1005 ../PM_FW_COMMON/Srv/Scheduler/lib/CORE1/cagOsCORE1-0.a(sysMsg.o)
 .debug_info    0x000000000000fdb1     0x11fb ../PM_FW_COMMON/Srv/Scheduler/lib/CORE1/cagOsCORE1-0.a(sysMutex.o)
 .debug_info    0x0000000000010fac       0x80 ../PM_FW_COMMON/Srv/Scheduler/lib/CORE1/cagOsCORE1-0.a(sysOsIrq.o)
 .debug_info    0x000000000001102c       0x87 ../PM_FW_COMMON/Srv/Scheduler/lib/CORE1/cagOsCORE1-0.a(sysOsSwitchALib.o)
 .debug_info    0x00000000000110b3      0x9b7 ../PM_FW_COMMON/Srv/Scheduler/lib/CORE1/cagOsCORE1-0.a(sysPrio.o)
 .debug_info    0x0000000000011a6a     0x1227 ../PM_FW_COMMON/Srv/Scheduler/lib/CORE1/cagOsCORE1-0.a(sysQueue.o)
 .debug_info    0x0000000000012c91     0x11ba ../PM_FW_COMMON/Srv/Scheduler/lib/CORE1/cagOsCORE1-0.a(sysSem.o)
 .debug_info    0x0000000000013e4b       0x80 ../PM_FW_COMMON/Srv/Scheduler/lib/CORE1/cagOsCORE1-0.a(sysSpeVectorALib.o)
 .debug_info    0x0000000000013ecb      0x199 ../PM_FW_COMMON/Srv/Scheduler/lib/CORE1/cagOsCORE1-0.a(bits.o)
 .debug_info    0x0000000000014064      0x783 ../PM_FW_COMMON/Srv/Scheduler/lib/CORE1/cagOsCORE1-0.a(bLib.o)
 .debug_info    0x00000000000147e7       0xe6 ../PM_FW_COMMON/Srv/Scheduler/lib/CORE1/cagOsCORE1-0.a(fpga.o)
 .debug_info    0x00000000000148cd      0xccb ../PM_FW_COMMON/Srv/Scheduler/lib/CORE1/cagOsCORE1-0.a(fs_api.o)
 .debug_info    0x0000000000015598       0xb9 ../PM_FW_COMMON/Srv/Scheduler/lib/CORE1/cagOsCORE1-0.a(strcmp.o)
 .debug_info    0x0000000000015651     0x1850 ../PM_FW_COMMON/Srv/Scheduler/lib/CORE1/cagOsCORE1-0.a(sysApi.o)
 .debug_info    0x0000000000016ea1       0x80 ../PM_FW_COMMON/Srv/Scheduler/lib/CORE1/cagOsCORE1-0.a(sysCacheE500ALib.o)
 .debug_info    0x0000000000016f21      0x93d ../PM_FW_COMMON/Srv/Scheduler/lib/CORE1/cagOsCORE1-0.a(sysCount.o)
 .debug_info    0x000000000001785e     0x1034 ../PM_FW_COMMON/Srv/SharedMem/src/SharedRtData.o
 .debug_info    0x0000000000018892      0x370 ../PM_FW_COMMON/Srv/SharedMem/src/SharedComm.o
 .debug_info    0x0000000000018c02     0x371d ../PM_FW_COMMON/Srv/SharedMem/src/SharedConfig.o
 .debug_info    0x000000000001c31f      0x5b3 ../PM_FW_COMMON/Srv/SharedMem/src/SharedMem.o
 .debug_info    0x000000000001c8d2     0x105d ../PM_FW_COMMON/Srv/SharedMem/src/LED.o
 .debug_info    0x000000000001d92f      0x1ae ../PM_FW_COMMON/Srv/SharedMem/src/SharedWatchdog.o
 .debug_info    0x000000000001dadd      0x311 ../PM_FW_COMMON/Srv/SharedMem/src/SharedHandshake.o
 .debug_info    0x000000000001ddee      0xbf8 ../PM_FW_COMMON/Srv/SharedMem/src/SharedSafetyComm.o
 .debug_info    0x000000000001e9e6      0xaef ../PM_FW_COMMON/Srv/SharedMem/src/SharedSOE.o
 .debug_info    0x000000000001f4d5      0x1d2 ../PM_FW_COMMON/Srv/SharedMem/src/SharedDiagCode.o
 .debug_info    0x000000000001f6a7       0xfb ./Srv/SysResource/src/SysUpdate.o
 .debug_info    0x000000000001f7a2      0x7e5 /vagrant/workspace/PM_FW_COMMON/Srv/Scheduler/lib/libgcc.a(_udivdi3.o)
 .debug_info    0x000000000001ff87      0x7d9 /vagrant/workspace/PM_FW_COMMON/Srv/Scheduler/lib/libgcc.a(_umoddi3.o)
 .debug_info    0x0000000000020760      0x1fc /vagrant/workspace/PM_FW_COMMON/Srv/Sys/src/libSysCommon.a(CommSysMonitor.o)
 .debug_info    0x000000000002095c      0xae2 /vagrant/workspace/PM_FW_COMMON/Srv/Sys/src/libSysCommon.a(SysHardware.o)
 .debug_info    0x000000000002143e     0x1017 /vagrant/workspace/PM_FW_COMMON/Srv/IPBUS/src/libIPBUS.a(IPBUS.o)
 .debug_info    0x0000000000022455       0x73 App/Main/src/libMain.a(main.o)
 .debug_info    0x00000000000224c8      0x63b App/Main/src/libMain.a(Task.o)
 .debug_info    0x0000000000022b03     0x5905 App/Comm/src/libComm.a(Comm.o)
 .debug_info    0x0000000000028408      0x88c App/Diag/src/libDiag.a(Diag.o)
 .debug_info    0x0000000000028c94      0x864 App/FileManager/src/libFileManager.a(FileManager.o)
 .debug_info    0x00000000000294f8       0x9c App/Manager/src/libManager.a(Manager.o)
 .debug_info    0x0000000000029594     0x1057 App/Manager/src/libManager.a(Key.o)
 .debug_info    0x000000000002a5eb      0x214 App/Manager/src/libManager.a(Watchdog.o)
 .debug_info    0x000000000002a7ff      0x13a App/Monitor/src/libMonitor.a(Monitor.o)
 .debug_info    0x000000000002a939     0x478f App/ProjectConfig/src/libProjectConfig.a(Config.o)
 .debug_info    0x000000000002f0c8     0x3f31 App/Sync/src/libSync.a(Sync.o)
 .debug_info    0x0000000000032ff9     0x2646 App/SysStateManager/src/libSysStateManager.a(StateMngt.o)
 .debug_info    0x000000000003563f     0x2c7b Srv/CommProtocol/src/libCMBusProtocol.a(CMBusProtocol.o)
 .debug_info    0x00000000000382ba      0x3d9 Srv/CommProtocol/src/libCMBusProtocol.a(CMTable.o)
 .debug_info    0x0000000000038693     0x19b3 Srv/SysResource/src/libSys.a(SysCfgFile.o)
 .debug_info    0x000000000003a046      0x47d Srv/SysResource/src/libSys.a(SysCMBus.o)
 .debug_info    0x000000000003a4c3     0x22dc Srv/SysResource/src/libSys.a(SysCommon.o)
 .debug_info    0x000000000003c79f      0x958 Srv/SysResource/src/libSys.a(SysFileManager.o)
 .debug_info    0x000000000003d0f7      0x421 Srv/SysResource/src/libSys.a(SysModbus.o)
 .debug_info    0x000000000003d518      0x441 Srv/SysResource/src/libSys.a(SysP2P.o)
 .debug_info    0x000000000003d959     0x1796 Srv/SysResource/src/libSys.a(SysRTData.o)
 .debug_info    0x000000000003f0ef     0x1339 Srv/SysResource/src/libSys.a(SysMonitor.o)
 .debug_info    0x0000000000040428     0x1212 Srv/SysResource/src/libSys.a(SysSync.o)
 .debug_info    0x000000000004163a      0x7de Srv/SysResource/src/libSys.a(SysStateMngt.o)
 .debug_info    0x0000000000041e18      0x1c6 Srv/SysResource/src/libSys.a(SysPMConfig.o)
 .debug_info    0x0000000000041fde      0x365 /vagrant/workspace/PM_FW_COMMON/Srv/Scheduler/lib/CORE1/cagOsCORE1-0.a(cmbus.o)
 .debug_info    0x0000000000042343      0x1c6 /vagrant/workspace/PM_FW_COMMON/Srv/Scheduler/lib/CORE1/cagOsCORE1-0.a(ipbus.o)
 .debug_info    0x0000000000042509      0x4ec /vagrant/workspace/PM_FW_COMMON/Srv/Scheduler/lib/CORE1/cagOsCORE1-0.a(pcie.o)
 .debug_info    0x00000000000429f5      0x39f /vagrant/workspace/PM_FW_COMMON/Srv/Scheduler/lib/CORE1/cagOsCORE1-0.a(pmbus.o)
 .debug_info    0x0000000000042d94      0x822 /vagrant/workspace/PM_FW_COMMON/Srv/Scheduler/lib/libgcc.a(_divdi3.o)
 .debug_info    0x00000000000435b6      0x80e /vagrant/workspace/PM_FW_COMMON/Srv/Scheduler/lib/libgcc.a(_moddi3.o)
 .debug_info    0x0000000000043dc4      0x517 /vagrant/workspace/PM_FW_COMMON/Srv/SharedMem/src/libSharedMem.a(SharedRetain.o)
 .debug_info    0x00000000000442db      0x1b4 /vagrant/workspace/PM_FW_COMMON/Srv/Algrithm/src/libAlgrithm.a(Algrithm.o)
 .debug_info    0x000000000004448f      0x936 /vagrant/workspace/PM_FW_COMMON/Srv/Diag/src/libCDiag.a(DiagCommon.o)
 .debug_info    0x0000000000044dc5      0x7b7 /vagrant/workspace/PM_FW_COMMON/Srv/Diag/src/libCDiag.a(BoardDiag.o)
 .debug_info    0x000000000004557c      0x149 /vagrant/workspace/PM_FW_COMMON/Srv/Diag/src/libCDiag.a(ExceptionTest.o)
 .debug_info    0x00000000000456c5      0x866 /vagrant/workspace/PM_FW_COMMON/Srv/Diag/src/libCDiag.a(DataCacheTest.o)
 .debug_info    0x0000000000045f2b      0x9a8 /vagrant/workspace/PM_FW_COMMON/Srv/Diag/src/libCDiag.a(CPUTest.o)
 .debug_info    0x00000000000468d3      0x32a /vagrant/workspace/PM_FW_COMMON/Srv/Diag/src/libCDiag.a(CodeTest.o)
 .debug_info    0x0000000000046bfd       0xaf /vagrant/workspace/PM_FW_COMMON/Srv/Diag/src/libCDiag.a(SysTest.o)
 .debug_info    0x0000000000046cac      0x8d3 /vagrant/workspace/PM_FW_COMMON/Srv/Diag/src/libCDiag.a(RamTest.o)
 .debug_info    0x000000000004757f      0x18e /vagrant/workspace/PM_FW_COMMON/Srv/Log/src/libLog.a(Log.o)
 .debug_info    0x000000000004770d      0x3cf /vagrant/workspace/PM_FW_COMMON/Srv/Log/src/libLog.a(LogCore0.o)
 .debug_info    0x0000000000047adc      0x3cf /vagrant/workspace/PM_FW_COMMON/Srv/Log/src/libLog.a(LogCore1.o)
 .debug_info    0x0000000000047eab      0x42f /vagrant/workspace/PM_FW_COMMON/Srv/Log/src/libLog.a(LogUser.o)
 .debug_info    0x00000000000482da      0x1bc /vagrant/workspace/PM_FW_COMMON/Srv/PMBUS/src/libPMBUS.a(PMBUS.o)
 .debug_info    0x0000000000048496     0x1374 /vagrant/workspace/PM_FW_COMMON/Srv/SafetyProtocol/src/libSafetyProtocol.a(P2PSafetyComm.o)
 .debug_info    0x000000000004980a      0x22b /vagrant/workspace/PM_FW_COMMON/Srv/SafetyProtocol/src/libSafetyProtocol.a(SafetyCommon.o)
 .debug_info    0x0000000000049a35      0x279 /vagrant/workspace/PM_FW_COMMON/Srv/Sys/src/libSysCommon.a(CommSysCommom.o)
 .debug_info    0x0000000000049cae      0x12e /vagrant/workspace/PM_FW_COMMON/Srv/Sys/src/libSysCommon.a(CommSysConfig.o)
 .debug_info    0x0000000000049ddc      0x2d0 /vagrant/workspace/PM_FW_COMMON/Srv/Sys/src/libSysCommon.a(CommSysSync.o)
 .debug_info    0x000000000004a0ac      0x20a /vagrant/workspace/PM_FW_COMMON/Srv/Ver/src/libVer.a(Ver.o)
 .debug_info    0x000000000004a2b6       0x9c App/LEDManager/src/libLEDManager.a(LEDManager.o)
 .debug_info    0x000000000004a352       0xcf /vagrant/workspace/PM_FW_COMMON/Srv/Scheduler/lib/CORE1/cagOsCORE1-0.a(sysCacheSb.o)
 .debug_info    0x000000000004a421       0x70 /vagrant/workspace/PM_FW_COMMON/Srv/Diag/asm/libAsmDiag.a(BPU_cond_branch_test_bca.o)
 .debug_info    0x000000000004a491       0x71 /vagrant/workspace/PM_FW_COMMON/Srv/Diag/asm/libAsmDiag.a(BPU_cond_branch_test_bcla.o)
 .debug_info    0x000000000004a502       0x6c /vagrant/workspace/PM_FW_COMMON/Srv/Diag/asm/libAsmDiag.a(BPU_cond_branch_test.o)
 .debug_info    0x000000000004a56e       0x75 /vagrant/workspace/PM_FW_COMMON/Srv/Diag/asm/libAsmDiag.a(BPU_uncond_branch_test_ba_bla.o)
 .debug_info    0x000000000004a5e3       0x6e /vagrant/workspace/PM_FW_COMMON/Srv/Diag/asm/libAsmDiag.a(BPU_uncond_branch_test.o)
 .debug_info    0x000000000004a651       0x5f /vagrant/workspace/PM_FW_COMMON/Srv/Diag/asm/libAsmDiag.a(cr_test.o)
 .debug_info    0x000000000004a6b0       0x67 /vagrant/workspace/PM_FW_COMMON/Srv/Diag/asm/libAsmDiag.a(data_cache_test.o)
 .debug_info    0x000000000004a717       0x6a /vagrant/workspace/PM_FW_COMMON/Srv/Diag/asm/libAsmDiag.a(GPR_interword_test.o)
 .debug_info    0x000000000004a781       0x6a /vagrant/workspace/PM_FW_COMMON/Srv/Diag/asm/libAsmDiag.a(GPR_intraword_test.o)
 .debug_info    0x000000000004a7eb       0x60 /vagrant/workspace/PM_FW_COMMON/Srv/Diag/asm/libAsmDiag.a(IU1_test.o)
 .debug_info    0x000000000004a84b       0x60 /vagrant/workspace/PM_FW_COMMON/Srv/Diag/asm/libAsmDiag.a(IU2_test.o)
 .debug_info    0x000000000004a8ab       0x5f /vagrant/workspace/PM_FW_COMMON/Srv/Diag/asm/libAsmDiag.a(lr_test.o)
 .debug_info    0x000000000004a90a       0x65 /vagrant/workspace/PM_FW_COMMON/Srv/Diag/asm/libAsmDiag.a(LSU_data_test.o)
 .debug_info    0x000000000004a96f       0x68 /vagrant/workspace/PM_FW_COMMON/Srv/Diag/asm/libAsmDiag.a(LSU_ea_calc_test.o)
 .debug_info    0x000000000004a9d7       0x6a /vagrant/workspace/PM_FW_COMMON/Srv/Diag/asm/libAsmDiag.a(SPR_interword_test.o)
 .debug_info    0x000000000004aa41       0x6a /vagrant/workspace/PM_FW_COMMON/Srv/Diag/asm/libAsmDiag.a(SPR_intraword_test.o)
 .debug_info    0x000000000004aaab       0x61 /vagrant/workspace/PM_FW_COMMON/Srv/Diag/asm/libAsmDiag.a(SPRG_test.o)
 .debug_info    0x000000000004ab0c       0x65 /vagrant/workspace/PM_FW_COMMON/Srv/Diag/asm/libAsmDiag.a(Pipeline_test.o)

.debug_abbrev   0x0000000000000000     0x9e1b
 .debug_abbrev  0x0000000000000000       0x8c ./App/Main/src/RTSTaskExeEntryBin0.o
 .debug_abbrev  0x000000000000008c       0x8c ./App/Main/src/DiagTaskExeEntryBin0.o
 .debug_abbrev  0x0000000000000118       0x8c ./App/Main/src/FileTaskExeEntryBin0.o
 .debug_abbrev  0x00000000000001a4       0x8c ./App/Main/src/CommTaskExeEntryBin0.o
 .debug_abbrev  0x0000000000000230       0x14 ../PM_FW_COMMON/Srv/Scheduler/lib/CORE1/cagOsCORE1-0.a(sysCpuALib.o)
 .debug_abbrev  0x0000000000000244      0x1a3 ../PM_FW_COMMON/Srv/Scheduler/lib/CORE1/cagOsCORE1-0.a(sysCpuLib.o)
 .debug_abbrev  0x00000000000003e7       0x14 ../PM_FW_COMMON/Srv/Scheduler/lib/CORE1/cagOsCORE1-0.a(sysE500Tlb.o)
 .debug_abbrev  0x00000000000003fb      0x191 ../PM_FW_COMMON/Srv/Scheduler/lib/CORE1/cagOsCORE1-0.a(sysEntry.o)
 .debug_abbrev  0x000000000000058c       0x14 ../PM_FW_COMMON/Srv/Scheduler/lib/CORE1/cagOsCORE1-0.a(sysExcArchALib.o)
 .debug_abbrev  0x00000000000005a0      0x21f ../PM_FW_COMMON/Srv/Scheduler/lib/CORE1/cagOsCORE1-0.a(sysExcArchLib.o)
 .debug_abbrev  0x00000000000007bf      0x130 ../PM_FW_COMMON/Srv/Scheduler/lib/CORE1/cagOsCORE1-0.a(sysExcLib.o)
 .debug_abbrev  0x00000000000008ef       0xc6 ../PM_FW_COMMON/Srv/Scheduler/lib/CORE1/cagOsCORE1-0.a(sysGpio.o)
 .debug_abbrev  0x00000000000009b5      0x188 ../PM_FW_COMMON/Srv/Scheduler/lib/CORE1/cagOsCORE1-0.a(sysInt.o)
 .debug_abbrev  0x0000000000000b3d       0xc0 ../PM_FW_COMMON/Srv/Scheduler/lib/CORE1/cagOsCORE1-0.a(sysL2Cache.o)
 .debug_abbrev  0x0000000000000bfd      0x1df ../PM_FW_COMMON/Srv/Scheduler/lib/CORE1/cagOsCORE1-0.a(sysOsSwitchLib.o)
 .debug_abbrev  0x0000000000000ddc      0x169 ../PM_FW_COMMON/Srv/Scheduler/lib/CORE1/cagOsCORE1-0.a(sysPic.o)
 .debug_abbrev  0x0000000000000f45       0x80 ../PM_FW_COMMON/Srv/Scheduler/lib/CORE1/cagOsCORE1-0.a(sysSpeExcLib.o)
 .debug_abbrev  0x0000000000000fc5      0x1ef ../PM_FW_COMMON/Srv/Scheduler/lib/CORE1/cagOsCORE1-0.a(sysTask.o)
 .debug_abbrev  0x00000000000011b4       0xe9 ../PM_FW_COMMON/Srv/Scheduler/lib/CORE1/cagOsCORE1-0.a(sysTbl.o)
 .debug_abbrev  0x000000000000129d      0x175 ../PM_FW_COMMON/Srv/Scheduler/lib/CORE1/cagOsCORE1-0.a(sysTick.o)
 .debug_abbrev  0x0000000000001412      0x177 ../PM_FW_COMMON/Srv/Scheduler/lib/CORE1/cagOsCORE1-0.a(sysTime.o)
 .debug_abbrev  0x0000000000001589      0x19d ../PM_FW_COMMON/Srv/Scheduler/lib/CORE1/cagOsCORE1-0.a(update.o)
 .debug_abbrev  0x0000000000001726      0x140 ../PM_FW_COMMON/Srv/Scheduler/lib/CORE1/cagOsCORE1-0.a(dfs.o)
 .debug_abbrev  0x0000000000001866      0x1cc ../PM_FW_COMMON/Srv/Scheduler/lib/CORE1/cagOsCORE1-0.a(hw_init.o)
 .debug_abbrev  0x0000000000001a32      0x1d0 ../PM_FW_COMMON/Srv/Scheduler/lib/CORE1/cagOsCORE1-0.a(lld.o)
 .debug_abbrev  0x0000000000001c02       0x77 ../PM_FW_COMMON/Srv/Scheduler/lib/CORE1/cagOsCORE1-0.a(memcpy.o)
 .debug_abbrev  0x0000000000001c79       0x78 ../PM_FW_COMMON/Srv/Scheduler/lib/CORE1/cagOsCORE1-0.a(memset.o)
 .debug_abbrev  0x0000000000001cf1      0x121 ../PM_FW_COMMON/Srv/Scheduler/lib/CORE1/cagOsCORE1-0.a(ns16550.o)
 .debug_abbrev  0x0000000000001e12      0x20e ../PM_FW_COMMON/Srv/Scheduler/lib/CORE1/cagOsCORE1-0.a(printk.o)
 .debug_abbrev  0x0000000000002020      0x2d2 ../PM_FW_COMMON/Srv/Scheduler/lib/CORE1/cagOsCORE1-0.a(sffs.o)
 .debug_abbrev  0x00000000000022f2      0x164 ../PM_FW_COMMON/Srv/Scheduler/lib/CORE1/cagOsCORE1-0.a(sf.o)
 .debug_abbrev  0x0000000000002456       0x74 ../PM_FW_COMMON/Srv/Scheduler/lib/CORE1/cagOsCORE1-0.a(strcpy.o)
 .debug_abbrev  0x00000000000024ca       0x81 ../PM_FW_COMMON/Srv/Scheduler/lib/CORE1/cagOsCORE1-0.a(strlen.o)
 .debug_abbrev  0x000000000000254b       0x81 ../PM_FW_COMMON/Srv/Scheduler/lib/CORE1/cagOsCORE1-0.a(strncpy.o)
 .debug_abbrev  0x00000000000025cc       0x14 ../PM_FW_COMMON/Srv/Scheduler/lib/CORE1/cagOsCORE1-0.a(sysAccess.o)
 .debug_abbrev  0x00000000000025e0       0x95 ../PM_FW_COMMON/Srv/Scheduler/lib/CORE1/cagOsCORE1-0.a(sysBanner.o)
 .debug_abbrev  0x0000000000002675      0x193 ../PM_FW_COMMON/Srv/Scheduler/lib/CORE1/cagOsCORE1-0.a(sysBoard.o)
 .debug_abbrev  0x0000000000002808      0x110 ../PM_FW_COMMON/Srv/Scheduler/lib/CORE1/cagOsCORE1-0.a(sysCacheE500Lib.o)
 .debug_abbrev  0x0000000000002918       0xf4 ../PM_FW_COMMON/Srv/Scheduler/lib/CORE1/cagOsCORE1-0.a(sysCfg.o)
 .debug_abbrev  0x0000000000002a0c      0x219 ../PM_FW_COMMON/Srv/Scheduler/lib/CORE1/cagOsCORE1-0.a(sysCore.o)
 .debug_abbrev  0x0000000000002c25       0x14 ../PM_FW_COMMON/Srv/Scheduler/lib/CORE1/cagOsCORE1-0.a(sysCpuE500ALib.o)
 .debug_abbrev  0x0000000000002c39      0x175 ../PM_FW_COMMON/Srv/Scheduler/lib/CORE1/cagOsCORE1-0.a(sysCpuE500Lib.o)
 .debug_abbrev  0x0000000000002dae       0xc5 ../PM_FW_COMMON/Srv/Scheduler/lib/CORE1/cagOsCORE1-0.a(sysDec.o)
 .debug_abbrev  0x0000000000002e73      0x17b ../PM_FW_COMMON/Srv/Scheduler/lib/CORE1/cagOsCORE1-0.a(sysMsg.o)
 .debug_abbrev  0x0000000000002fee      0x1ed ../PM_FW_COMMON/Srv/Scheduler/lib/CORE1/cagOsCORE1-0.a(sysMutex.o)
 .debug_abbrev  0x00000000000031db       0x14 ../PM_FW_COMMON/Srv/Scheduler/lib/CORE1/cagOsCORE1-0.a(sysOsIrq.o)
 .debug_abbrev  0x00000000000031ef       0x14 ../PM_FW_COMMON/Srv/Scheduler/lib/CORE1/cagOsCORE1-0.a(sysOsSwitchALib.o)
 .debug_abbrev  0x0000000000003203      0x12f ../PM_FW_COMMON/Srv/Scheduler/lib/CORE1/cagOsCORE1-0.a(sysPrio.o)
 .debug_abbrev  0x0000000000003332      0x1d1 ../PM_FW_COMMON/Srv/Scheduler/lib/CORE1/cagOsCORE1-0.a(sysQueue.o)
 .debug_abbrev  0x0000000000003503      0x1d1 ../PM_FW_COMMON/Srv/Scheduler/lib/CORE1/cagOsCORE1-0.a(sysSem.o)
 .debug_abbrev  0x00000000000036d4       0x14 ../PM_FW_COMMON/Srv/Scheduler/lib/CORE1/cagOsCORE1-0.a(sysSpeVectorALib.o)
 .debug_abbrev  0x00000000000036e8       0xae ../PM_FW_COMMON/Srv/Scheduler/lib/CORE1/cagOsCORE1-0.a(bits.o)
 .debug_abbrev  0x0000000000003796      0x178 ../PM_FW_COMMON/Srv/Scheduler/lib/CORE1/cagOsCORE1-0.a(bLib.o)
 .debug_abbrev  0x000000000000390e       0x7a ../PM_FW_COMMON/Srv/Scheduler/lib/CORE1/cagOsCORE1-0.a(fpga.o)
 .debug_abbrev  0x0000000000003988      0x1bc ../PM_FW_COMMON/Srv/Scheduler/lib/CORE1/cagOsCORE1-0.a(fs_api.o)
 .debug_abbrev  0x0000000000003b44       0x65 ../PM_FW_COMMON/Srv/Scheduler/lib/CORE1/cagOsCORE1-0.a(strcmp.o)
 .debug_abbrev  0x0000000000003ba9      0x240 ../PM_FW_COMMON/Srv/Scheduler/lib/CORE1/cagOsCORE1-0.a(sysApi.o)
 .debug_abbrev  0x0000000000003de9       0x14 ../PM_FW_COMMON/Srv/Scheduler/lib/CORE1/cagOsCORE1-0.a(sysCacheE500ALib.o)
 .debug_abbrev  0x0000000000003dfd      0x127 ../PM_FW_COMMON/Srv/Scheduler/lib/CORE1/cagOsCORE1-0.a(sysCount.o)
 .debug_abbrev  0x0000000000003f24      0x182 ../PM_FW_COMMON/Srv/SharedMem/src/SharedRtData.o
 .debug_abbrev  0x00000000000040a6       0xec ../PM_FW_COMMON/Srv/SharedMem/src/SharedComm.o
 .debug_abbrev  0x0000000000004192      0x28f ../PM_FW_COMMON/Srv/SharedMem/src/SharedConfig.o
 .debug_abbrev  0x0000000000004421      0x181 ../PM_FW_COMMON/Srv/SharedMem/src/SharedMem.o
 .debug_abbrev  0x00000000000045a2      0x13d ../PM_FW_COMMON/Srv/SharedMem/src/LED.o
 .debug_abbrev  0x00000000000046df       0xb0 ../PM_FW_COMMON/Srv/SharedMem/src/SharedWatchdog.o
 .debug_abbrev  0x000000000000478f       0xea ../PM_FW_COMMON/Srv/SharedMem/src/SharedHandshake.o
 .debug_abbrev  0x0000000000004879      0x194 ../PM_FW_COMMON/Srv/SharedMem/src/SharedSafetyComm.o
 .debug_abbrev  0x0000000000004a0d      0x19f ../PM_FW_COMMON/Srv/SharedMem/src/SharedSOE.o
 .debug_abbrev  0x0000000000004bac       0x9e ../PM_FW_COMMON/Srv/SharedMem/src/SharedDiagCode.o
 .debug_abbrev  0x0000000000004c4a       0x8c ./Srv/SysResource/src/SysUpdate.o
 .debug_abbrev  0x0000000000004cd6      0x1ab /vagrant/workspace/PM_FW_COMMON/Srv/Scheduler/lib/libgcc.a(_udivdi3.o)
 .debug_abbrev  0x0000000000004e81      0x1af /vagrant/workspace/PM_FW_COMMON/Srv/Scheduler/lib/libgcc.a(_umoddi3.o)
 .debug_abbrev  0x0000000000005030       0xb3 /vagrant/workspace/PM_FW_COMMON/Srv/Sys/src/libSysCommon.a(CommSysMonitor.o)
 .debug_abbrev  0x00000000000050e3      0x188 /vagrant/workspace/PM_FW_COMMON/Srv/Sys/src/libSysCommon.a(SysHardware.o)
 .debug_abbrev  0x000000000000526b      0x1bb /vagrant/workspace/PM_FW_COMMON/Srv/IPBUS/src/libIPBUS.a(IPBUS.o)
 .debug_abbrev  0x0000000000005426       0x44 App/Main/src/libMain.a(main.o)
 .debug_abbrev  0x000000000000546a      0x1b8 App/Main/src/libMain.a(Task.o)
 .debug_abbrev  0x0000000000005622      0x2f1 App/Comm/src/libComm.a(Comm.o)
 .debug_abbrev  0x0000000000005913      0x16a App/Diag/src/libDiag.a(Diag.o)
 .debug_abbrev  0x0000000000005a7d      0x157 App/FileManager/src/libFileManager.a(FileManager.o)
 .debug_abbrev  0x0000000000005bd4       0x42 App/Manager/src/libManager.a(Manager.o)
 .debug_abbrev  0x0000000000005c16      0x11f App/Manager/src/libManager.a(Key.o)
 .debug_abbrev  0x0000000000005d35       0xa6 App/Manager/src/libManager.a(Watchdog.o)
 .debug_abbrev  0x0000000000005ddb       0xb1 App/Monitor/src/libMonitor.a(Monitor.o)
 .debug_abbrev  0x0000000000005e8c      0x280 App/ProjectConfig/src/libProjectConfig.a(Config.o)
 .debug_abbrev  0x000000000000610c      0x239 App/Sync/src/libSync.a(Sync.o)
 .debug_abbrev  0x0000000000006345      0x1f8 App/SysStateManager/src/libSysStateManager.a(StateMngt.o)
 .debug_abbrev  0x000000000000653d      0x22e Srv/CommProtocol/src/libCMBusProtocol.a(CMBusProtocol.o)
 .debug_abbrev  0x000000000000676b      0x14c Srv/CommProtocol/src/libCMBusProtocol.a(CMTable.o)
 .debug_abbrev  0x00000000000068b7      0x25d Srv/SysResource/src/libSys.a(SysCfgFile.o)
 .debug_abbrev  0x0000000000006b14      0x124 Srv/SysResource/src/libSys.a(SysCMBus.o)
 .debug_abbrev  0x0000000000006c38      0x238 Srv/SysResource/src/libSys.a(SysCommon.o)
 .debug_abbrev  0x0000000000006e70      0x1aa Srv/SysResource/src/libSys.a(SysFileManager.o)
 .debug_abbrev  0x000000000000701a      0x124 Srv/SysResource/src/libSys.a(SysModbus.o)
 .debug_abbrev  0x000000000000713e      0x124 Srv/SysResource/src/libSys.a(SysP2P.o)
 .debug_abbrev  0x0000000000007262      0x24f Srv/SysResource/src/libSys.a(SysRTData.o)
 .debug_abbrev  0x00000000000074b1      0x209 Srv/SysResource/src/libSys.a(SysMonitor.o)
 .debug_abbrev  0x00000000000076ba      0x260 Srv/SysResource/src/libSys.a(SysSync.o)
 .debug_abbrev  0x000000000000791a      0x206 Srv/SysResource/src/libSys.a(SysStateMngt.o)
 .debug_abbrev  0x0000000000007b20       0xe3 Srv/SysResource/src/libSys.a(SysPMConfig.o)
 .debug_abbrev  0x0000000000007c03      0x105 /vagrant/workspace/PM_FW_COMMON/Srv/Scheduler/lib/CORE1/cagOsCORE1-0.a(cmbus.o)
 .debug_abbrev  0x0000000000007d08       0xca /vagrant/workspace/PM_FW_COMMON/Srv/Scheduler/lib/CORE1/cagOsCORE1-0.a(ipbus.o)
 .debug_abbrev  0x0000000000007dd2      0x12d /vagrant/workspace/PM_FW_COMMON/Srv/Scheduler/lib/CORE1/cagOsCORE1-0.a(pcie.o)
 .debug_abbrev  0x0000000000007eff      0x129 /vagrant/workspace/PM_FW_COMMON/Srv/Scheduler/lib/CORE1/cagOsCORE1-0.a(pmbus.o)
 .debug_abbrev  0x0000000000008028      0x1ba /vagrant/workspace/PM_FW_COMMON/Srv/Scheduler/lib/libgcc.a(_divdi3.o)
 .debug_abbrev  0x00000000000081e2      0x1b1 /vagrant/workspace/PM_FW_COMMON/Srv/Scheduler/lib/libgcc.a(_moddi3.o)
 .debug_abbrev  0x0000000000008393      0x13c /vagrant/workspace/PM_FW_COMMON/Srv/SharedMem/src/libSharedMem.a(SharedRetain.o)
 .debug_abbrev  0x00000000000084cf       0xa2 /vagrant/workspace/PM_FW_COMMON/Srv/Algrithm/src/libAlgrithm.a(Algrithm.o)
 .debug_abbrev  0x0000000000008571      0x1b9 /vagrant/workspace/PM_FW_COMMON/Srv/Diag/src/libCDiag.a(DiagCommon.o)
 .debug_abbrev  0x000000000000872a      0x1b2 /vagrant/workspace/PM_FW_COMMON/Srv/Diag/src/libCDiag.a(BoardDiag.o)
 .debug_abbrev  0x00000000000088dc       0xc7 /vagrant/workspace/PM_FW_COMMON/Srv/Diag/src/libCDiag.a(ExceptionTest.o)
 .debug_abbrev  0x00000000000089a3      0x1ba /vagrant/workspace/PM_FW_COMMON/Srv/Diag/src/libCDiag.a(DataCacheTest.o)
 .debug_abbrev  0x0000000000008b5d      0x199 /vagrant/workspace/PM_FW_COMMON/Srv/Diag/src/libCDiag.a(CPUTest.o)
 .debug_abbrev  0x0000000000008cf6      0x122 /vagrant/workspace/PM_FW_COMMON/Srv/Diag/src/libCDiag.a(CodeTest.o)
 .debug_abbrev  0x0000000000008e18       0x9c /vagrant/workspace/PM_FW_COMMON/Srv/Diag/src/libCDiag.a(SysTest.o)
 .debug_abbrev  0x0000000000008eb4      0x184 /vagrant/workspace/PM_FW_COMMON/Srv/Diag/src/libCDiag.a(RamTest.o)
 .debug_abbrev  0x0000000000009038       0xca /vagrant/workspace/PM_FW_COMMON/Srv/Log/src/libLog.a(Log.o)
 .debug_abbrev  0x0000000000009102      0x12c /vagrant/workspace/PM_FW_COMMON/Srv/Log/src/libLog.a(LogCore0.o)
 .debug_abbrev  0x000000000000922e      0x12c /vagrant/workspace/PM_FW_COMMON/Srv/Log/src/libLog.a(LogCore1.o)
 .debug_abbrev  0x000000000000935a      0x176 /vagrant/workspace/PM_FW_COMMON/Srv/Log/src/libLog.a(LogUser.o)
 .debug_abbrev  0x00000000000094d0       0xd1 /vagrant/workspace/PM_FW_COMMON/Srv/PMBUS/src/libPMBUS.a(PMBUS.o)
 .debug_abbrev  0x00000000000095a1      0x1ce /vagrant/workspace/PM_FW_COMMON/Srv/SafetyProtocol/src/libSafetyProtocol.a(P2PSafetyComm.o)
 .debug_abbrev  0x000000000000976f       0xeb /vagrant/workspace/PM_FW_COMMON/Srv/SafetyProtocol/src/libSafetyProtocol.a(SafetyCommon.o)
 .debug_abbrev  0x000000000000985a       0xd5 /vagrant/workspace/PM_FW_COMMON/Srv/Sys/src/libSysCommon.a(CommSysCommom.o)
 .debug_abbrev  0x000000000000992f       0xb7 /vagrant/workspace/PM_FW_COMMON/Srv/Sys/src/libSysCommon.a(CommSysConfig.o)
 .debug_abbrev  0x00000000000099e6      0x13f /vagrant/workspace/PM_FW_COMMON/Srv/Sys/src/libSysCommon.a(CommSysSync.o)
 .debug_abbrev  0x0000000000009b25       0xce /vagrant/workspace/PM_FW_COMMON/Srv/Ver/src/libVer.a(Ver.o)
 .debug_abbrev  0x0000000000009bf3       0x42 App/LEDManager/src/libLEDManager.a(LEDManager.o)
 .debug_abbrev  0x0000000000009c35       0x7e /vagrant/workspace/PM_FW_COMMON/Srv/Scheduler/lib/CORE1/cagOsCORE1-0.a(sysCacheSb.o)
 .debug_abbrev  0x0000000000009cb3       0x14 /vagrant/workspace/PM_FW_COMMON/Srv/Diag/asm/libAsmDiag.a(BPU_cond_branch_test_bca.o)
 .debug_abbrev  0x0000000000009cc7       0x14 /vagrant/workspace/PM_FW_COMMON/Srv/Diag/asm/libAsmDiag.a(BPU_cond_branch_test_bcla.o)
 .debug_abbrev  0x0000000000009cdb       0x14 /vagrant/workspace/PM_FW_COMMON/Srv/Diag/asm/libAsmDiag.a(BPU_cond_branch_test.o)
 .debug_abbrev  0x0000000000009cef       0x14 /vagrant/workspace/PM_FW_COMMON/Srv/Diag/asm/libAsmDiag.a(BPU_uncond_branch_test_ba_bla.o)
 .debug_abbrev  0x0000000000009d03       0x14 /vagrant/workspace/PM_FW_COMMON/Srv/Diag/asm/libAsmDiag.a(BPU_uncond_branch_test.o)
 .debug_abbrev  0x0000000000009d17       0x14 /vagrant/workspace/PM_FW_COMMON/Srv/Diag/asm/libAsmDiag.a(cr_test.o)
 .debug_abbrev  0x0000000000009d2b       0x14 /vagrant/workspace/PM_FW_COMMON/Srv/Diag/asm/libAsmDiag.a(data_cache_test.o)
 .debug_abbrev  0x0000000000009d3f       0x14 /vagrant/workspace/PM_FW_COMMON/Srv/Diag/asm/libAsmDiag.a(GPR_interword_test.o)
 .debug_abbrev  0x0000000000009d53       0x14 /vagrant/workspace/PM_FW_COMMON/Srv/Diag/asm/libAsmDiag.a(GPR_intraword_test.o)
 .debug_abbrev  0x0000000000009d67       0x14 /vagrant/workspace/PM_FW_COMMON/Srv/Diag/asm/libAsmDiag.a(IU1_test.o)
 .debug_abbrev  0x0000000000009d7b       0x14 /vagrant/workspace/PM_FW_COMMON/Srv/Diag/asm/libAsmDiag.a(IU2_test.o)
 .debug_abbrev  0x0000000000009d8f       0x14 /vagrant/workspace/PM_FW_COMMON/Srv/Diag/asm/libAsmDiag.a(lr_test.o)
 .debug_abbrev  0x0000000000009da3       0x14 /vagrant/workspace/PM_FW_COMMON/Srv/Diag/asm/libAsmDiag.a(LSU_data_test.o)
 .debug_abbrev  0x0000000000009db7       0x14 /vagrant/workspace/PM_FW_COMMON/Srv/Diag/asm/libAsmDiag.a(LSU_ea_calc_test.o)
 .debug_abbrev  0x0000000000009dcb       0x14 /vagrant/workspace/PM_FW_COMMON/Srv/Diag/asm/libAsmDiag.a(SPR_interword_test.o)
 .debug_abbrev  0x0000000000009ddf       0x14 /vagrant/workspace/PM_FW_COMMON/Srv/Diag/asm/libAsmDiag.a(SPR_intraword_test.o)
 .debug_abbrev  0x0000000000009df3       0x14 /vagrant/workspace/PM_FW_COMMON/Srv/Diag/asm/libAsmDiag.a(SPRG_test.o)
 .debug_abbrev  0x0000000000009e07       0x14 /vagrant/workspace/PM_FW_COMMON/Srv/Diag/asm/libAsmDiag.a(Pipeline_test.o)

.debug_aranges  0x0000000000000000     0x3878
 .debug_aranges
                0x0000000000000000       0x20 ./App/Main/src/RTSTaskExeEntryBin0.o
 .debug_aranges
                0x0000000000000020       0x20 ./App/Main/src/DiagTaskExeEntryBin0.o
 .debug_aranges
                0x0000000000000040       0x20 ./App/Main/src/FileTaskExeEntryBin0.o
 .debug_aranges
                0x0000000000000060       0x20 ./App/Main/src/CommTaskExeEntryBin0.o
 .debug_aranges
                0x0000000000000080       0x20 ../PM_FW_COMMON/Srv/Scheduler/lib/CORE1/cagOsCORE1-0.a(sysCpuALib.o)
 .debug_aranges
                0x00000000000000a0       0x68 ../PM_FW_COMMON/Srv/Scheduler/lib/CORE1/cagOsCORE1-0.a(sysCpuLib.o)
 .debug_aranges
                0x0000000000000108       0x20 ../PM_FW_COMMON/Srv/Scheduler/lib/CORE1/cagOsCORE1-0.a(sysE500Tlb.o)
 .debug_aranges
                0x0000000000000128       0x48 ../PM_FW_COMMON/Srv/Scheduler/lib/CORE1/cagOsCORE1-0.a(sysEntry.o)
 .debug_aranges
                0x0000000000000170       0x20 ../PM_FW_COMMON/Srv/Scheduler/lib/CORE1/cagOsCORE1-0.a(sysExcArchALib.o)
 .debug_aranges
                0x0000000000000190       0x50 ../PM_FW_COMMON/Srv/Scheduler/lib/CORE1/cagOsCORE1-0.a(sysExcArchLib.o)
 .debug_aranges
                0x00000000000001e0       0x38 ../PM_FW_COMMON/Srv/Scheduler/lib/CORE1/cagOsCORE1-0.a(sysExcLib.o)
 .debug_aranges
                0x0000000000000218       0x50 ../PM_FW_COMMON/Srv/Scheduler/lib/CORE1/cagOsCORE1-0.a(sysGpio.o)
 .debug_aranges
                0x0000000000000268       0x38 ../PM_FW_COMMON/Srv/Scheduler/lib/CORE1/cagOsCORE1-0.a(sysInt.o)
 .debug_aranges
                0x00000000000002a0       0x40 ../PM_FW_COMMON/Srv/Scheduler/lib/CORE1/cagOsCORE1-0.a(sysL2Cache.o)
 .debug_aranges
                0x00000000000002e0       0x70 ../PM_FW_COMMON/Srv/Scheduler/lib/CORE1/cagOsCORE1-0.a(sysOsSwitchLib.o)
 .debug_aranges
                0x0000000000000350       0x50 ../PM_FW_COMMON/Srv/Scheduler/lib/CORE1/cagOsCORE1-0.a(sysPic.o)
 .debug_aranges
                0x00000000000003a0       0x20 ../PM_FW_COMMON/Srv/Scheduler/lib/CORE1/cagOsCORE1-0.a(sysSpeExcLib.o)
 .debug_aranges
                0x00000000000003c0       0xa0 ../PM_FW_COMMON/Srv/Scheduler/lib/CORE1/cagOsCORE1-0.a(sysTask.o)
 .debug_aranges
                0x0000000000000460       0x48 ../PM_FW_COMMON/Srv/Scheduler/lib/CORE1/cagOsCORE1-0.a(sysTbl.o)
 .debug_aranges
                0x00000000000004a8       0x50 ../PM_FW_COMMON/Srv/Scheduler/lib/CORE1/cagOsCORE1-0.a(sysTick.o)
 .debug_aranges
                0x00000000000004f8       0x40 ../PM_FW_COMMON/Srv/Scheduler/lib/CORE1/cagOsCORE1-0.a(sysTime.o)
 .debug_aranges
                0x0000000000000538       0x50 ../PM_FW_COMMON/Srv/Scheduler/lib/CORE1/cagOsCORE1-0.a(update.o)
 .debug_aranges
                0x0000000000000588       0x58 ../PM_FW_COMMON/Srv/Scheduler/lib/CORE1/cagOsCORE1-0.a(dfs.o)
 .debug_aranges
                0x00000000000005e0       0x40 ../PM_FW_COMMON/Srv/Scheduler/lib/CORE1/cagOsCORE1-0.a(hw_init.o)
 .debug_aranges
                0x0000000000000620      0x130 ../PM_FW_COMMON/Srv/Scheduler/lib/CORE1/cagOsCORE1-0.a(lld.o)
 .debug_aranges
                0x0000000000000750       0x20 ../PM_FW_COMMON/Srv/Scheduler/lib/CORE1/cagOsCORE1-0.a(memcpy.o)
 .debug_aranges
                0x0000000000000770       0x20 ../PM_FW_COMMON/Srv/Scheduler/lib/CORE1/cagOsCORE1-0.a(memset.o)
 .debug_aranges
                0x0000000000000790       0x40 ../PM_FW_COMMON/Srv/Scheduler/lib/CORE1/cagOsCORE1-0.a(ns16550.o)
 .debug_aranges
                0x00000000000007d0       0x70 ../PM_FW_COMMON/Srv/Scheduler/lib/CORE1/cagOsCORE1-0.a(printk.o)
 .debug_aranges
                0x0000000000000840      0x158 ../PM_FW_COMMON/Srv/Scheduler/lib/CORE1/cagOsCORE1-0.a(sffs.o)
 .debug_aranges
                0x0000000000000998       0x50 ../PM_FW_COMMON/Srv/Scheduler/lib/CORE1/cagOsCORE1-0.a(sf.o)
 .debug_aranges
                0x00000000000009e8       0x20 ../PM_FW_COMMON/Srv/Scheduler/lib/CORE1/cagOsCORE1-0.a(strcpy.o)
 .debug_aranges
                0x0000000000000a08       0x20 ../PM_FW_COMMON/Srv/Scheduler/lib/CORE1/cagOsCORE1-0.a(strlen.o)
 .debug_aranges
                0x0000000000000a28       0x20 ../PM_FW_COMMON/Srv/Scheduler/lib/CORE1/cagOsCORE1-0.a(strncpy.o)
 .debug_aranges
                0x0000000000000a48       0x20 ../PM_FW_COMMON/Srv/Scheduler/lib/CORE1/cagOsCORE1-0.a(sysAccess.o)
 .debug_aranges
                0x0000000000000a68       0x28 ../PM_FW_COMMON/Srv/Scheduler/lib/CORE1/cagOsCORE1-0.a(sysBanner.o)
 .debug_aranges
                0x0000000000000a90       0x90 ../PM_FW_COMMON/Srv/Scheduler/lib/CORE1/cagOsCORE1-0.a(sysBoard.o)
 .debug_aranges
                0x0000000000000b20       0x78 ../PM_FW_COMMON/Srv/Scheduler/lib/CORE1/cagOsCORE1-0.a(sysCacheE500Lib.o)
 .debug_aranges
                0x0000000000000b98       0x20 ../PM_FW_COMMON/Srv/Scheduler/lib/CORE1/cagOsCORE1-0.a(sysCfg.o)
 .debug_aranges
                0x0000000000000bb8      0x120 ../PM_FW_COMMON/Srv/Scheduler/lib/CORE1/cagOsCORE1-0.a(sysCore.o)
 .debug_aranges
                0x0000000000000cd8       0x20 ../PM_FW_COMMON/Srv/Scheduler/lib/CORE1/cagOsCORE1-0.a(sysCpuE500ALib.o)
 .debug_aranges
                0x0000000000000cf8       0x38 ../PM_FW_COMMON/Srv/Scheduler/lib/CORE1/cagOsCORE1-0.a(sysCpuE500Lib.o)
 .debug_aranges
                0x0000000000000d30       0x28 ../PM_FW_COMMON/Srv/Scheduler/lib/CORE1/cagOsCORE1-0.a(sysDec.o)
 .debug_aranges
                0x0000000000000d58       0x40 ../PM_FW_COMMON/Srv/Scheduler/lib/CORE1/cagOsCORE1-0.a(sysMsg.o)
 .debug_aranges
                0x0000000000000d98       0x70 ../PM_FW_COMMON/Srv/Scheduler/lib/CORE1/cagOsCORE1-0.a(sysMutex.o)
 .debug_aranges
                0x0000000000000e08       0x20 ../PM_FW_COMMON/Srv/Scheduler/lib/CORE1/cagOsCORE1-0.a(sysOsIrq.o)
 .debug_aranges
                0x0000000000000e28       0x20 ../PM_FW_COMMON/Srv/Scheduler/lib/CORE1/cagOsCORE1-0.a(sysOsSwitchALib.o)
 .debug_aranges
                0x0000000000000e48       0x38 ../PM_FW_COMMON/Srv/Scheduler/lib/CORE1/cagOsCORE1-0.a(sysPrio.o)
 .debug_aranges
                0x0000000000000e80       0x60 ../PM_FW_COMMON/Srv/Scheduler/lib/CORE1/cagOsCORE1-0.a(sysQueue.o)
 .debug_aranges
                0x0000000000000ee0       0x60 ../PM_FW_COMMON/Srv/Scheduler/lib/CORE1/cagOsCORE1-0.a(sysSem.o)
 .debug_aranges
                0x0000000000000f40       0x20 ../PM_FW_COMMON/Srv/Scheduler/lib/CORE1/cagOsCORE1-0.a(sysSpeVectorALib.o)
 .debug_aranges
                0x0000000000000f60       0x38 ../PM_FW_COMMON/Srv/Scheduler/lib/CORE1/cagOsCORE1-0.a(bits.o)
 .debug_aranges
                0x0000000000000f98       0x90 ../PM_FW_COMMON/Srv/Scheduler/lib/CORE1/cagOsCORE1-0.a(bLib.o)
 .debug_aranges
                0x0000000000001028       0x28 ../PM_FW_COMMON/Srv/Scheduler/lib/CORE1/cagOsCORE1-0.a(fpga.o)
 .debug_aranges
                0x0000000000001050       0xe8 ../PM_FW_COMMON/Srv/Scheduler/lib/CORE1/cagOsCORE1-0.a(fs_api.o)
 .debug_aranges
                0x0000000000001138       0x20 ../PM_FW_COMMON/Srv/Scheduler/lib/CORE1/cagOsCORE1-0.a(strcmp.o)
 .debug_aranges
                0x0000000000001158       0xf8 ../PM_FW_COMMON/Srv/Scheduler/lib/CORE1/cagOsCORE1-0.a(sysApi.o)
 .debug_aranges
                0x0000000000001250       0x20 ../PM_FW_COMMON/Srv/Scheduler/lib/CORE1/cagOsCORE1-0.a(sysCacheE500ALib.o)
 .debug_aranges
                0x0000000000001270       0x28 ../PM_FW_COMMON/Srv/Scheduler/lib/CORE1/cagOsCORE1-0.a(sysCount.o)
 .debug_aranges
                0x0000000000001298       0x30 ../PM_FW_COMMON/Srv/SharedMem/src/SharedRtData.o
 .debug_aranges
                0x00000000000012c8       0x30 ../PM_FW_COMMON/Srv/SharedMem/src/SharedComm.o
 .debug_aranges
                0x00000000000012f8      0x370 ../PM_FW_COMMON/Srv/SharedMem/src/SharedConfig.o
 .debug_aranges
                0x0000000000001668       0x78 ../PM_FW_COMMON/Srv/SharedMem/src/SharedMem.o
 .debug_aranges
                0x00000000000016e0       0x38 ../PM_FW_COMMON/Srv/SharedMem/src/LED.o
 .debug_aranges
                0x0000000000001718       0x30 ../PM_FW_COMMON/Srv/SharedMem/src/SharedWatchdog.o
 .debug_aranges
                0x0000000000001748       0x40 ../PM_FW_COMMON/Srv/SharedMem/src/SharedHandshake.o
 .debug_aranges
                0x0000000000001788      0x160 ../PM_FW_COMMON/Srv/SharedMem/src/SharedSafetyComm.o
 .debug_aranges
                0x00000000000018e8       0x78 ../PM_FW_COMMON/Srv/SharedMem/src/SharedSOE.o
 .debug_aranges
                0x0000000000001960       0x20 ../PM_FW_COMMON/Srv/SharedMem/src/SharedDiagCode.o
 .debug_aranges
                0x0000000000001980       0x20 ./Srv/SysResource/src/SysUpdate.o
 .debug_aranges
                0x00000000000019a0       0x20 /vagrant/workspace/PM_FW_COMMON/Srv/Scheduler/lib/libgcc.a(_udivdi3.o)
 .debug_aranges
                0x00000000000019c0       0x20 /vagrant/workspace/PM_FW_COMMON/Srv/Scheduler/lib/libgcc.a(_umoddi3.o)
 .debug_aranges
                0x00000000000019e0       0x48 /vagrant/workspace/PM_FW_COMMON/Srv/Sys/src/libSysCommon.a(CommSysMonitor.o)
 .debug_aranges
                0x0000000000001a28      0x188 /vagrant/workspace/PM_FW_COMMON/Srv/Sys/src/libSysCommon.a(SysHardware.o)
 .debug_aranges
                0x0000000000001bb0      0x250 /vagrant/workspace/PM_FW_COMMON/Srv/IPBUS/src/libIPBUS.a(IPBUS.o)
 .debug_aranges
                0x0000000000001e00       0x20 App/Main/src/libMain.a(main.o)
 .debug_aranges
                0x0000000000001e20       0x78 App/Main/src/libMain.a(Task.o)
 .debug_aranges
                0x0000000000001e98      0x218 App/Comm/src/libComm.a(Comm.o)
 .debug_aranges
                0x00000000000020b0       0x38 App/Diag/src/libDiag.a(Diag.o)
 .debug_aranges
                0x00000000000020e8       0x98 App/FileManager/src/libFileManager.a(FileManager.o)
 .debug_aranges
                0x0000000000002180       0x28 App/Manager/src/libManager.a(Manager.o)
 .debug_aranges
                0x00000000000021a8       0x28 App/Manager/src/libManager.a(Key.o)
 .debug_aranges
                0x00000000000021d0       0x38 App/Manager/src/libManager.a(Watchdog.o)
 .debug_aranges
                0x0000000000002208       0x30 App/Monitor/src/libMonitor.a(Monitor.o)
 .debug_aranges
                0x0000000000002238      0x160 App/ProjectConfig/src/libProjectConfig.a(Config.o)
 .debug_aranges
                0x0000000000002398      0x170 App/Sync/src/libSync.a(Sync.o)
 .debug_aranges
                0x0000000000002508       0xe0 App/SysStateManager/src/libSysStateManager.a(StateMngt.o)
 .debug_aranges
                0x00000000000025e8      0x100 Srv/CommProtocol/src/libCMBusProtocol.a(CMBusProtocol.o)
 .debug_aranges
                0x00000000000026e8       0x40 Srv/CommProtocol/src/libCMBusProtocol.a(CMTable.o)
 .debug_aranges
                0x0000000000002728      0x178 Srv/SysResource/src/libSys.a(SysCfgFile.o)
 .debug_aranges
                0x00000000000028a0       0x38 Srv/SysResource/src/libSys.a(SysCMBus.o)
 .debug_aranges
                0x00000000000028d8      0x110 Srv/SysResource/src/libSys.a(SysCommon.o)
 .debug_aranges
                0x00000000000029e8       0x80 Srv/SysResource/src/libSys.a(SysFileManager.o)
 .debug_aranges
                0x0000000000002a68       0x38 Srv/SysResource/src/libSys.a(SysModbus.o)
 .debug_aranges
                0x0000000000002aa0       0x38 Srv/SysResource/src/libSys.a(SysP2P.o)
 .debug_aranges
                0x0000000000002ad8       0x60 Srv/SysResource/src/libSys.a(SysRTData.o)
 .debug_aranges
                0x0000000000002b38       0x80 Srv/SysResource/src/libSys.a(SysMonitor.o)
 .debug_aranges
                0x0000000000002bb8      0x110 Srv/SysResource/src/libSys.a(SysSync.o)
 .debug_aranges
                0x0000000000002cc8       0x80 Srv/SysResource/src/libSys.a(SysStateMngt.o)
 .debug_aranges
                0x0000000000002d48       0x30 Srv/SysResource/src/libSys.a(SysPMConfig.o)
 .debug_aranges
                0x0000000000002d78       0x50 /vagrant/workspace/PM_FW_COMMON/Srv/Scheduler/lib/CORE1/cagOsCORE1-0.a(cmbus.o)
 .debug_aranges
                0x0000000000002dc8       0x28 /vagrant/workspace/PM_FW_COMMON/Srv/Scheduler/lib/CORE1/cagOsCORE1-0.a(ipbus.o)
 .debug_aranges
                0x0000000000002df0       0x60 /vagrant/workspace/PM_FW_COMMON/Srv/Scheduler/lib/CORE1/cagOsCORE1-0.a(pcie.o)
 .debug_aranges
                0x0000000000002e50       0x68 /vagrant/workspace/PM_FW_COMMON/Srv/Scheduler/lib/CORE1/cagOsCORE1-0.a(pmbus.o)
 .debug_aranges
                0x0000000000002eb8       0x20 /vagrant/workspace/PM_FW_COMMON/Srv/Scheduler/lib/libgcc.a(_divdi3.o)
 .debug_aranges
                0x0000000000002ed8       0x20 /vagrant/workspace/PM_FW_COMMON/Srv/Scheduler/lib/libgcc.a(_moddi3.o)
 .debug_aranges
                0x0000000000002ef8       0x70 /vagrant/workspace/PM_FW_COMMON/Srv/SharedMem/src/libSharedMem.a(SharedRetain.o)
 .debug_aranges
                0x0000000000002f68       0x28 /vagrant/workspace/PM_FW_COMMON/Srv/Algrithm/src/libAlgrithm.a(Algrithm.o)
 .debug_aranges
                0x0000000000002f90       0x88 /vagrant/workspace/PM_FW_COMMON/Srv/Diag/src/libCDiag.a(DiagCommon.o)
 .debug_aranges
                0x0000000000003018       0x90 /vagrant/workspace/PM_FW_COMMON/Srv/Diag/src/libCDiag.a(BoardDiag.o)
 .debug_aranges
                0x00000000000030a8       0x30 /vagrant/workspace/PM_FW_COMMON/Srv/Diag/src/libCDiag.a(ExceptionTest.o)
 .debug_aranges
                0x00000000000030d8       0x68 /vagrant/workspace/PM_FW_COMMON/Srv/Diag/src/libCDiag.a(DataCacheTest.o)
 .debug_aranges
                0x0000000000003140       0xc0 /vagrant/workspace/PM_FW_COMMON/Srv/Diag/src/libCDiag.a(CPUTest.o)
 .debug_aranges
                0x0000000000003200       0x28 /vagrant/workspace/PM_FW_COMMON/Srv/Diag/src/libCDiag.a(CodeTest.o)
 .debug_aranges
                0x0000000000003228       0x28 /vagrant/workspace/PM_FW_COMMON/Srv/Diag/src/libCDiag.a(SysTest.o)
 .debug_aranges
                0x0000000000003250       0x68 /vagrant/workspace/PM_FW_COMMON/Srv/Diag/src/libCDiag.a(RamTest.o)
 .debug_aranges
                0x00000000000032b8       0x30 /vagrant/workspace/PM_FW_COMMON/Srv/Log/src/libLog.a(Log.o)
 .debug_aranges
                0x00000000000032e8       0x40 /vagrant/workspace/PM_FW_COMMON/Srv/Log/src/libLog.a(LogCore0.o)
 .debug_aranges
                0x0000000000003328       0x40 /vagrant/workspace/PM_FW_COMMON/Srv/Log/src/libLog.a(LogCore1.o)
 .debug_aranges
                0x0000000000003368       0x60 /vagrant/workspace/PM_FW_COMMON/Srv/Log/src/libLog.a(LogUser.o)
 .debug_aranges
                0x00000000000033c8       0x30 /vagrant/workspace/PM_FW_COMMON/Srv/PMBUS/src/libPMBUS.a(PMBUS.o)
 .debug_aranges
                0x00000000000033f8       0xe8 /vagrant/workspace/PM_FW_COMMON/Srv/SafetyProtocol/src/libSafetyProtocol.a(P2PSafetyComm.o)
 .debug_aranges
                0x00000000000034e0       0x40 /vagrant/workspace/PM_FW_COMMON/Srv/SafetyProtocol/src/libSafetyProtocol.a(SafetyCommon.o)
 .debug_aranges
                0x0000000000003520       0x40 /vagrant/workspace/PM_FW_COMMON/Srv/Sys/src/libSysCommon.a(CommSysCommom.o)
 .debug_aranges
                0x0000000000003560       0x20 /vagrant/workspace/PM_FW_COMMON/Srv/Sys/src/libSysCommon.a(CommSysConfig.o)
 .debug_aranges
                0x0000000000003580       0x40 /vagrant/workspace/PM_FW_COMMON/Srv/Sys/src/libSysCommon.a(CommSysSync.o)
 .debug_aranges
                0x00000000000035c0       0x28 /vagrant/workspace/PM_FW_COMMON/Srv/Ver/src/libVer.a(Ver.o)
 .debug_aranges
                0x00000000000035e8       0x28 App/LEDManager/src/libLEDManager.a(LEDManager.o)
 .debug_aranges
                0x0000000000003610       0x28 /vagrant/workspace/PM_FW_COMMON/Srv/Scheduler/lib/CORE1/cagOsCORE1-0.a(sysCacheSb.o)
 .debug_aranges
                0x0000000000003638       0x20 /vagrant/workspace/PM_FW_COMMON/Srv/Diag/asm/libAsmDiag.a(BPU_cond_branch_test_bca.o)
 .debug_aranges
                0x0000000000003658       0x20 /vagrant/workspace/PM_FW_COMMON/Srv/Diag/asm/libAsmDiag.a(BPU_cond_branch_test_bcla.o)
 .debug_aranges
                0x0000000000003678       0x20 /vagrant/workspace/PM_FW_COMMON/Srv/Diag/asm/libAsmDiag.a(BPU_cond_branch_test.o)
 .debug_aranges
                0x0000000000003698       0x20 /vagrant/workspace/PM_FW_COMMON/Srv/Diag/asm/libAsmDiag.a(BPU_uncond_branch_test_ba_bla.o)
 .debug_aranges
                0x00000000000036b8       0x20 /vagrant/workspace/PM_FW_COMMON/Srv/Diag/asm/libAsmDiag.a(BPU_uncond_branch_test.o)
 .debug_aranges
                0x00000000000036d8       0x20 /vagrant/workspace/PM_FW_COMMON/Srv/Diag/asm/libAsmDiag.a(cr_test.o)
 .debug_aranges
                0x00000000000036f8       0x20 /vagrant/workspace/PM_FW_COMMON/Srv/Diag/asm/libAsmDiag.a(data_cache_test.o)
 .debug_aranges
                0x0000000000003718       0x20 /vagrant/workspace/PM_FW_COMMON/Srv/Diag/asm/libAsmDiag.a(GPR_interword_test.o)
 .debug_aranges
                0x0000000000003738       0x20 /vagrant/workspace/PM_FW_COMMON/Srv/Diag/asm/libAsmDiag.a(GPR_intraword_test.o)
 .debug_aranges
                0x0000000000003758       0x20 /vagrant/workspace/PM_FW_COMMON/Srv/Diag/asm/libAsmDiag.a(IU1_test.o)
 .debug_aranges
                0x0000000000003778       0x20 /vagrant/workspace/PM_FW_COMMON/Srv/Diag/asm/libAsmDiag.a(IU2_test.o)
 .debug_aranges
                0x0000000000003798       0x20 /vagrant/workspace/PM_FW_COMMON/Srv/Diag/asm/libAsmDiag.a(lr_test.o)
 .debug_aranges
                0x00000000000037b8       0x20 /vagrant/workspace/PM_FW_COMMON/Srv/Diag/asm/libAsmDiag.a(LSU_data_test.o)
 .debug_aranges
                0x00000000000037d8       0x20 /vagrant/workspace/PM_FW_COMMON/Srv/Diag/asm/libAsmDiag.a(LSU_ea_calc_test.o)
 .debug_aranges
                0x00000000000037f8       0x20 /vagrant/workspace/PM_FW_COMMON/Srv/Diag/asm/libAsmDiag.a(SPR_interword_test.o)
 .debug_aranges
                0x0000000000003818       0x20 /vagrant/workspace/PM_FW_COMMON/Srv/Diag/asm/libAsmDiag.a(SPR_intraword_test.o)
 .debug_aranges
                0x0000000000003838       0x20 /vagrant/workspace/PM_FW_COMMON/Srv/Diag/asm/libAsmDiag.a(SPRG_test.o)
 .debug_aranges
                0x0000000000003858       0x20 /vagrant/workspace/PM_FW_COMMON/Srv/Diag/asm/libAsmDiag.a(Pipeline_test.o)

.debug_ranges   0x0000000000000000     0x3030
 .debug_ranges  0x0000000000000000       0x10 ./App/Main/src/RTSTaskExeEntryBin0.o
 .debug_ranges  0x0000000000000010       0x10 ./App/Main/src/DiagTaskExeEntryBin0.o
 .debug_ranges  0x0000000000000020       0x10 ./App/Main/src/FileTaskExeEntryBin0.o
 .debug_ranges  0x0000000000000030       0x10 ./App/Main/src/CommTaskExeEntryBin0.o
 .debug_ranges  0x0000000000000040       0x58 ../PM_FW_COMMON/Srv/Scheduler/lib/CORE1/cagOsCORE1-0.a(sysCpuLib.o)
 .debug_ranges  0x0000000000000098       0x38 ../PM_FW_COMMON/Srv/Scheduler/lib/CORE1/cagOsCORE1-0.a(sysEntry.o)
 .debug_ranges  0x00000000000000d0       0x40 ../PM_FW_COMMON/Srv/Scheduler/lib/CORE1/cagOsCORE1-0.a(sysExcArchLib.o)
 .debug_ranges  0x0000000000000110       0x28 ../PM_FW_COMMON/Srv/Scheduler/lib/CORE1/cagOsCORE1-0.a(sysExcLib.o)
 .debug_ranges  0x0000000000000138       0x40 ../PM_FW_COMMON/Srv/Scheduler/lib/CORE1/cagOsCORE1-0.a(sysGpio.o)
 .debug_ranges  0x0000000000000178       0x28 ../PM_FW_COMMON/Srv/Scheduler/lib/CORE1/cagOsCORE1-0.a(sysInt.o)
 .debug_ranges  0x00000000000001a0       0x30 ../PM_FW_COMMON/Srv/Scheduler/lib/CORE1/cagOsCORE1-0.a(sysL2Cache.o)
 .debug_ranges  0x00000000000001d0       0x60 ../PM_FW_COMMON/Srv/Scheduler/lib/CORE1/cagOsCORE1-0.a(sysOsSwitchLib.o)
 .debug_ranges  0x0000000000000230       0x40 ../PM_FW_COMMON/Srv/Scheduler/lib/CORE1/cagOsCORE1-0.a(sysPic.o)
 .debug_ranges  0x0000000000000270       0x10 ../PM_FW_COMMON/Srv/Scheduler/lib/CORE1/cagOsCORE1-0.a(sysSpeExcLib.o)
 .debug_ranges  0x0000000000000280       0x90 ../PM_FW_COMMON/Srv/Scheduler/lib/CORE1/cagOsCORE1-0.a(sysTask.o)
 .debug_ranges  0x0000000000000310       0x38 ../PM_FW_COMMON/Srv/Scheduler/lib/CORE1/cagOsCORE1-0.a(sysTbl.o)
 .debug_ranges  0x0000000000000348       0x40 ../PM_FW_COMMON/Srv/Scheduler/lib/CORE1/cagOsCORE1-0.a(sysTick.o)
 .debug_ranges  0x0000000000000388       0x30 ../PM_FW_COMMON/Srv/Scheduler/lib/CORE1/cagOsCORE1-0.a(sysTime.o)
 .debug_ranges  0x00000000000003b8       0x40 ../PM_FW_COMMON/Srv/Scheduler/lib/CORE1/cagOsCORE1-0.a(update.o)
 .debug_ranges  0x00000000000003f8       0x48 ../PM_FW_COMMON/Srv/Scheduler/lib/CORE1/cagOsCORE1-0.a(dfs.o)
 .debug_ranges  0x0000000000000440       0x30 ../PM_FW_COMMON/Srv/Scheduler/lib/CORE1/cagOsCORE1-0.a(hw_init.o)
 .debug_ranges  0x0000000000000470      0x120 ../PM_FW_COMMON/Srv/Scheduler/lib/CORE1/cagOsCORE1-0.a(lld.o)
 .debug_ranges  0x0000000000000590       0x10 ../PM_FW_COMMON/Srv/Scheduler/lib/CORE1/cagOsCORE1-0.a(memcpy.o)
 .debug_ranges  0x00000000000005a0       0x10 ../PM_FW_COMMON/Srv/Scheduler/lib/CORE1/cagOsCORE1-0.a(memset.o)
 .debug_ranges  0x00000000000005b0       0x30 ../PM_FW_COMMON/Srv/Scheduler/lib/CORE1/cagOsCORE1-0.a(ns16550.o)
 .debug_ranges  0x00000000000005e0       0x60 ../PM_FW_COMMON/Srv/Scheduler/lib/CORE1/cagOsCORE1-0.a(printk.o)
 .debug_ranges  0x0000000000000640      0x148 ../PM_FW_COMMON/Srv/Scheduler/lib/CORE1/cagOsCORE1-0.a(sffs.o)
 .debug_ranges  0x0000000000000788       0x40 ../PM_FW_COMMON/Srv/Scheduler/lib/CORE1/cagOsCORE1-0.a(sf.o)
 .debug_ranges  0x00000000000007c8       0x10 ../PM_FW_COMMON/Srv/Scheduler/lib/CORE1/cagOsCORE1-0.a(strcpy.o)
 .debug_ranges  0x00000000000007d8       0x10 ../PM_FW_COMMON/Srv/Scheduler/lib/CORE1/cagOsCORE1-0.a(strlen.o)
 .debug_ranges  0x00000000000007e8       0x10 ../PM_FW_COMMON/Srv/Scheduler/lib/CORE1/cagOsCORE1-0.a(strncpy.o)
 .debug_ranges  0x00000000000007f8       0x18 ../PM_FW_COMMON/Srv/Scheduler/lib/CORE1/cagOsCORE1-0.a(sysBanner.o)
 .debug_ranges  0x0000000000000810       0x80 ../PM_FW_COMMON/Srv/Scheduler/lib/CORE1/cagOsCORE1-0.a(sysBoard.o)
 .debug_ranges  0x0000000000000890       0x68 ../PM_FW_COMMON/Srv/Scheduler/lib/CORE1/cagOsCORE1-0.a(sysCacheE500Lib.o)
 .debug_ranges  0x00000000000008f8       0x10 ../PM_FW_COMMON/Srv/Scheduler/lib/CORE1/cagOsCORE1-0.a(sysCfg.o)
 .debug_ranges  0x0000000000000908      0x110 ../PM_FW_COMMON/Srv/Scheduler/lib/CORE1/cagOsCORE1-0.a(sysCore.o)
 .debug_ranges  0x0000000000000a18       0x28 ../PM_FW_COMMON/Srv/Scheduler/lib/CORE1/cagOsCORE1-0.a(sysCpuE500Lib.o)
 .debug_ranges  0x0000000000000a40       0x18 ../PM_FW_COMMON/Srv/Scheduler/lib/CORE1/cagOsCORE1-0.a(sysDec.o)
 .debug_ranges  0x0000000000000a58       0x30 ../PM_FW_COMMON/Srv/Scheduler/lib/CORE1/cagOsCORE1-0.a(sysMsg.o)
 .debug_ranges  0x0000000000000a88       0x60 ../PM_FW_COMMON/Srv/Scheduler/lib/CORE1/cagOsCORE1-0.a(sysMutex.o)
 .debug_ranges  0x0000000000000ae8       0x28 ../PM_FW_COMMON/Srv/Scheduler/lib/CORE1/cagOsCORE1-0.a(sysPrio.o)
 .debug_ranges  0x0000000000000b10       0x50 ../PM_FW_COMMON/Srv/Scheduler/lib/CORE1/cagOsCORE1-0.a(sysQueue.o)
 .debug_ranges  0x0000000000000b60       0x50 ../PM_FW_COMMON/Srv/Scheduler/lib/CORE1/cagOsCORE1-0.a(sysSem.o)
 .debug_ranges  0x0000000000000bb0       0x28 ../PM_FW_COMMON/Srv/Scheduler/lib/CORE1/cagOsCORE1-0.a(bits.o)
 .debug_ranges  0x0000000000000bd8       0x80 ../PM_FW_COMMON/Srv/Scheduler/lib/CORE1/cagOsCORE1-0.a(bLib.o)
 .debug_ranges  0x0000000000000c58       0x18 ../PM_FW_COMMON/Srv/Scheduler/lib/CORE1/cagOsCORE1-0.a(fpga.o)
 .debug_ranges  0x0000000000000c70       0xd8 ../PM_FW_COMMON/Srv/Scheduler/lib/CORE1/cagOsCORE1-0.a(fs_api.o)
 .debug_ranges  0x0000000000000d48       0x10 ../PM_FW_COMMON/Srv/Scheduler/lib/CORE1/cagOsCORE1-0.a(strcmp.o)
 .debug_ranges  0x0000000000000d58       0xe8 ../PM_FW_COMMON/Srv/Scheduler/lib/CORE1/cagOsCORE1-0.a(sysApi.o)
 .debug_ranges  0x0000000000000e40       0x18 ../PM_FW_COMMON/Srv/Scheduler/lib/CORE1/cagOsCORE1-0.a(sysCount.o)
 .debug_ranges  0x0000000000000e58       0x20 ../PM_FW_COMMON/Srv/SharedMem/src/SharedRtData.o
 .debug_ranges  0x0000000000000e78       0x20 ../PM_FW_COMMON/Srv/SharedMem/src/SharedComm.o
 .debug_ranges  0x0000000000000e98      0x360 ../PM_FW_COMMON/Srv/SharedMem/src/SharedConfig.o
 .debug_ranges  0x00000000000011f8       0x68 ../PM_FW_COMMON/Srv/SharedMem/src/SharedMem.o
 .debug_ranges  0x0000000000001260       0x28 ../PM_FW_COMMON/Srv/SharedMem/src/LED.o
 .debug_ranges  0x0000000000001288       0x20 ../PM_FW_COMMON/Srv/SharedMem/src/SharedWatchdog.o
 .debug_ranges  0x00000000000012a8       0x30 ../PM_FW_COMMON/Srv/SharedMem/src/SharedHandshake.o
 .debug_ranges  0x00000000000012d8      0x150 ../PM_FW_COMMON/Srv/SharedMem/src/SharedSafetyComm.o
 .debug_ranges  0x0000000000001428       0x68 ../PM_FW_COMMON/Srv/SharedMem/src/SharedSOE.o
 .debug_ranges  0x0000000000001490       0x10 ../PM_FW_COMMON/Srv/SharedMem/src/SharedDiagCode.o
 .debug_ranges  0x00000000000014a0       0x10 ./Srv/SysResource/src/SysUpdate.o
 .debug_ranges  0x00000000000014b0       0xc0 /vagrant/workspace/PM_FW_COMMON/Srv/Scheduler/lib/libgcc.a(_udivdi3.o)
 .debug_ranges  0x0000000000001570       0xe8 /vagrant/workspace/PM_FW_COMMON/Srv/Scheduler/lib/libgcc.a(_umoddi3.o)
 .debug_ranges  0x0000000000001658       0x38 /vagrant/workspace/PM_FW_COMMON/Srv/Sys/src/libSysCommon.a(CommSysMonitor.o)
 .debug_ranges  0x0000000000001690      0x178 /vagrant/workspace/PM_FW_COMMON/Srv/Sys/src/libSysCommon.a(SysHardware.o)
 .debug_ranges  0x0000000000001808      0x240 /vagrant/workspace/PM_FW_COMMON/Srv/IPBUS/src/libIPBUS.a(IPBUS.o)
 .debug_ranges  0x0000000000001a48       0x10 App/Main/src/libMain.a(main.o)
 .debug_ranges  0x0000000000001a58       0x68 App/Main/src/libMain.a(Task.o)
 .debug_ranges  0x0000000000001ac0      0x208 App/Comm/src/libComm.a(Comm.o)
 .debug_ranges  0x0000000000001cc8       0x28 App/Diag/src/libDiag.a(Diag.o)
 .debug_ranges  0x0000000000001cf0       0x88 App/FileManager/src/libFileManager.a(FileManager.o)
 .debug_ranges  0x0000000000001d78       0x18 App/Manager/src/libManager.a(Manager.o)
 .debug_ranges  0x0000000000001d90       0x18 App/Manager/src/libManager.a(Key.o)
 .debug_ranges  0x0000000000001da8       0x28 App/Manager/src/libManager.a(Watchdog.o)
 .debug_ranges  0x0000000000001dd0       0x20 App/Monitor/src/libMonitor.a(Monitor.o)
 .debug_ranges  0x0000000000001df0      0x150 App/ProjectConfig/src/libProjectConfig.a(Config.o)
 .debug_ranges  0x0000000000001f40      0x160 App/Sync/src/libSync.a(Sync.o)
 .debug_ranges  0x00000000000020a0       0xd0 App/SysStateManager/src/libSysStateManager.a(StateMngt.o)
 .debug_ranges  0x0000000000002170       0xf0 Srv/CommProtocol/src/libCMBusProtocol.a(CMBusProtocol.o)
 .debug_ranges  0x0000000000002260       0x30 Srv/CommProtocol/src/libCMBusProtocol.a(CMTable.o)
 .debug_ranges  0x0000000000002290      0x168 Srv/SysResource/src/libSys.a(SysCfgFile.o)
 .debug_ranges  0x00000000000023f8       0x28 Srv/SysResource/src/libSys.a(SysCMBus.o)
 .debug_ranges  0x0000000000002420      0x100 Srv/SysResource/src/libSys.a(SysCommon.o)
 .debug_ranges  0x0000000000002520       0x70 Srv/SysResource/src/libSys.a(SysFileManager.o)
 .debug_ranges  0x0000000000002590       0x28 Srv/SysResource/src/libSys.a(SysModbus.o)
 .debug_ranges  0x00000000000025b8       0x28 Srv/SysResource/src/libSys.a(SysP2P.o)
 .debug_ranges  0x00000000000025e0       0x50 Srv/SysResource/src/libSys.a(SysRTData.o)
 .debug_ranges  0x0000000000002630       0x70 Srv/SysResource/src/libSys.a(SysMonitor.o)
 .debug_ranges  0x00000000000026a0      0x100 Srv/SysResource/src/libSys.a(SysSync.o)
 .debug_ranges  0x00000000000027a0       0x70 Srv/SysResource/src/libSys.a(SysStateMngt.o)
 .debug_ranges  0x0000000000002810       0x20 Srv/SysResource/src/libSys.a(SysPMConfig.o)
 .debug_ranges  0x0000000000002830       0x40 /vagrant/workspace/PM_FW_COMMON/Srv/Scheduler/lib/CORE1/cagOsCORE1-0.a(cmbus.o)
 .debug_ranges  0x0000000000002870       0x18 /vagrant/workspace/PM_FW_COMMON/Srv/Scheduler/lib/CORE1/cagOsCORE1-0.a(ipbus.o)
 .debug_ranges  0x0000000000002888       0x50 /vagrant/workspace/PM_FW_COMMON/Srv/Scheduler/lib/CORE1/cagOsCORE1-0.a(pcie.o)
 .debug_ranges  0x00000000000028d8       0x58 /vagrant/workspace/PM_FW_COMMON/Srv/Scheduler/lib/CORE1/cagOsCORE1-0.a(pmbus.o)
 .debug_ranges  0x0000000000002930       0x90 /vagrant/workspace/PM_FW_COMMON/Srv/Scheduler/lib/libgcc.a(_divdi3.o)
 .debug_ranges  0x00000000000029c0       0xa0 /vagrant/workspace/PM_FW_COMMON/Srv/Scheduler/lib/libgcc.a(_moddi3.o)
 .debug_ranges  0x0000000000002a60       0x60 /vagrant/workspace/PM_FW_COMMON/Srv/SharedMem/src/libSharedMem.a(SharedRetain.o)
 .debug_ranges  0x0000000000002ac0       0x18 /vagrant/workspace/PM_FW_COMMON/Srv/Algrithm/src/libAlgrithm.a(Algrithm.o)
 .debug_ranges  0x0000000000002ad8       0x78 /vagrant/workspace/PM_FW_COMMON/Srv/Diag/src/libCDiag.a(DiagCommon.o)
 .debug_ranges  0x0000000000002b50       0x80 /vagrant/workspace/PM_FW_COMMON/Srv/Diag/src/libCDiag.a(BoardDiag.o)
 .debug_ranges  0x0000000000002bd0       0x20 /vagrant/workspace/PM_FW_COMMON/Srv/Diag/src/libCDiag.a(ExceptionTest.o)
 .debug_ranges  0x0000000000002bf0       0x58 /vagrant/workspace/PM_FW_COMMON/Srv/Diag/src/libCDiag.a(DataCacheTest.o)
 .debug_ranges  0x0000000000002c48       0xb0 /vagrant/workspace/PM_FW_COMMON/Srv/Diag/src/libCDiag.a(CPUTest.o)
 .debug_ranges  0x0000000000002cf8       0x18 /vagrant/workspace/PM_FW_COMMON/Srv/Diag/src/libCDiag.a(CodeTest.o)
 .debug_ranges  0x0000000000002d10       0x18 /vagrant/workspace/PM_FW_COMMON/Srv/Diag/src/libCDiag.a(SysTest.o)
 .debug_ranges  0x0000000000002d28       0x58 /vagrant/workspace/PM_FW_COMMON/Srv/Diag/src/libCDiag.a(RamTest.o)
 .debug_ranges  0x0000000000002d80       0x20 /vagrant/workspace/PM_FW_COMMON/Srv/Log/src/libLog.a(Log.o)
 .debug_ranges  0x0000000000002da0       0x30 /vagrant/workspace/PM_FW_COMMON/Srv/Log/src/libLog.a(LogCore0.o)
 .debug_ranges  0x0000000000002dd0       0x30 /vagrant/workspace/PM_FW_COMMON/Srv/Log/src/libLog.a(LogCore1.o)
 .debug_ranges  0x0000000000002e00       0x50 /vagrant/workspace/PM_FW_COMMON/Srv/Log/src/libLog.a(LogUser.o)
 .debug_ranges  0x0000000000002e50       0x20 /vagrant/workspace/PM_FW_COMMON/Srv/PMBUS/src/libPMBUS.a(PMBUS.o)
 .debug_ranges  0x0000000000002e70       0xd8 /vagrant/workspace/PM_FW_COMMON/Srv/SafetyProtocol/src/libSafetyProtocol.a(P2PSafetyComm.o)
 .debug_ranges  0x0000000000002f48       0x30 /vagrant/workspace/PM_FW_COMMON/Srv/SafetyProtocol/src/libSafetyProtocol.a(SafetyCommon.o)
 .debug_ranges  0x0000000000002f78       0x30 /vagrant/workspace/PM_FW_COMMON/Srv/Sys/src/libSysCommon.a(CommSysCommom.o)
 .debug_ranges  0x0000000000002fa8       0x10 /vagrant/workspace/PM_FW_COMMON/Srv/Sys/src/libSysCommon.a(CommSysConfig.o)
 .debug_ranges  0x0000000000002fb8       0x30 /vagrant/workspace/PM_FW_COMMON/Srv/Sys/src/libSysCommon.a(CommSysSync.o)
 .debug_ranges  0x0000000000002fe8       0x18 /vagrant/workspace/PM_FW_COMMON/Srv/Ver/src/libVer.a(Ver.o)
 .debug_ranges  0x0000000000003000       0x18 App/LEDManager/src/libLEDManager.a(LEDManager.o)
 .debug_ranges  0x0000000000003018       0x18 /vagrant/workspace/PM_FW_COMMON/Srv/Scheduler/lib/CORE1/cagOsCORE1-0.a(sysCacheSb.o)

.debug_line     0x0000000000000000    0x1681a
 .debug_line    0x0000000000000000       0xc3 ./App/Main/src/RTSTaskExeEntryBin0.o
 .debug_line    0x00000000000000c3       0xc4 ./App/Main/src/DiagTaskExeEntryBin0.o
 .debug_line    0x0000000000000187       0xbc ./App/Main/src/FileTaskExeEntryBin0.o
 .debug_line    0x0000000000000243       0xc4 ./App/Main/src/CommTaskExeEntryBin0.o
 .debug_line    0x0000000000000307      0x374 ../PM_FW_COMMON/Srv/Scheduler/lib/CORE1/cagOsCORE1-0.a(sysCpuALib.o)
 .debug_line    0x000000000000067b      0x204 ../PM_FW_COMMON/Srv/Scheduler/lib/CORE1/cagOsCORE1-0.a(sysCpuLib.o)
 .debug_line    0x000000000000087f       0x8a ../PM_FW_COMMON/Srv/Scheduler/lib/CORE1/cagOsCORE1-0.a(sysE500Tlb.o)
 .debug_line    0x0000000000000909      0x18d ../PM_FW_COMMON/Srv/Scheduler/lib/CORE1/cagOsCORE1-0.a(sysEntry.o)
 .debug_line    0x0000000000000a96      0x1fb ../PM_FW_COMMON/Srv/Scheduler/lib/CORE1/cagOsCORE1-0.a(sysExcArchALib.o)
 .debug_line    0x0000000000000c91      0x256 ../PM_FW_COMMON/Srv/Scheduler/lib/CORE1/cagOsCORE1-0.a(sysExcArchLib.o)
 .debug_line    0x0000000000000ee7       0xf3 ../PM_FW_COMMON/Srv/Scheduler/lib/CORE1/cagOsCORE1-0.a(sysExcLib.o)
 .debug_line    0x0000000000000fda       0xf0 ../PM_FW_COMMON/Srv/Scheduler/lib/CORE1/cagOsCORE1-0.a(sysGpio.o)
 .debug_line    0x00000000000010ca      0x165 ../PM_FW_COMMON/Srv/Scheduler/lib/CORE1/cagOsCORE1-0.a(sysInt.o)
 .debug_line    0x000000000000122f      0x10c ../PM_FW_COMMON/Srv/Scheduler/lib/CORE1/cagOsCORE1-0.a(sysL2Cache.o)
 .debug_line    0x000000000000133b      0x1b5 ../PM_FW_COMMON/Srv/Scheduler/lib/CORE1/cagOsCORE1-0.a(sysOsSwitchLib.o)
 .debug_line    0x00000000000014f0      0x1b9 ../PM_FW_COMMON/Srv/Scheduler/lib/CORE1/cagOsCORE1-0.a(sysPic.o)
 .debug_line    0x00000000000016a9       0xa1 ../PM_FW_COMMON/Srv/Scheduler/lib/CORE1/cagOsCORE1-0.a(sysSpeExcLib.o)
 .debug_line    0x000000000000174a      0x3f2 ../PM_FW_COMMON/Srv/Scheduler/lib/CORE1/cagOsCORE1-0.a(sysTask.o)
 .debug_line    0x0000000000001b3c      0x144 ../PM_FW_COMMON/Srv/Scheduler/lib/CORE1/cagOsCORE1-0.a(sysTbl.o)
 .debug_line    0x0000000000001c80      0x1db ../PM_FW_COMMON/Srv/Scheduler/lib/CORE1/cagOsCORE1-0.a(sysTick.o)
 .debug_line    0x0000000000001e5b      0x144 ../PM_FW_COMMON/Srv/Scheduler/lib/CORE1/cagOsCORE1-0.a(sysTime.o)
 .debug_line    0x0000000000001f9f      0x216 ../PM_FW_COMMON/Srv/Scheduler/lib/CORE1/cagOsCORE1-0.a(update.o)
 .debug_line    0x00000000000021b5      0x1a3 ../PM_FW_COMMON/Srv/Scheduler/lib/CORE1/cagOsCORE1-0.a(dfs.o)
 .debug_line    0x0000000000002358      0x169 ../PM_FW_COMMON/Srv/Scheduler/lib/CORE1/cagOsCORE1-0.a(hw_init.o)
 .debug_line    0x00000000000024c1      0x582 ../PM_FW_COMMON/Srv/Scheduler/lib/CORE1/cagOsCORE1-0.a(lld.o)
 .debug_line    0x0000000000002a43       0x95 ../PM_FW_COMMON/Srv/Scheduler/lib/CORE1/cagOsCORE1-0.a(memcpy.o)
 .debug_line    0x0000000000002ad8       0x95 ../PM_FW_COMMON/Srv/Scheduler/lib/CORE1/cagOsCORE1-0.a(memset.o)
 .debug_line    0x0000000000002b6d      0x105 ../PM_FW_COMMON/Srv/Scheduler/lib/CORE1/cagOsCORE1-0.a(ns16550.o)
 .debug_line    0x0000000000002c72      0x3b8 ../PM_FW_COMMON/Srv/Scheduler/lib/CORE1/cagOsCORE1-0.a(printk.o)
 .debug_line    0x000000000000302a      0x826 ../PM_FW_COMMON/Srv/Scheduler/lib/CORE1/cagOsCORE1-0.a(sffs.o)
 .debug_line    0x0000000000003850      0x1bc ../PM_FW_COMMON/Srv/Scheduler/lib/CORE1/cagOsCORE1-0.a(sf.o)
 .debug_line    0x0000000000003a0c       0x43 ../PM_FW_COMMON/Srv/Scheduler/lib/CORE1/cagOsCORE1-0.a(strcpy.o)
 .debug_line    0x0000000000003a4f       0x9d ../PM_FW_COMMON/Srv/Scheduler/lib/CORE1/cagOsCORE1-0.a(strlen.o)
 .debug_line    0x0000000000003aec       0xa6 ../PM_FW_COMMON/Srv/Scheduler/lib/CORE1/cagOsCORE1-0.a(strncpy.o)
 .debug_line    0x0000000000003b92       0x6f ../PM_FW_COMMON/Srv/Scheduler/lib/CORE1/cagOsCORE1-0.a(sysAccess.o)
 .debug_line    0x0000000000003c01       0x63 ../PM_FW_COMMON/Srv/Scheduler/lib/CORE1/cagOsCORE1-0.a(sysBanner.o)
 .debug_line    0x0000000000003c64      0x314 ../PM_FW_COMMON/Srv/Scheduler/lib/CORE1/cagOsCORE1-0.a(sysBoard.o)
 .debug_line    0x0000000000003f78      0x192 ../PM_FW_COMMON/Srv/Scheduler/lib/CORE1/cagOsCORE1-0.a(sysCacheE500Lib.o)
 .debug_line    0x000000000000410a       0xb1 ../PM_FW_COMMON/Srv/Scheduler/lib/CORE1/cagOsCORE1-0.a(sysCfg.o)
 .debug_line    0x00000000000041bb      0x5cd ../PM_FW_COMMON/Srv/Scheduler/lib/CORE1/cagOsCORE1-0.a(sysCore.o)
 .debug_line    0x0000000000004788       0x4b ../PM_FW_COMMON/Srv/Scheduler/lib/CORE1/cagOsCORE1-0.a(sysCpuE500ALib.o)
 .debug_line    0x00000000000047d3      0x1ce ../PM_FW_COMMON/Srv/Scheduler/lib/CORE1/cagOsCORE1-0.a(sysCpuE500Lib.o)
 .debug_line    0x00000000000049a1       0xbe ../PM_FW_COMMON/Srv/Scheduler/lib/CORE1/cagOsCORE1-0.a(sysDec.o)
 .debug_line    0x0000000000004a5f      0x171 ../PM_FW_COMMON/Srv/Scheduler/lib/CORE1/cagOsCORE1-0.a(sysMsg.o)
 .debug_line    0x0000000000004bd0      0x297 ../PM_FW_COMMON/Srv/Scheduler/lib/CORE1/cagOsCORE1-0.a(sysMutex.o)
 .debug_line    0x0000000000004e67       0x70 ../PM_FW_COMMON/Srv/Scheduler/lib/CORE1/cagOsCORE1-0.a(sysOsIrq.o)
 .debug_line    0x0000000000004ed7       0xdf ../PM_FW_COMMON/Srv/Scheduler/lib/CORE1/cagOsCORE1-0.a(sysOsSwitchALib.o)
 .debug_line    0x0000000000004fb6      0x10b ../PM_FW_COMMON/Srv/Scheduler/lib/CORE1/cagOsCORE1-0.a(sysPrio.o)
 .debug_line    0x00000000000050c1      0x21e ../PM_FW_COMMON/Srv/Scheduler/lib/CORE1/cagOsCORE1-0.a(sysQueue.o)
 .debug_line    0x00000000000052df      0x21f ../PM_FW_COMMON/Srv/Scheduler/lib/CORE1/cagOsCORE1-0.a(sysSem.o)
 .debug_line    0x00000000000054fe       0x9f ../PM_FW_COMMON/Srv/Scheduler/lib/CORE1/cagOsCORE1-0.a(sysSpeVectorALib.o)
 .debug_line    0x000000000000559d       0xdf ../PM_FW_COMMON/Srv/Scheduler/lib/CORE1/cagOsCORE1-0.a(bits.o)
 .debug_line    0x000000000000567c      0x2e2 ../PM_FW_COMMON/Srv/Scheduler/lib/CORE1/cagOsCORE1-0.a(bLib.o)
 .debug_line    0x000000000000595e       0xa3 ../PM_FW_COMMON/Srv/Scheduler/lib/CORE1/cagOsCORE1-0.a(fpga.o)
 .debug_line    0x0000000000005a01      0x5af ../PM_FW_COMMON/Srv/Scheduler/lib/CORE1/cagOsCORE1-0.a(fs_api.o)
 .debug_line    0x0000000000005fb0       0x42 ../PM_FW_COMMON/Srv/Scheduler/lib/CORE1/cagOsCORE1-0.a(strcmp.o)
 .debug_line    0x0000000000005ff2      0x46c ../PM_FW_COMMON/Srv/Scheduler/lib/CORE1/cagOsCORE1-0.a(sysApi.o)
 .debug_line    0x000000000000645e      0x143 ../PM_FW_COMMON/Srv/Scheduler/lib/CORE1/cagOsCORE1-0.a(sysCacheE500ALib.o)
 .debug_line    0x00000000000065a1       0xd0 ../PM_FW_COMMON/Srv/Scheduler/lib/CORE1/cagOsCORE1-0.a(sysCount.o)
 .debug_line    0x0000000000006671       0xc4 ../PM_FW_COMMON/Srv/SharedMem/src/SharedRtData.o
 .debug_line    0x0000000000006735      0x12c ../PM_FW_COMMON/Srv/SharedMem/src/SharedComm.o
 .debug_line    0x0000000000006861      0xda1 ../PM_FW_COMMON/Srv/SharedMem/src/SharedConfig.o
 .debug_line    0x0000000000007602      0x216 ../PM_FW_COMMON/Srv/SharedMem/src/SharedMem.o
 .debug_line    0x0000000000007818      0x124 ../PM_FW_COMMON/Srv/SharedMem/src/LED.o
 .debug_line    0x000000000000793c       0xca ../PM_FW_COMMON/Srv/SharedMem/src/SharedWatchdog.o
 .debug_line    0x0000000000007a06      0x114 ../PM_FW_COMMON/Srv/SharedMem/src/SharedHandshake.o
 .debug_line    0x0000000000007b1a      0x47d ../PM_FW_COMMON/Srv/SharedMem/src/SharedSafetyComm.o
 .debug_line    0x0000000000007f97      0x43a ../PM_FW_COMMON/Srv/SharedMem/src/SharedSOE.o
 .debug_line    0x00000000000083d1      0x105 ../PM_FW_COMMON/Srv/SharedMem/src/SharedDiagCode.o
 .debug_line    0x00000000000084d6       0x73 ./Srv/SysResource/src/SysUpdate.o
 .debug_line    0x0000000000008549      0x303 /vagrant/workspace/PM_FW_COMMON/Srv/Scheduler/lib/libgcc.a(_udivdi3.o)
 .debug_line    0x000000000000884c      0x30f /vagrant/workspace/PM_FW_COMMON/Srv/Scheduler/lib/libgcc.a(_umoddi3.o)
 .debug_line    0x0000000000008b5b       0xed /vagrant/workspace/PM_FW_COMMON/Srv/Sys/src/libSysCommon.a(CommSysMonitor.o)
 .debug_line    0x0000000000008c48      0x4e7 /vagrant/workspace/PM_FW_COMMON/Srv/Sys/src/libSysCommon.a(SysHardware.o)
 .debug_line    0x000000000000912f      0x777 /vagrant/workspace/PM_FW_COMMON/Srv/IPBUS/src/libIPBUS.a(IPBUS.o)
 .debug_line    0x00000000000098a6       0x3c App/Main/src/libMain.a(main.o)
 .debug_line    0x00000000000098e2      0x3d3 App/Main/src/libMain.a(Task.o)
 .debug_line    0x0000000000009cb5     0x1a01 App/Comm/src/libComm.a(Comm.o)
 .debug_line    0x000000000000b6b6      0x1a7 App/Diag/src/libDiag.a(Diag.o)
 .debug_line    0x000000000000b85d      0x446 App/FileManager/src/libFileManager.a(FileManager.o)
 .debug_line    0x000000000000bca3       0x55 App/Manager/src/libManager.a(Manager.o)
 .debug_line    0x000000000000bcf8      0x15f App/Manager/src/libManager.a(Key.o)
 .debug_line    0x000000000000be57      0x14a App/Manager/src/libManager.a(Watchdog.o)
 .debug_line    0x000000000000bfa1       0xe4 App/Monitor/src/libMonitor.a(Monitor.o)
 .debug_line    0x000000000000c085     0x11ad App/ProjectConfig/src/libProjectConfig.a(Config.o)
 .debug_line    0x000000000000d232     0x1318 App/Sync/src/libSync.a(Sync.o)
 .debug_line    0x000000000000e54a      0xbf8 App/SysStateManager/src/libSysStateManager.a(StateMngt.o)
 .debug_line    0x000000000000f142      0x911 Srv/CommProtocol/src/libCMBusProtocol.a(CMBusProtocol.o)
 .debug_line    0x000000000000fa53      0x211 Srv/CommProtocol/src/libCMBusProtocol.a(CMTable.o)
 .debug_line    0x000000000000fc64      0xbdb Srv/SysResource/src/libSys.a(SysCfgFile.o)
 .debug_line    0x000000000001083f      0x1e4 Srv/SysResource/src/libSys.a(SysCMBus.o)
 .debug_line    0x0000000000010a23      0x554 Srv/SysResource/src/libSys.a(SysCommon.o)
 .debug_line    0x0000000000010f77      0x3a0 Srv/SysResource/src/libSys.a(SysFileManager.o)
 .debug_line    0x0000000000011317      0x1b1 Srv/SysResource/src/libSys.a(SysModbus.o)
 .debug_line    0x00000000000114c8      0x1e0 Srv/SysResource/src/libSys.a(SysP2P.o)
 .debug_line    0x00000000000116a8      0x2e7 Srv/SysResource/src/libSys.a(SysRTData.o)
 .debug_line    0x000000000001198f      0x23b Srv/SysResource/src/libSys.a(SysMonitor.o)
 .debug_line    0x0000000000011bca      0x479 Srv/SysResource/src/libSys.a(SysSync.o)
 .debug_line    0x0000000000012043      0x244 Srv/SysResource/src/libSys.a(SysStateMngt.o)
 .debug_line    0x0000000000012287       0xda Srv/SysResource/src/libSys.a(SysPMConfig.o)
 .debug_line    0x0000000000012361      0x154 /vagrant/workspace/PM_FW_COMMON/Srv/Scheduler/lib/CORE1/cagOsCORE1-0.a(cmbus.o)
 .debug_line    0x00000000000124b5       0xe8 /vagrant/workspace/PM_FW_COMMON/Srv/Scheduler/lib/CORE1/cagOsCORE1-0.a(ipbus.o)
 .debug_line    0x000000000001259d      0x21f /vagrant/workspace/PM_FW_COMMON/Srv/Scheduler/lib/CORE1/cagOsCORE1-0.a(pcie.o)
 .debug_line    0x00000000000127bc      0x26f /vagrant/workspace/PM_FW_COMMON/Srv/Scheduler/lib/CORE1/cagOsCORE1-0.a(pmbus.o)
 .debug_line    0x0000000000012a2b      0x2ff /vagrant/workspace/PM_FW_COMMON/Srv/Scheduler/lib/libgcc.a(_divdi3.o)
 .debug_line    0x0000000000012d2a      0x30d /vagrant/workspace/PM_FW_COMMON/Srv/Scheduler/lib/libgcc.a(_moddi3.o)
 .debug_line    0x0000000000013037      0x21f /vagrant/workspace/PM_FW_COMMON/Srv/SharedMem/src/libSharedMem.a(SharedRetain.o)
 .debug_line    0x0000000000013256       0xb1 /vagrant/workspace/PM_FW_COMMON/Srv/Algrithm/src/libAlgrithm.a(Algrithm.o)
 .debug_line    0x0000000000013307      0x1dd /vagrant/workspace/PM_FW_COMMON/Srv/Diag/src/libCDiag.a(DiagCommon.o)
 .debug_line    0x00000000000134e4      0x27d /vagrant/workspace/PM_FW_COMMON/Srv/Diag/src/libCDiag.a(BoardDiag.o)
 .debug_line    0x0000000000013761       0xe5 /vagrant/workspace/PM_FW_COMMON/Srv/Diag/src/libCDiag.a(ExceptionTest.o)
 .debug_line    0x0000000000013846      0x24c /vagrant/workspace/PM_FW_COMMON/Srv/Diag/src/libCDiag.a(DataCacheTest.o)
 .debug_line    0x0000000000013a92      0x49b /vagrant/workspace/PM_FW_COMMON/Srv/Diag/src/libCDiag.a(CPUTest.o)
 .debug_line    0x0000000000013f2d      0x14f /vagrant/workspace/PM_FW_COMMON/Srv/Diag/src/libCDiag.a(CodeTest.o)
 .debug_line    0x000000000001407c       0x65 /vagrant/workspace/PM_FW_COMMON/Srv/Diag/src/libCDiag.a(SysTest.o)
 .debug_line    0x00000000000140e1      0x27e /vagrant/workspace/PM_FW_COMMON/Srv/Diag/src/libCDiag.a(RamTest.o)
 .debug_line    0x000000000001435f      0x10f /vagrant/workspace/PM_FW_COMMON/Srv/Log/src/libLog.a(Log.o)
 .debug_line    0x000000000001446e      0x1e8 /vagrant/workspace/PM_FW_COMMON/Srv/Log/src/libLog.a(LogCore0.o)
 .debug_line    0x0000000000014656      0x1ef /vagrant/workspace/PM_FW_COMMON/Srv/Log/src/libLog.a(LogCore1.o)
 .debug_line    0x0000000000014845      0x27b /vagrant/workspace/PM_FW_COMMON/Srv/Log/src/libLog.a(LogUser.o)
 .debug_line    0x0000000000014ac0       0xd7 /vagrant/workspace/PM_FW_COMMON/Srv/PMBUS/src/libPMBUS.a(PMBUS.o)
 .debug_line    0x0000000000014b97      0x776 /vagrant/workspace/PM_FW_COMMON/Srv/SafetyProtocol/src/libSafetyProtocol.a(P2PSafetyComm.o)
 .debug_line    0x000000000001530d      0x124 /vagrant/workspace/PM_FW_COMMON/Srv/SafetyProtocol/src/libSafetyProtocol.a(SafetyCommon.o)
 .debug_line    0x0000000000015431       0xfb /vagrant/workspace/PM_FW_COMMON/Srv/Sys/src/libSysCommon.a(CommSysCommom.o)
 .debug_line    0x000000000001552c       0xa2 /vagrant/workspace/PM_FW_COMMON/Srv/Sys/src/libSysCommon.a(CommSysConfig.o)
 .debug_line    0x00000000000155ce       0xfb /vagrant/workspace/PM_FW_COMMON/Srv/Sys/src/libSysCommon.a(CommSysSync.o)
 .debug_line    0x00000000000156c9       0xd1 /vagrant/workspace/PM_FW_COMMON/Srv/Ver/src/libVer.a(Ver.o)
 .debug_line    0x000000000001579a       0x53 App/LEDManager/src/libLEDManager.a(LEDManager.o)
 .debug_line    0x00000000000157ed       0x55 /vagrant/workspace/PM_FW_COMMON/Srv/Scheduler/lib/CORE1/cagOsCORE1-0.a(sysCacheSb.o)
 .debug_line    0x0000000000015842       0x76 /vagrant/workspace/PM_FW_COMMON/Srv/Diag/asm/libAsmDiag.a(BPU_cond_branch_test_bca.o)
 .debug_line    0x00000000000158b8       0x74 /vagrant/workspace/PM_FW_COMMON/Srv/Diag/asm/libAsmDiag.a(BPU_cond_branch_test_bcla.o)
 .debug_line    0x000000000001592c       0x7d /vagrant/workspace/PM_FW_COMMON/Srv/Diag/asm/libAsmDiag.a(BPU_cond_branch_test.o)
 .debug_line    0x00000000000159a9       0x79 /vagrant/workspace/PM_FW_COMMON/Srv/Diag/asm/libAsmDiag.a(BPU_uncond_branch_test_ba_bla.o)
 .debug_line    0x0000000000015a22       0x61 /vagrant/workspace/PM_FW_COMMON/Srv/Diag/asm/libAsmDiag.a(BPU_uncond_branch_test.o)
 .debug_line    0x0000000000015a83       0x6a /vagrant/workspace/PM_FW_COMMON/Srv/Diag/asm/libAsmDiag.a(cr_test.o)
 .debug_line    0x0000000000015aed       0x8d /vagrant/workspace/PM_FW_COMMON/Srv/Diag/asm/libAsmDiag.a(data_cache_test.o)
 .debug_line    0x0000000000015b7a       0x7d /vagrant/workspace/PM_FW_COMMON/Srv/Diag/asm/libAsmDiag.a(GPR_interword_test.o)
 .debug_line    0x0000000000015bf7       0x93 /vagrant/workspace/PM_FW_COMMON/Srv/Diag/asm/libAsmDiag.a(GPR_intraword_test.o)
 .debug_line    0x0000000000015c8a      0x705 /vagrant/workspace/PM_FW_COMMON/Srv/Diag/asm/libAsmDiag.a(IU1_test.o)
 .debug_line    0x000000000001638f       0xd2 /vagrant/workspace/PM_FW_COMMON/Srv/Diag/asm/libAsmDiag.a(IU2_test.o)
 .debug_line    0x0000000000016461       0x6a /vagrant/workspace/PM_FW_COMMON/Srv/Diag/asm/libAsmDiag.a(lr_test.o)
 .debug_line    0x00000000000164cb       0x80 /vagrant/workspace/PM_FW_COMMON/Srv/Diag/asm/libAsmDiag.a(LSU_data_test.o)
 .debug_line    0x000000000001654b       0xbe /vagrant/workspace/PM_FW_COMMON/Srv/Diag/asm/libAsmDiag.a(LSU_ea_calc_test.o)
 .debug_line    0x0000000000016609       0x67 /vagrant/workspace/PM_FW_COMMON/Srv/Diag/asm/libAsmDiag.a(SPR_interword_test.o)
 .debug_line    0x0000000000016670       0x84 /vagrant/workspace/PM_FW_COMMON/Srv/Diag/asm/libAsmDiag.a(SPR_intraword_test.o)
 .debug_line    0x00000000000166f4       0xb7 /vagrant/workspace/PM_FW_COMMON/Srv/Diag/asm/libAsmDiag.a(SPRG_test.o)
 .debug_line    0x00000000000167ab       0x6f /vagrant/workspace/PM_FW_COMMON/Srv/Diag/asm/libAsmDiag.a(Pipeline_test.o)

.debug_str      0x0000000000000000    0x132a7
 .debug_str     0x0000000000000000      0x320 ./App/Main/src/RTSTaskExeEntryBin0.o
                                        0x354 (size before relaxing)
 .debug_str     0x0000000000000320       0x2b ./App/Main/src/DiagTaskExeEntryBin0.o
                                        0x356 (size before relaxing)
 .debug_str     0x000000000000034b       0x2b ./App/Main/src/FileTaskExeEntryBin0.o
                                        0x356 (size before relaxing)
 .debug_str     0x0000000000000376       0x2b ./App/Main/src/CommTaskExeEntryBin0.o
                                        0x356 (size before relaxing)
 .debug_str     0x00000000000003a1      0x425 ../PM_FW_COMMON/Srv/Scheduler/lib/CORE1/cagOsCORE1-0.a(sysCpuLib.o)
                                        0x4d9 (size before relaxing)
 .debug_str     0x00000000000007c6     0x130d ../PM_FW_COMMON/Srv/Scheduler/lib/CORE1/cagOsCORE1-0.a(sysEntry.o)
                                       0x1571 (size before relaxing)
 .debug_str     0x0000000000001ad3      0x1c0 ../PM_FW_COMMON/Srv/Scheduler/lib/CORE1/cagOsCORE1-0.a(sysExcArchLib.o)
                                        0x9cd (size before relaxing)
 .debug_str     0x0000000000001c93       0xc3 ../PM_FW_COMMON/Srv/Scheduler/lib/CORE1/cagOsCORE1-0.a(sysExcLib.o)
                                        0x3c1 (size before relaxing)
 .debug_str     0x0000000000001d56       0xdf ../PM_FW_COMMON/Srv/Scheduler/lib/CORE1/cagOsCORE1-0.a(sysGpio.o)
                                        0x31e (size before relaxing)
 .debug_str     0x0000000000001e35       0xf9 ../PM_FW_COMMON/Srv/Scheduler/lib/CORE1/cagOsCORE1-0.a(sysInt.o)
                                        0x933 (size before relaxing)
 .debug_str     0x0000000000001f2e       0xda ../PM_FW_COMMON/Srv/Scheduler/lib/CORE1/cagOsCORE1-0.a(sysL2Cache.o)
                                        0x352 (size before relaxing)
 .debug_str     0x0000000000002008      0x10f ../PM_FW_COMMON/Srv/Scheduler/lib/CORE1/cagOsCORE1-0.a(sysOsSwitchLib.o)
                                        0x966 (size before relaxing)
 .debug_str     0x0000000000002117      0x121 ../PM_FW_COMMON/Srv/Scheduler/lib/CORE1/cagOsCORE1-0.a(sysPic.o)
                                        0x3ac (size before relaxing)
 .debug_str     0x0000000000002238       0x40 ../PM_FW_COMMON/Srv/Scheduler/lib/CORE1/cagOsCORE1-0.a(sysSpeExcLib.o)
                                        0x277 (size before relaxing)
 .debug_str     0x0000000000002278      0x1d2 ../PM_FW_COMMON/Srv/Scheduler/lib/CORE1/cagOsCORE1-0.a(sysTask.o)
                                       0x1682 (size before relaxing)
 .debug_str     0x000000000000244a       0xe4 ../PM_FW_COMMON/Srv/Scheduler/lib/CORE1/cagOsCORE1-0.a(sysTbl.o)
                                        0x2ec (size before relaxing)
 .debug_str     0x000000000000252e       0xe0 ../PM_FW_COMMON/Srv/Scheduler/lib/CORE1/cagOsCORE1-0.a(sysTick.o)
                                       0x1581 (size before relaxing)
 .debug_str     0x000000000000260e       0x49 ../PM_FW_COMMON/Srv/Scheduler/lib/CORE1/cagOsCORE1-0.a(sysTime.o)
                                       0x14d0 (size before relaxing)
 .debug_str     0x0000000000002657      0x175 ../PM_FW_COMMON/Srv/Scheduler/lib/CORE1/cagOsCORE1-0.a(update.o)
                                        0x3ec (size before relaxing)
 .debug_str     0x00000000000027cc       0xf9 ../PM_FW_COMMON/Srv/Scheduler/lib/CORE1/cagOsCORE1-0.a(dfs.o)
                                        0x325 (size before relaxing)
 .debug_str     0x00000000000028c5      0x265 ../PM_FW_COMMON/Srv/Scheduler/lib/CORE1/cagOsCORE1-0.a(hw_init.o)
                                        0x525 (size before relaxing)
 .debug_str     0x0000000000002b2a      0x6e7 ../PM_FW_COMMON/Srv/Scheduler/lib/CORE1/cagOsCORE1-0.a(lld.o)
                                        0x904 (size before relaxing)
 .debug_str     0x0000000000003211       0x6f ../PM_FW_COMMON/Srv/Scheduler/lib/CORE1/cagOsCORE1-0.a(memcpy.o)
                                        0x25c (size before relaxing)
 .debug_str     0x0000000000003280       0x10 ../PM_FW_COMMON/Srv/Scheduler/lib/CORE1/cagOsCORE1-0.a(memset.o)
                                        0x249 (size before relaxing)
 .debug_str     0x0000000000003290      0x12c ../PM_FW_COMMON/Srv/Scheduler/lib/CORE1/cagOsCORE1-0.a(ns16550.o)
                                        0x31b (size before relaxing)
 .debug_str     0x00000000000033bc       0xe3 ../PM_FW_COMMON/Srv/Scheduler/lib/CORE1/cagOsCORE1-0.a(printk.o)
                                        0x321 (size before relaxing)
 .debug_str     0x000000000000349f      0x331 ../PM_FW_COMMON/Srv/Scheduler/lib/CORE1/cagOsCORE1-0.a(sffs.o)
                                        0x689 (size before relaxing)
 .debug_str     0x00000000000037d0       0xba ../PM_FW_COMMON/Srv/Scheduler/lib/CORE1/cagOsCORE1-0.a(sf.o)
                                        0x2de (size before relaxing)
 .debug_str     0x000000000000388a       0x15 ../PM_FW_COMMON/Srv/Scheduler/lib/CORE1/cagOsCORE1-0.a(strcpy.o)
                                        0x242 (size before relaxing)
 .debug_str     0x000000000000389f       0x10 ../PM_FW_COMMON/Srv/Scheduler/lib/CORE1/cagOsCORE1-0.a(strlen.o)
                                        0x249 (size before relaxing)
 .debug_str     0x00000000000038af       0x12 ../PM_FW_COMMON/Srv/Scheduler/lib/CORE1/cagOsCORE1-0.a(strncpy.o)
                                        0x246 (size before relaxing)
 .debug_str     0x00000000000038c1       0x25 ../PM_FW_COMMON/Srv/Scheduler/lib/CORE1/cagOsCORE1-0.a(sysBanner.o)
                                        0x24e (size before relaxing)
 .debug_str     0x00000000000038e6      0x189 ../PM_FW_COMMON/Srv/Scheduler/lib/CORE1/cagOsCORE1-0.a(sysBoard.o)
                                        0x3e4 (size before relaxing)
 .debug_str     0x0000000000003a6f      0x106 ../PM_FW_COMMON/Srv/Scheduler/lib/CORE1/cagOsCORE1-0.a(sysCacheE500Lib.o)
                                        0x3a7 (size before relaxing)
 .debug_str     0x0000000000003b75      0x17e ../PM_FW_COMMON/Srv/Scheduler/lib/CORE1/cagOsCORE1-0.a(sysCfg.o)
                                        0x9b4 (size before relaxing)
 .debug_str     0x0000000000003cf3      0x350 ../PM_FW_COMMON/Srv/Scheduler/lib/CORE1/cagOsCORE1-0.a(sysCore.o)
                                       0x18ae (size before relaxing)
 .debug_str     0x0000000000004043      0x136 ../PM_FW_COMMON/Srv/Scheduler/lib/CORE1/cagOsCORE1-0.a(sysCpuE500Lib.o)
                                        0x3cd (size before relaxing)
 .debug_str     0x0000000000004179       0x60 ../PM_FW_COMMON/Srv/Scheduler/lib/CORE1/cagOsCORE1-0.a(sysDec.o)
                                        0x2ab (size before relaxing)
 .debug_str     0x00000000000041d9       0xad ../PM_FW_COMMON/Srv/Scheduler/lib/CORE1/cagOsCORE1-0.a(sysMsg.o)
                                       0x156f (size before relaxing)
 .debug_str     0x0000000000004286       0xf3 ../PM_FW_COMMON/Srv/Scheduler/lib/CORE1/cagOsCORE1-0.a(sysMutex.o)
                                       0x15d2 (size before relaxing)
 .debug_str     0x0000000000004379       0x65 ../PM_FW_COMMON/Srv/Scheduler/lib/CORE1/cagOsCORE1-0.a(sysPrio.o)
                                        0x88f (size before relaxing)
 .debug_str     0x00000000000043de       0x85 ../PM_FW_COMMON/Srv/Scheduler/lib/CORE1/cagOsCORE1-0.a(sysQueue.o)
                                       0x15a6 (size before relaxing)
 .debug_str     0x0000000000004463       0x7e ../PM_FW_COMMON/Srv/Scheduler/lib/CORE1/cagOsCORE1-0.a(sysSem.o)
                                       0x1556 (size before relaxing)
 .debug_str     0x00000000000044e1       0x39 ../PM_FW_COMMON/Srv/Scheduler/lib/CORE1/cagOsCORE1-0.a(bits.o)
                                        0x270 (size before relaxing)
 .debug_str     0x000000000000451a      0x110 ../PM_FW_COMMON/Srv/Scheduler/lib/CORE1/cagOsCORE1-0.a(bLib.o)
                                        0x38b (size before relaxing)
 .debug_str     0x000000000000462a       0x77 ../PM_FW_COMMON/Srv/Scheduler/lib/CORE1/cagOsCORE1-0.a(fpga.o)
                                        0x269 (size before relaxing)
 .debug_str     0x00000000000046a1       0xb6 ../PM_FW_COMMON/Srv/Scheduler/lib/CORE1/cagOsCORE1-0.a(fs_api.o)
                                        0x4e7 (size before relaxing)
 .debug_str     0x0000000000004757        0x9 ../PM_FW_COMMON/Srv/Scheduler/lib/CORE1/cagOsCORE1-0.a(strcmp.o)
                                        0x23d (size before relaxing)
 .debug_str     0x0000000000004760      0x1f7 ../PM_FW_COMMON/Srv/Scheduler/lib/CORE1/cagOsCORE1-0.a(sysApi.o)
                                       0x171f (size before relaxing)
 .debug_str     0x0000000000004957       0x52 ../PM_FW_COMMON/Srv/Scheduler/lib/CORE1/cagOsCORE1-0.a(sysCount.o)
                                        0x87f (size before relaxing)
 .debug_str     0x00000000000049a9      0xe91 ../PM_FW_COMMON/Srv/SharedMem/src/SharedRtData.o
                                       0x1087 (size before relaxing)
 .debug_str     0x000000000000583a      0x1f7 ../PM_FW_COMMON/Srv/SharedMem/src/SharedComm.o
                                        0x457 (size before relaxing)
 .debug_str     0x0000000000005a31     0x2486 ../PM_FW_COMMON/Srv/SharedMem/src/SharedConfig.o
                                       0x29f8 (size before relaxing)
 .debug_str     0x0000000000007eb7      0x256 ../PM_FW_COMMON/Srv/SharedMem/src/SharedMem.o
                                        0x63c (size before relaxing)
 .debug_str     0x000000000000810d      0x1ce ../PM_FW_COMMON/Srv/SharedMem/src/LED.o
                                       0x1100 (size before relaxing)
 .debug_str     0x00000000000082db       0x7e ../PM_FW_COMMON/Srv/SharedMem/src/SharedWatchdog.o
                                        0x2c4 (size before relaxing)
 .debug_str     0x0000000000008359      0x150 ../PM_FW_COMMON/Srv/SharedMem/src/SharedHandshake.o
                                        0x38b (size before relaxing)
 .debug_str     0x00000000000084a9      0x593 ../PM_FW_COMMON/Srv/SharedMem/src/SharedSafetyComm.o
                                        0x910 (size before relaxing)
 .debug_str     0x0000000000008a3c      0x30d ../PM_FW_COMMON/Srv/SharedMem/src/SharedSOE.o
                                        0x81c (size before relaxing)
 .debug_str     0x0000000000008d49       0x4c ../PM_FW_COMMON/Srv/SharedMem/src/SharedDiagCode.o
                                        0x38a (size before relaxing)
 .debug_str     0x0000000000008d95       0x64 ./Srv/SysResource/src/SysUpdate.o
                                        0x250 (size before relaxing)
 .debug_str     0x0000000000008df9      0x45c /vagrant/workspace/PM_FW_COMMON/Srv/Scheduler/lib/libgcc.a(_udivdi3.o)
                                        0x535 (size before relaxing)
 .debug_str     0x0000000000009255        0xa /vagrant/workspace/PM_FW_COMMON/Srv/Scheduler/lib/libgcc.a(_umoddi3.o)
                                        0x535 (size before relaxing)
 .debug_str     0x000000000000925f      0x106 /vagrant/workspace/PM_FW_COMMON/Srv/Sys/src/libSysCommon.a(CommSysMonitor.o)
                                        0x31a (size before relaxing)
 .debug_str     0x0000000000009365      0x517 /vagrant/workspace/PM_FW_COMMON/Srv/Sys/src/libSysCommon.a(SysHardware.o)
                                        0x7e1 (size before relaxing)
 .debug_str     0x000000000000987c      0x8c8 /vagrant/workspace/PM_FW_COMMON/Srv/IPBUS/src/libIPBUS.a(IPBUS.o)
                                        0xaca (size before relaxing)
 .debug_str     0x000000000000a144        0x7 App/Main/src/libMain.a(main.o)
                                        0x1e6 (size before relaxing)
 .debug_str     0x000000000000a14b      0x396 App/Main/src/libMain.a(Task.o)
                                        0x7a6 (size before relaxing)
 .debug_str     0x000000000000a4e1     0x2035 App/Comm/src/libComm.a(Comm.o)
                                       0x41f4 (size before relaxing)
 .debug_str     0x000000000000c516      0x900 App/Diag/src/libDiag.a(Diag.o)
                                        0xfa4 (size before relaxing)
 .debug_str     0x000000000000ce16      0x1e5 App/FileManager/src/libFileManager.a(FileManager.o)
                                        0x68e (size before relaxing)
 .debug_str     0x000000000000cffb       0x2f App/Manager/src/libManager.a(Manager.o)
                                        0x21b (size before relaxing)
 .debug_str     0x000000000000d02a       0xb4 App/Manager/src/libManager.a(Key.o)
                                       0x1132 (size before relaxing)
 .debug_str     0x000000000000d0de       0x9d App/Manager/src/libManager.a(Watchdog.o)
                                        0x3f6 (size before relaxing)
 .debug_str     0x000000000000d17b       0x5b App/Monitor/src/libMonitor.a(Monitor.o)
                                        0x29c (size before relaxing)
 .debug_str     0x000000000000d1d6      0xb93 App/ProjectConfig/src/libProjectConfig.a(Config.o)
                                       0x35db (size before relaxing)
 .debug_str     0x000000000000dd69      0xc3e App/Sync/src/libSync.a(Sync.o)
                                       0x2d40 (size before relaxing)
 .debug_str     0x000000000000e9a7      0x3a8 App/SysStateManager/src/libSysStateManager.a(StateMngt.o)
                                       0x2344 (size before relaxing)
 .debug_str     0x000000000000ed4f      0xbc8 Srv/CommProtocol/src/libCMBusProtocol.a(CMBusProtocol.o)
                                       0x235b (size before relaxing)
 .debug_str     0x000000000000f917       0x9a Srv/CommProtocol/src/libCMBusProtocol.a(CMTable.o)
                                        0x58c (size before relaxing)
 .debug_str     0x000000000000f9b1      0x74d Srv/SysResource/src/libSys.a(SysCfgFile.o)
                                        0xd09 (size before relaxing)
 .debug_str     0x00000000000100fe       0x73 Srv/SysResource/src/libSys.a(SysCMBus.o)
                                        0x5e9 (size before relaxing)
 .debug_str     0x0000000000010171      0x37d Srv/SysResource/src/libSys.a(SysCommon.o)
                                       0x1c1e (size before relaxing)
 .debug_str     0x00000000000104ee      0x1da Srv/SysResource/src/libSys.a(SysFileManager.o)
                                        0x734 (size before relaxing)
 .debug_str     0x00000000000106c8       0xc9 Srv/SysResource/src/libSys.a(SysModbus.o)
                                        0x570 (size before relaxing)
 .debug_str     0x0000000000010791       0x87 Srv/SysResource/src/libSys.a(SysP2P.o)
                                        0x5a5 (size before relaxing)
 .debug_str     0x0000000000010818      0x1e7 Srv/SysResource/src/libSys.a(SysRTData.o)
                                       0x1633 (size before relaxing)
 .debug_str     0x00000000000109ff      0x189 Srv/SysResource/src/libSys.a(SysMonitor.o)
                                       0x136b (size before relaxing)
 .debug_str     0x0000000000010b88      0x3f9 Srv/SysResource/src/libSys.a(SysSync.o)
                                       0x11f2 (size before relaxing)
 .debug_str     0x0000000000010f81      0x155 Srv/SysResource/src/libSys.a(SysStateMngt.o)
                                        0x929 (size before relaxing)
 .debug_str     0x00000000000110d6       0x77 Srv/SysResource/src/libSys.a(SysPMConfig.o)
                                        0x39c (size before relaxing)
 .debug_str     0x000000000001114d      0x34e /vagrant/workspace/PM_FW_COMMON/Srv/Scheduler/lib/CORE1/cagOsCORE1-0.a(cmbus.o)
                                        0x563 (size before relaxing)
 .debug_str     0x000000000001149b       0x24 /vagrant/workspace/PM_FW_COMMON/Srv/Scheduler/lib/CORE1/cagOsCORE1-0.a(ipbus.o)
                                        0x2d9 (size before relaxing)
 .debug_str     0x00000000000114bf       0xee /vagrant/workspace/PM_FW_COMMON/Srv/Scheduler/lib/CORE1/cagOsCORE1-0.a(pcie.o)
                                        0x306 (size before relaxing)
 .debug_str     0x00000000000115ad       0xb5 /vagrant/workspace/PM_FW_COMMON/Srv/Scheduler/lib/CORE1/cagOsCORE1-0.a(pmbus.o)
                                        0x31d (size before relaxing)
 .debug_str     0x0000000000011662        0x9 /vagrant/workspace/PM_FW_COMMON/Srv/Scheduler/lib/libgcc.a(_divdi3.o)
                                        0x534 (size before relaxing)
 .debug_str     0x000000000001166b        0x9 /vagrant/workspace/PM_FW_COMMON/Srv/Scheduler/lib/libgcc.a(_moddi3.o)
                                        0x534 (size before relaxing)
 .debug_str     0x0000000000011674      0x1ad /vagrant/workspace/PM_FW_COMMON/Srv/SharedMem/src/libSharedMem.a(SharedRetain.o)
                                        0x3f7 (size before relaxing)
 .debug_str     0x0000000000011821       0x93 /vagrant/workspace/PM_FW_COMMON/Srv/Algrithm/src/libAlgrithm.a(Algrithm.o)
                                        0x294 (size before relaxing)
 .debug_str     0x00000000000118b4      0x3ea /vagrant/workspace/PM_FW_COMMON/Srv/Diag/src/libCDiag.a(DiagCommon.o)
                                        0xec4 (size before relaxing)
 .debug_str     0x0000000000011c9e      0x1eb /vagrant/workspace/PM_FW_COMMON/Srv/Diag/src/libCDiag.a(BoardDiag.o)
                                        0xe01 (size before relaxing)
 .debug_str     0x0000000000011e89       0x62 /vagrant/workspace/PM_FW_COMMON/Srv/Diag/src/libCDiag.a(ExceptionTest.o)
                                        0x294 (size before relaxing)
 .debug_str     0x0000000000011eeb      0x26a /vagrant/workspace/PM_FW_COMMON/Srv/Diag/src/libCDiag.a(DataCacheTest.o)
                                        0xd1e (size before relaxing)
 .debug_str     0x0000000000012155      0x343 /vagrant/workspace/PM_FW_COMMON/Srv/Diag/src/libCDiag.a(CPUTest.o)
                                        0xddf (size before relaxing)
 .debug_str     0x0000000000012498       0xb9 /vagrant/workspace/PM_FW_COMMON/Srv/Diag/src/libCDiag.a(CodeTest.o)
                                        0x3b8 (size before relaxing)
 .debug_str     0x0000000000012551       0x49 /vagrant/workspace/PM_FW_COMMON/Srv/Diag/src/libCDiag.a(SysTest.o)
                                        0x1fe (size before relaxing)
 .debug_str     0x000000000001259a       0x96 /vagrant/workspace/PM_FW_COMMON/Srv/Diag/src/libCDiag.a(RamTest.o)
                                        0xd5c (size before relaxing)
 .debug_str     0x0000000000012630       0x5f /vagrant/workspace/PM_FW_COMMON/Srv/Log/src/libLog.a(Log.o)
                                        0x2a4 (size before relaxing)
 .debug_str     0x000000000001268f      0x10f /vagrant/workspace/PM_FW_COMMON/Srv/Log/src/libLog.a(LogCore0.o)
                                        0x4f3 (size before relaxing)
 .debug_str     0x000000000001279e       0x33 /vagrant/workspace/PM_FW_COMMON/Srv/Log/src/libLog.a(LogCore1.o)
                                        0x4f3 (size before relaxing)
 .debug_str     0x00000000000127d1       0x64 /vagrant/workspace/PM_FW_COMMON/Srv/Log/src/libLog.a(LogUser.o)
                                        0x524 (size before relaxing)
 .debug_str     0x0000000000012835       0x6a /vagrant/workspace/PM_FW_COMMON/Srv/PMBUS/src/libPMBUS.a(PMBUS.o)
                                        0x26c (size before relaxing)
 .debug_str     0x000000000001289f      0x6c4 /vagrant/workspace/PM_FW_COMMON/Srv/SafetyProtocol/src/libSafetyProtocol.a(P2PSafetyComm.o)
                                        0xbd6 (size before relaxing)
 .debug_str     0x0000000000012f63       0xb0 /vagrant/workspace/PM_FW_COMMON/Srv/SafetyProtocol/src/libSafetyProtocol.a(SafetyCommon.o)
                                        0x328 (size before relaxing)
 .debug_str     0x0000000000013013       0x65 /vagrant/workspace/PM_FW_COMMON/Srv/Sys/src/libSysCommon.a(CommSysCommom.o)
                                        0x437 (size before relaxing)
 .debug_str     0x0000000000013078       0x21 /vagrant/workspace/PM_FW_COMMON/Srv/Sys/src/libSysCommon.a(CommSysConfig.o)
                                        0x289 (size before relaxing)
 .debug_str     0x0000000000013099       0xb8 /vagrant/workspace/PM_FW_COMMON/Srv/Sys/src/libSysCommon.a(CommSysSync.o)
                                        0x448 (size before relaxing)
 .debug_str     0x0000000000013151       0x9e /vagrant/workspace/PM_FW_COMMON/Srv/Ver/src/libVer.a(Ver.o)
                                        0x37d (size before relaxing)
 .debug_str     0x00000000000131ef       0x5e App/LEDManager/src/libLEDManager.a(LEDManager.o)
                                        0x227 (size before relaxing)
 .debug_str     0x000000000001324d       0x5a /vagrant/workspace/PM_FW_COMMON/Srv/Scheduler/lib/CORE1/cagOsCORE1-0.a(sysCacheSb.o)
                                        0x231 (size before relaxing)

.comment        0x0000000000000000       0x11
 .comment       0x0000000000000000       0x11 ./App/Main/src/RTSTaskExeEntryBin0.o
                                         0x12 (size before relaxing)
 .comment       0x0000000000000000       0x12 ./App/Main/src/DiagTaskExeEntryBin0.o
 .comment       0x0000000000000000       0x12 ./App/Main/src/FileTaskExeEntryBin0.o
 .comment       0x0000000000000000       0x12 ./App/Main/src/CommTaskExeEntryBin0.o
 .comment       0x0000000000000000       0x12 ../PM_FW_COMMON/Srv/Scheduler/lib/CORE1/cagOsCORE1-0.a(sysCpuLib.o)
 .comment       0x0000000000000000       0x12 ../PM_FW_COMMON/Srv/Scheduler/lib/CORE1/cagOsCORE1-0.a(sysEntry.o)
 .comment       0x0000000000000000       0x12 ../PM_FW_COMMON/Srv/Scheduler/lib/CORE1/cagOsCORE1-0.a(sysExcArchLib.o)
 .comment       0x0000000000000000       0x12 ../PM_FW_COMMON/Srv/Scheduler/lib/CORE1/cagOsCORE1-0.a(sysExcLib.o)
 .comment       0x0000000000000000       0x12 ../PM_FW_COMMON/Srv/Scheduler/lib/CORE1/cagOsCORE1-0.a(sysGpio.o)
 .comment       0x0000000000000000       0x12 ../PM_FW_COMMON/Srv/Scheduler/lib/CORE1/cagOsCORE1-0.a(sysInt.o)
 .comment       0x0000000000000000       0x12 ../PM_FW_COMMON/Srv/Scheduler/lib/CORE1/cagOsCORE1-0.a(sysL2Cache.o)
 .comment       0x0000000000000000       0x12 ../PM_FW_COMMON/Srv/Scheduler/lib/CORE1/cagOsCORE1-0.a(sysOsSwitchLib.o)
 .comment       0x0000000000000000       0x12 ../PM_FW_COMMON/Srv/Scheduler/lib/CORE1/cagOsCORE1-0.a(sysPic.o)
 .comment       0x0000000000000000       0x12 ../PM_FW_COMMON/Srv/Scheduler/lib/CORE1/cagOsCORE1-0.a(sysSpeExcLib.o)
 .comment       0x0000000000000000       0x12 ../PM_FW_COMMON/Srv/Scheduler/lib/CORE1/cagOsCORE1-0.a(sysTask.o)
 .comment       0x0000000000000000       0x12 ../PM_FW_COMMON/Srv/Scheduler/lib/CORE1/cagOsCORE1-0.a(sysTbl.o)
 .comment       0x0000000000000000       0x12 ../PM_FW_COMMON/Srv/Scheduler/lib/CORE1/cagOsCORE1-0.a(sysTick.o)
 .comment       0x0000000000000000       0x12 ../PM_FW_COMMON/Srv/Scheduler/lib/CORE1/cagOsCORE1-0.a(sysTime.o)
 .comment       0x0000000000000000       0x12 ../PM_FW_COMMON/Srv/Scheduler/lib/CORE1/cagOsCORE1-0.a(update.o)
 .comment       0x0000000000000000       0x12 ../PM_FW_COMMON/Srv/Scheduler/lib/CORE1/cagOsCORE1-0.a(dfs.o)
 .comment       0x0000000000000000       0x12 ../PM_FW_COMMON/Srv/Scheduler/lib/CORE1/cagOsCORE1-0.a(hw_init.o)
 .comment       0x0000000000000000       0x12 ../PM_FW_COMMON/Srv/Scheduler/lib/CORE1/cagOsCORE1-0.a(lld.o)
 .comment       0x0000000000000000       0x12 ../PM_FW_COMMON/Srv/Scheduler/lib/CORE1/cagOsCORE1-0.a(memcpy.o)
 .comment       0x0000000000000000       0x12 ../PM_FW_COMMON/Srv/Scheduler/lib/CORE1/cagOsCORE1-0.a(memset.o)
 .comment       0x0000000000000000       0x12 ../PM_FW_COMMON/Srv/Scheduler/lib/CORE1/cagOsCORE1-0.a(ns16550.o)
 .comment       0x0000000000000000       0x12 ../PM_FW_COMMON/Srv/Scheduler/lib/CORE1/cagOsCORE1-0.a(printk.o)
 .comment       0x0000000000000000       0x12 ../PM_FW_COMMON/Srv/Scheduler/lib/CORE1/cagOsCORE1-0.a(sffs.o)
 .comment       0x0000000000000000       0x12 ../PM_FW_COMMON/Srv/Scheduler/lib/CORE1/cagOsCORE1-0.a(sf.o)
 .comment       0x0000000000000000       0x12 ../PM_FW_COMMON/Srv/Scheduler/lib/CORE1/cagOsCORE1-0.a(strcpy.o)
 .comment       0x0000000000000000       0x12 ../PM_FW_COMMON/Srv/Scheduler/lib/CORE1/cagOsCORE1-0.a(strlen.o)
 .comment       0x0000000000000000       0x12 ../PM_FW_COMMON/Srv/Scheduler/lib/CORE1/cagOsCORE1-0.a(strncpy.o)
 .comment       0x0000000000000000       0x12 ../PM_FW_COMMON/Srv/Scheduler/lib/CORE1/cagOsCORE1-0.a(sysBanner.o)
 .comment       0x0000000000000000       0x12 ../PM_FW_COMMON/Srv/Scheduler/lib/CORE1/cagOsCORE1-0.a(sysBoard.o)
 .comment       0x0000000000000000       0x12 ../PM_FW_COMMON/Srv/Scheduler/lib/CORE1/cagOsCORE1-0.a(sysCacheE500Lib.o)
 .comment       0x0000000000000000       0x12 ../PM_FW_COMMON/Srv/Scheduler/lib/CORE1/cagOsCORE1-0.a(sysCfg.o)
 .comment       0x0000000000000000       0x12 ../PM_FW_COMMON/Srv/Scheduler/lib/CORE1/cagOsCORE1-0.a(sysCore.o)
 .comment       0x0000000000000000       0x12 ../PM_FW_COMMON/Srv/Scheduler/lib/CORE1/cagOsCORE1-0.a(sysCpuE500Lib.o)
 .comment       0x0000000000000000       0x12 ../PM_FW_COMMON/Srv/Scheduler/lib/CORE1/cagOsCORE1-0.a(sysDec.o)
 .comment       0x0000000000000000       0x12 ../PM_FW_COMMON/Srv/Scheduler/lib/CORE1/cagOsCORE1-0.a(sysMsg.o)
 .comment       0x0000000000000000       0x12 ../PM_FW_COMMON/Srv/Scheduler/lib/CORE1/cagOsCORE1-0.a(sysMutex.o)
 .comment       0x0000000000000000       0x12 ../PM_FW_COMMON/Srv/Scheduler/lib/CORE1/cagOsCORE1-0.a(sysPrio.o)
 .comment       0x0000000000000000       0x12 ../PM_FW_COMMON/Srv/Scheduler/lib/CORE1/cagOsCORE1-0.a(sysQueue.o)
 .comment       0x0000000000000000       0x12 ../PM_FW_COMMON/Srv/Scheduler/lib/CORE1/cagOsCORE1-0.a(sysSem.o)
 .comment       0x0000000000000000       0x12 ../PM_FW_COMMON/Srv/Scheduler/lib/CORE1/cagOsCORE1-0.a(bits.o)
 .comment       0x0000000000000000       0x12 ../PM_FW_COMMON/Srv/Scheduler/lib/CORE1/cagOsCORE1-0.a(bLib.o)
 .comment       0x0000000000000000       0x12 ../PM_FW_COMMON/Srv/Scheduler/lib/CORE1/cagOsCORE1-0.a(fpga.o)
 .comment       0x0000000000000000       0x12 ../PM_FW_COMMON/Srv/Scheduler/lib/CORE1/cagOsCORE1-0.a(fs_api.o)
 .comment       0x0000000000000000       0x12 ../PM_FW_COMMON/Srv/Scheduler/lib/CORE1/cagOsCORE1-0.a(strcmp.o)
 .comment       0x0000000000000000       0x12 ../PM_FW_COMMON/Srv/Scheduler/lib/CORE1/cagOsCORE1-0.a(sysApi.o)
 .comment       0x0000000000000000       0x12 ../PM_FW_COMMON/Srv/Scheduler/lib/CORE1/cagOsCORE1-0.a(sysCount.o)
 .comment       0x0000000000000000       0x12 ../PM_FW_COMMON/Srv/SharedMem/src/SharedRtData.o
 .comment       0x0000000000000000       0x12 ../PM_FW_COMMON/Srv/SharedMem/src/SharedComm.o
 .comment       0x0000000000000000       0x12 ../PM_FW_COMMON/Srv/SharedMem/src/SharedConfig.o
 .comment       0x0000000000000000       0x12 ../PM_FW_COMMON/Srv/SharedMem/src/SharedMem.o
 .comment       0x0000000000000000       0x12 ../PM_FW_COMMON/Srv/SharedMem/src/LED.o
 .comment       0x0000000000000000       0x12 ../PM_FW_COMMON/Srv/SharedMem/src/SharedWatchdog.o
 .comment       0x0000000000000000       0x12 ../PM_FW_COMMON/Srv/SharedMem/src/SharedHandshake.o
 .comment       0x0000000000000000       0x12 ../PM_FW_COMMON/Srv/SharedMem/src/SharedSafetyComm.o
 .comment       0x0000000000000000       0x12 ../PM_FW_COMMON/Srv/SharedMem/src/SharedSOE.o
 .comment       0x0000000000000000       0x12 ../PM_FW_COMMON/Srv/SharedMem/src/SharedDiagCode.o
 .comment       0x0000000000000000       0x12 ./Srv/SysResource/src/SysUpdate.o
 .comment       0x0000000000000000       0x12 /vagrant/workspace/PM_FW_COMMON/Srv/Scheduler/lib/libgcc.a(_udivdi3.o)
 .comment       0x0000000000000000       0x12 /vagrant/workspace/PM_FW_COMMON/Srv/Scheduler/lib/libgcc.a(_umoddi3.o)
 .comment       0x0000000000000000       0x12 /vagrant/workspace/PM_FW_COMMON/Srv/Sys/src/libSysCommon.a(CommSysMonitor.o)
 .comment       0x0000000000000000       0x12 /vagrant/workspace/PM_FW_COMMON/Srv/Sys/src/libSysCommon.a(SysHardware.o)
 .comment       0x0000000000000000       0x12 /vagrant/workspace/PM_FW_COMMON/Srv/IPBUS/src/libIPBUS.a(IPBUS.o)
 .comment       0x0000000000000000       0x12 App/Main/src/libMain.a(main.o)
 .comment       0x0000000000000000       0x12 App/Main/src/libMain.a(Task.o)
 .comment       0x0000000000000000       0x12 App/Comm/src/libComm.a(Comm.o)
 .comment       0x0000000000000000       0x12 App/Diag/src/libDiag.a(Diag.o)
 .comment       0x0000000000000000       0x12 App/FileManager/src/libFileManager.a(FileManager.o)
 .comment       0x0000000000000000       0x12 App/Manager/src/libManager.a(Manager.o)
 .comment       0x0000000000000000       0x12 App/Manager/src/libManager.a(Key.o)
 .comment       0x0000000000000000       0x12 App/Manager/src/libManager.a(Watchdog.o)
 .comment       0x0000000000000000       0x12 App/Monitor/src/libMonitor.a(Monitor.o)
 .comment       0x0000000000000000       0x12 App/ProjectConfig/src/libProjectConfig.a(Config.o)
 .comment       0x0000000000000000       0x12 App/Sync/src/libSync.a(Sync.o)
 .comment       0x0000000000000000       0x12 App/SysStateManager/src/libSysStateManager.a(StateMngt.o)
 .comment       0x0000000000000000       0x12 Srv/CommProtocol/src/libCMBusProtocol.a(CMBusProtocol.o)
 .comment       0x0000000000000000       0x12 Srv/CommProtocol/src/libCMBusProtocol.a(CMTable.o)
 .comment       0x0000000000000000       0x12 Srv/SysResource/src/libSys.a(SysCfgFile.o)
 .comment       0x0000000000000000       0x12 Srv/SysResource/src/libSys.a(SysCMBus.o)
 .comment       0x0000000000000000       0x12 Srv/SysResource/src/libSys.a(SysCommon.o)
 .comment       0x0000000000000000       0x12 Srv/SysResource/src/libSys.a(SysFileManager.o)
 .comment       0x0000000000000000       0x12 Srv/SysResource/src/libSys.a(SysModbus.o)
 .comment       0x0000000000000000       0x12 Srv/SysResource/src/libSys.a(SysP2P.o)
 .comment       0x0000000000000000       0x12 Srv/SysResource/src/libSys.a(SysRTData.o)
 .comment       0x0000000000000000       0x12 Srv/SysResource/src/libSys.a(SysMonitor.o)
 .comment       0x0000000000000000       0x12 Srv/SysResource/src/libSys.a(SysSync.o)
 .comment       0x0000000000000000       0x12 Srv/SysResource/src/libSys.a(SysStateMngt.o)
 .comment       0x0000000000000000       0x12 Srv/SysResource/src/libSys.a(SysPMConfig.o)
 .comment       0x0000000000000000       0x12 /vagrant/workspace/PM_FW_COMMON/Srv/Scheduler/lib/CORE1/cagOsCORE1-0.a(cmbus.o)
 .comment       0x0000000000000000       0x12 /vagrant/workspace/PM_FW_COMMON/Srv/Scheduler/lib/CORE1/cagOsCORE1-0.a(ipbus.o)
 .comment       0x0000000000000000       0x12 /vagrant/workspace/PM_FW_COMMON/Srv/Scheduler/lib/CORE1/cagOsCORE1-0.a(pcie.o)
 .comment       0x0000000000000000       0x12 /vagrant/workspace/PM_FW_COMMON/Srv/Scheduler/lib/CORE1/cagOsCORE1-0.a(pmbus.o)
 .comment       0x0000000000000000       0x12 /vagrant/workspace/PM_FW_COMMON/Srv/Scheduler/lib/libgcc.a(_divdi3.o)
 .comment       0x0000000000000000       0x12 /vagrant/workspace/PM_FW_COMMON/Srv/Scheduler/lib/libgcc.a(_moddi3.o)
 .comment       0x0000000000000000       0x12 /vagrant/workspace/PM_FW_COMMON/Srv/SharedMem/src/libSharedMem.a(SharedRetain.o)
 .comment       0x0000000000000000       0x12 /vagrant/workspace/PM_FW_COMMON/Srv/Algrithm/src/libAlgrithm.a(Algrithm.o)
 .comment       0x0000000000000000       0x12 /vagrant/workspace/PM_FW_COMMON/Srv/Diag/src/libCDiag.a(DiagCommon.o)
 .comment       0x0000000000000000       0x12 /vagrant/workspace/PM_FW_COMMON/Srv/Diag/src/libCDiag.a(BoardDiag.o)
 .comment       0x0000000000000000       0x12 /vagrant/workspace/PM_FW_COMMON/Srv/Diag/src/libCDiag.a(ExceptionTest.o)
 .comment       0x0000000000000000       0x12 /vagrant/workspace/PM_FW_COMMON/Srv/Diag/src/libCDiag.a(DataCacheTest.o)
 .comment       0x0000000000000000       0x12 /vagrant/workspace/PM_FW_COMMON/Srv/Diag/src/libCDiag.a(CPUTest.o)
 .comment       0x0000000000000000       0x12 /vagrant/workspace/PM_FW_COMMON/Srv/Diag/src/libCDiag.a(CodeTest.o)
 .comment       0x0000000000000000       0x12 /vagrant/workspace/PM_FW_COMMON/Srv/Diag/src/libCDiag.a(SysTest.o)
 .comment       0x0000000000000000       0x12 /vagrant/workspace/PM_FW_COMMON/Srv/Diag/src/libCDiag.a(RamTest.o)
 .comment       0x0000000000000000       0x12 /vagrant/workspace/PM_FW_COMMON/Srv/Log/src/libLog.a(Log.o)
 .comment       0x0000000000000000       0x12 /vagrant/workspace/PM_FW_COMMON/Srv/Log/src/libLog.a(LogCore0.o)
 .comment       0x0000000000000000       0x12 /vagrant/workspace/PM_FW_COMMON/Srv/Log/src/libLog.a(LogCore1.o)
 .comment       0x0000000000000000       0x12 /vagrant/workspace/PM_FW_COMMON/Srv/Log/src/libLog.a(LogUser.o)
 .comment       0x0000000000000000       0x12 /vagrant/workspace/PM_FW_COMMON/Srv/PMBUS/src/libPMBUS.a(PMBUS.o)
 .comment       0x0000000000000000       0x12 /vagrant/workspace/PM_FW_COMMON/Srv/SafetyProtocol/src/libSafetyProtocol.a(P2PSafetyComm.o)
 .comment       0x0000000000000000       0x12 /vagrant/workspace/PM_FW_COMMON/Srv/SafetyProtocol/src/libSafetyProtocol.a(SafetyCommon.o)
 .comment       0x0000000000000000       0x12 /vagrant/workspace/PM_FW_COMMON/Srv/Sys/src/libSysCommon.a(CommSysCommom.o)
 .comment       0x0000000000000000       0x12 /vagrant/workspace/PM_FW_COMMON/Srv/Sys/src/libSysCommon.a(CommSysConfig.o)
 .comment       0x0000000000000000       0x12 /vagrant/workspace/PM_FW_COMMON/Srv/Sys/src/libSysCommon.a(CommSysSync.o)
 .comment       0x0000000000000000       0x12 /vagrant/workspace/PM_FW_COMMON/Srv/Ver/src/libVer.a(Ver.o)
 .comment       0x0000000000000000       0x12 App/LEDManager/src/libLEDManager.a(LEDManager.o)
 .comment       0x0000000000000000       0x12 /vagrant/workspace/PM_FW_COMMON/Srv/Scheduler/lib/CORE1/cagOsCORE1-0.a(sysCacheSb.o)

.note.GNU-stack
                0x0000000000000000        0x0
 .note.GNU-stack
                0x0000000000000000        0x0 ./App/Main/src/RTSTaskExeEntryBin0.o
 .note.GNU-stack
                0x0000000000000000        0x0 ./App/Main/src/DiagTaskExeEntryBin0.o
 .note.GNU-stack
                0x0000000000000000        0x0 ./App/Main/src/FileTaskExeEntryBin0.o
 .note.GNU-stack
                0x0000000000000000        0x0 ./App/Main/src/CommTaskExeEntryBin0.o
 .note.GNU-stack
                0x0000000000000000        0x0 ../PM_FW_COMMON/Srv/Scheduler/lib/CORE1/cagOsCORE1-0.a(sysCpuLib.o)
 .note.GNU-stack
                0x0000000000000000        0x0 ../PM_FW_COMMON/Srv/Scheduler/lib/CORE1/cagOsCORE1-0.a(sysEntry.o)
 .note.GNU-stack
                0x0000000000000000        0x0 ../PM_FW_COMMON/Srv/Scheduler/lib/CORE1/cagOsCORE1-0.a(sysExcArchLib.o)
 .note.GNU-stack
                0x0000000000000000        0x0 ../PM_FW_COMMON/Srv/Scheduler/lib/CORE1/cagOsCORE1-0.a(sysExcLib.o)
 .note.GNU-stack
                0x0000000000000000        0x0 ../PM_FW_COMMON/Srv/Scheduler/lib/CORE1/cagOsCORE1-0.a(sysGpio.o)
 .note.GNU-stack
                0x0000000000000000        0x0 ../PM_FW_COMMON/Srv/Scheduler/lib/CORE1/cagOsCORE1-0.a(sysInt.o)
 .note.GNU-stack
                0x0000000000000000        0x0 ../PM_FW_COMMON/Srv/Scheduler/lib/CORE1/cagOsCORE1-0.a(sysL2Cache.o)
 .note.GNU-stack
                0x0000000000000000        0x0 ../PM_FW_COMMON/Srv/Scheduler/lib/CORE1/cagOsCORE1-0.a(sysOsSwitchLib.o)
 .note.GNU-stack
                0x0000000000000000        0x0 ../PM_FW_COMMON/Srv/Scheduler/lib/CORE1/cagOsCORE1-0.a(sysPic.o)
 .note.GNU-stack
                0x0000000000000000        0x0 ../PM_FW_COMMON/Srv/Scheduler/lib/CORE1/cagOsCORE1-0.a(sysSpeExcLib.o)
 .note.GNU-stack
                0x0000000000000000        0x0 ../PM_FW_COMMON/Srv/Scheduler/lib/CORE1/cagOsCORE1-0.a(sysTask.o)
 .note.GNU-stack
                0x0000000000000000        0x0 ../PM_FW_COMMON/Srv/Scheduler/lib/CORE1/cagOsCORE1-0.a(sysTbl.o)
 .note.GNU-stack
                0x0000000000000000        0x0 ../PM_FW_COMMON/Srv/Scheduler/lib/CORE1/cagOsCORE1-0.a(sysTick.o)
 .note.GNU-stack
                0x0000000000000000        0x0 ../PM_FW_COMMON/Srv/Scheduler/lib/CORE1/cagOsCORE1-0.a(sysTime.o)
 .note.GNU-stack
                0x0000000000000000        0x0 ../PM_FW_COMMON/Srv/Scheduler/lib/CORE1/cagOsCORE1-0.a(update.o)
 .note.GNU-stack
                0x0000000000000000        0x0 ../PM_FW_COMMON/Srv/Scheduler/lib/CORE1/cagOsCORE1-0.a(dfs.o)
 .note.GNU-stack
                0x0000000000000000        0x0 ../PM_FW_COMMON/Srv/Scheduler/lib/CORE1/cagOsCORE1-0.a(hw_init.o)
 .note.GNU-stack
                0x0000000000000000        0x0 ../PM_FW_COMMON/Srv/Scheduler/lib/CORE1/cagOsCORE1-0.a(lld.o)
 .note.GNU-stack
                0x0000000000000000        0x0 ../PM_FW_COMMON/Srv/Scheduler/lib/CORE1/cagOsCORE1-0.a(memcpy.o)
 .note.GNU-stack
                0x0000000000000000        0x0 ../PM_FW_COMMON/Srv/Scheduler/lib/CORE1/cagOsCORE1-0.a(memset.o)
 .note.GNU-stack
                0x0000000000000000        0x0 ../PM_FW_COMMON/Srv/Scheduler/lib/CORE1/cagOsCORE1-0.a(ns16550.o)
 .note.GNU-stack
                0x0000000000000000        0x0 ../PM_FW_COMMON/Srv/Scheduler/lib/CORE1/cagOsCORE1-0.a(printk.o)
 .note.GNU-stack
                0x0000000000000000        0x0 ../PM_FW_COMMON/Srv/Scheduler/lib/CORE1/cagOsCORE1-0.a(sffs.o)
 .note.GNU-stack
                0x0000000000000000        0x0 ../PM_FW_COMMON/Srv/Scheduler/lib/CORE1/cagOsCORE1-0.a(sf.o)
 .note.GNU-stack
                0x0000000000000000        0x0 ../PM_FW_COMMON/Srv/Scheduler/lib/CORE1/cagOsCORE1-0.a(strcpy.o)
 .note.GNU-stack
                0x0000000000000000        0x0 ../PM_FW_COMMON/Srv/Scheduler/lib/CORE1/cagOsCORE1-0.a(strlen.o)
 .note.GNU-stack
                0x0000000000000000        0x0 ../PM_FW_COMMON/Srv/Scheduler/lib/CORE1/cagOsCORE1-0.a(strncpy.o)
 .note.GNU-stack
                0x0000000000000000        0x0 ../PM_FW_COMMON/Srv/Scheduler/lib/CORE1/cagOsCORE1-0.a(sysBanner.o)
 .note.GNU-stack
                0x0000000000000000        0x0 ../PM_FW_COMMON/Srv/Scheduler/lib/CORE1/cagOsCORE1-0.a(sysBoard.o)
 .note.GNU-stack
                0x0000000000000000        0x0 ../PM_FW_COMMON/Srv/Scheduler/lib/CORE1/cagOsCORE1-0.a(sysCacheE500Lib.o)
 .note.GNU-stack
                0x0000000000000000        0x0 ../PM_FW_COMMON/Srv/Scheduler/lib/CORE1/cagOsCORE1-0.a(sysCfg.o)
 .note.GNU-stack
                0x0000000000000000        0x0 ../PM_FW_COMMON/Srv/Scheduler/lib/CORE1/cagOsCORE1-0.a(sysCore.o)
 .note.GNU-stack
                0x0000000000000000        0x0 ../PM_FW_COMMON/Srv/Scheduler/lib/CORE1/cagOsCORE1-0.a(sysCpuE500Lib.o)
 .note.GNU-stack
                0x0000000000000000        0x0 ../PM_FW_COMMON/Srv/Scheduler/lib/CORE1/cagOsCORE1-0.a(sysDec.o)
 .note.GNU-stack
                0x0000000000000000        0x0 ../PM_FW_COMMON/Srv/Scheduler/lib/CORE1/cagOsCORE1-0.a(sysMsg.o)
 .note.GNU-stack
                0x0000000000000000        0x0 ../PM_FW_COMMON/Srv/Scheduler/lib/CORE1/cagOsCORE1-0.a(sysMutex.o)
 .note.GNU-stack
                0x0000000000000000        0x0 ../PM_FW_COMMON/Srv/Scheduler/lib/CORE1/cagOsCORE1-0.a(sysPrio.o)
 .note.GNU-stack
                0x0000000000000000        0x0 ../PM_FW_COMMON/Srv/Scheduler/lib/CORE1/cagOsCORE1-0.a(sysQueue.o)
 .note.GNU-stack
                0x0000000000000000        0x0 ../PM_FW_COMMON/Srv/Scheduler/lib/CORE1/cagOsCORE1-0.a(sysSem.o)
 .note.GNU-stack
                0x0000000000000000        0x0 ../PM_FW_COMMON/Srv/Scheduler/lib/CORE1/cagOsCORE1-0.a(bits.o)
 .note.GNU-stack
                0x0000000000000000        0x0 ../PM_FW_COMMON/Srv/Scheduler/lib/CORE1/cagOsCORE1-0.a(bLib.o)
 .note.GNU-stack
                0x0000000000000000        0x0 ../PM_FW_COMMON/Srv/Scheduler/lib/CORE1/cagOsCORE1-0.a(fpga.o)
 .note.GNU-stack
                0x0000000000000000        0x0 ../PM_FW_COMMON/Srv/Scheduler/lib/CORE1/cagOsCORE1-0.a(fs_api.o)
 .note.GNU-stack
                0x0000000000000000        0x0 ../PM_FW_COMMON/Srv/Scheduler/lib/CORE1/cagOsCORE1-0.a(strcmp.o)
 .note.GNU-stack
                0x0000000000000000        0x0 ../PM_FW_COMMON/Srv/Scheduler/lib/CORE1/cagOsCORE1-0.a(sysApi.o)
 .note.GNU-stack
                0x0000000000000000        0x0 ../PM_FW_COMMON/Srv/Scheduler/lib/CORE1/cagOsCORE1-0.a(sysCount.o)
 .note.GNU-stack
                0x0000000000000000        0x0 ../PM_FW_COMMON/Srv/SharedMem/src/SharedRtData.o
 .note.GNU-stack
                0x0000000000000000        0x0 ../PM_FW_COMMON/Srv/SharedMem/src/SharedComm.o
 .note.GNU-stack
                0x0000000000000000        0x0 ../PM_FW_COMMON/Srv/SharedMem/src/SharedConfig.o
 .note.GNU-stack
                0x0000000000000000        0x0 ../PM_FW_COMMON/Srv/SharedMem/src/SharedMem.o
 .note.GNU-stack
                0x0000000000000000        0x0 ../PM_FW_COMMON/Srv/SharedMem/src/LED.o
 .note.GNU-stack
                0x0000000000000000        0x0 ../PM_FW_COMMON/Srv/SharedMem/src/SharedWatchdog.o
 .note.GNU-stack
                0x0000000000000000        0x0 ../PM_FW_COMMON/Srv/SharedMem/src/SharedHandshake.o
 .note.GNU-stack
                0x0000000000000000        0x0 ../PM_FW_COMMON/Srv/SharedMem/src/SharedSafetyComm.o
 .note.GNU-stack
                0x0000000000000000        0x0 ../PM_FW_COMMON/Srv/SharedMem/src/SharedSOE.o
 .note.GNU-stack
                0x0000000000000000        0x0 ../PM_FW_COMMON/Srv/SharedMem/src/SharedDiagCode.o
 .note.GNU-stack
                0x0000000000000000        0x0 ./Srv/SysResource/src/SysUpdate.o
 .note.GNU-stack
                0x0000000000000000        0x0 /vagrant/workspace/PM_FW_COMMON/Srv/Scheduler/lib/libgcc.a(_udivdi3.o)
 .note.GNU-stack
                0x0000000000000000        0x0 /vagrant/workspace/PM_FW_COMMON/Srv/Scheduler/lib/libgcc.a(_umoddi3.o)
 .note.GNU-stack
                0x0000000000000000        0x0 /vagrant/workspace/PM_FW_COMMON/Srv/Scheduler/lib/libc.a(strncmp.o)
 .note.GNU-stack
                0x0000000000000000        0x0 /vagrant/workspace/PM_FW_COMMON/Srv/Sys/src/libSysCommon.a(CommSysMonitor.o)
 .note.GNU-stack
                0x0000000000000000        0x0 /vagrant/workspace/PM_FW_COMMON/Srv/Sys/src/libSysCommon.a(SysHardware.o)
 .note.GNU-stack
                0x0000000000000000        0x0 /vagrant/workspace/PM_FW_COMMON/Srv/IPBUS/src/libIPBUS.a(IPBUS.o)
 .note.GNU-stack
                0x0000000000000000        0x0 App/Main/src/libMain.a(main.o)
 .note.GNU-stack
                0x0000000000000000        0x0 App/Main/src/libMain.a(Task.o)
 .note.GNU-stack
                0x0000000000000000        0x0 App/Comm/src/libComm.a(Comm.o)
 .note.GNU-stack
                0x0000000000000000        0x0 App/Diag/src/libDiag.a(Diag.o)
 .note.GNU-stack
                0x0000000000000000        0x0 App/FileManager/src/libFileManager.a(FileManager.o)
 .note.GNU-stack
                0x0000000000000000        0x0 App/Manager/src/libManager.a(Manager.o)
 .note.GNU-stack
                0x0000000000000000        0x0 App/Manager/src/libManager.a(Key.o)
 .note.GNU-stack
                0x0000000000000000        0x0 App/Manager/src/libManager.a(Watchdog.o)
 .note.GNU-stack
                0x0000000000000000        0x0 App/Monitor/src/libMonitor.a(Monitor.o)
 .note.GNU-stack
                0x0000000000000000        0x0 App/ProjectConfig/src/libProjectConfig.a(Config.o)
 .note.GNU-stack
                0x0000000000000000        0x0 App/Sync/src/libSync.a(Sync.o)
 .note.GNU-stack
                0x0000000000000000        0x0 App/SysStateManager/src/libSysStateManager.a(StateMngt.o)
 .note.GNU-stack
                0x0000000000000000        0x0 Srv/CommProtocol/src/libCMBusProtocol.a(CMBusProtocol.o)
 .note.GNU-stack
                0x0000000000000000        0x0 Srv/CommProtocol/src/libCMBusProtocol.a(CMTable.o)
 .note.GNU-stack
                0x0000000000000000        0x0 Srv/SysResource/src/libSys.a(SysCfgFile.o)
 .note.GNU-stack
                0x0000000000000000        0x0 Srv/SysResource/src/libSys.a(SysCMBus.o)
 .note.GNU-stack
                0x0000000000000000        0x0 Srv/SysResource/src/libSys.a(SysCommon.o)
 .note.GNU-stack
                0x0000000000000000        0x0 Srv/SysResource/src/libSys.a(SysFileManager.o)
 .note.GNU-stack
                0x0000000000000000        0x0 Srv/SysResource/src/libSys.a(SysModbus.o)
 .note.GNU-stack
                0x0000000000000000        0x0 Srv/SysResource/src/libSys.a(SysP2P.o)
 .note.GNU-stack
                0x0000000000000000        0x0 Srv/SysResource/src/libSys.a(SysRTData.o)
 .note.GNU-stack
                0x0000000000000000        0x0 Srv/SysResource/src/libSys.a(SysMonitor.o)
 .note.GNU-stack
                0x0000000000000000        0x0 Srv/SysResource/src/libSys.a(SysSync.o)
 .note.GNU-stack
                0x0000000000000000        0x0 Srv/SysResource/src/libSys.a(SysStateMngt.o)
 .note.GNU-stack
                0x0000000000000000        0x0 Srv/SysResource/src/libSys.a(SysPMConfig.o)
 .note.GNU-stack
                0x0000000000000000        0x0 /vagrant/workspace/PM_FW_COMMON/Srv/Scheduler/lib/CORE1/cagOsCORE1-0.a(cmbus.o)
 .note.GNU-stack
                0x0000000000000000        0x0 /vagrant/workspace/PM_FW_COMMON/Srv/Scheduler/lib/CORE1/cagOsCORE1-0.a(ipbus.o)
 .note.GNU-stack
                0x0000000000000000        0x0 /vagrant/workspace/PM_FW_COMMON/Srv/Scheduler/lib/CORE1/cagOsCORE1-0.a(pcie.o)
 .note.GNU-stack
                0x0000000000000000        0x0 /vagrant/workspace/PM_FW_COMMON/Srv/Scheduler/lib/CORE1/cagOsCORE1-0.a(pmbus.o)
 .note.GNU-stack
                0x0000000000000000        0x0 /vagrant/workspace/PM_FW_COMMON/Srv/Scheduler/lib/libgcc.a(_divdi3.o)
 .note.GNU-stack
                0x0000000000000000        0x0 /vagrant/workspace/PM_FW_COMMON/Srv/Scheduler/lib/libgcc.a(_moddi3.o)
 .note.GNU-stack
                0x0000000000000000        0x0 /vagrant/workspace/PM_FW_COMMON/Srv/SharedMem/src/libSharedMem.a(SharedRetain.o)
 .note.GNU-stack
                0x0000000000000000        0x0 /vagrant/workspace/PM_FW_COMMON/Srv/Algrithm/src/libAlgrithm.a(Algrithm.o)
 .note.GNU-stack
                0x0000000000000000        0x0 /vagrant/workspace/PM_FW_COMMON/Srv/Diag/src/libCDiag.a(DiagCommon.o)
 .note.GNU-stack
                0x0000000000000000        0x0 /vagrant/workspace/PM_FW_COMMON/Srv/Diag/src/libCDiag.a(BoardDiag.o)
 .note.GNU-stack
                0x0000000000000000        0x0 /vagrant/workspace/PM_FW_COMMON/Srv/Diag/src/libCDiag.a(ExceptionTest.o)
 .note.GNU-stack
                0x0000000000000000        0x0 /vagrant/workspace/PM_FW_COMMON/Srv/Diag/src/libCDiag.a(DataCacheTest.o)
 .note.GNU-stack
                0x0000000000000000        0x0 /vagrant/workspace/PM_FW_COMMON/Srv/Diag/src/libCDiag.a(CPUTest.o)
 .note.GNU-stack
                0x0000000000000000        0x0 /vagrant/workspace/PM_FW_COMMON/Srv/Diag/src/libCDiag.a(CodeTest.o)
 .note.GNU-stack
                0x0000000000000000        0x0 /vagrant/workspace/PM_FW_COMMON/Srv/Diag/src/libCDiag.a(SysTest.o)
 .note.GNU-stack
                0x0000000000000000        0x0 /vagrant/workspace/PM_FW_COMMON/Srv/Diag/src/libCDiag.a(RamTest.o)
 .note.GNU-stack
                0x0000000000000000        0x0 /vagrant/workspace/PM_FW_COMMON/Srv/Log/src/libLog.a(Log.o)
 .note.GNU-stack
                0x0000000000000000        0x0 /vagrant/workspace/PM_FW_COMMON/Srv/Log/src/libLog.a(LogCore0.o)
 .note.GNU-stack
                0x0000000000000000        0x0 /vagrant/workspace/PM_FW_COMMON/Srv/Log/src/libLog.a(LogCore1.o)
 .note.GNU-stack
                0x0000000000000000        0x0 /vagrant/workspace/PM_FW_COMMON/Srv/Log/src/libLog.a(LogUser.o)
 .note.GNU-stack
                0x0000000000000000        0x0 /vagrant/workspace/PM_FW_COMMON/Srv/PMBUS/src/libPMBUS.a(PMBUS.o)
 .note.GNU-stack
                0x0000000000000000        0x0 /vagrant/workspace/PM_FW_COMMON/Srv/SafetyProtocol/src/libSafetyProtocol.a(P2PSafetyComm.o)
 .note.GNU-stack
                0x0000000000000000        0x0 /vagrant/workspace/PM_FW_COMMON/Srv/SafetyProtocol/src/libSafetyProtocol.a(SafetyCommon.o)
 .note.GNU-stack
                0x0000000000000000        0x0 /vagrant/workspace/PM_FW_COMMON/Srv/Sys/src/libSysCommon.a(CommSysCommom.o)
 .note.GNU-stack
                0x0000000000000000        0x0 /vagrant/workspace/PM_FW_COMMON/Srv/Sys/src/libSysCommon.a(CommSysConfig.o)
 .note.GNU-stack
                0x0000000000000000        0x0 /vagrant/workspace/PM_FW_COMMON/Srv/Sys/src/libSysCommon.a(CommSysSync.o)
 .note.GNU-stack
                0x0000000000000000        0x0 /vagrant/workspace/PM_FW_COMMON/Srv/Ver/src/libVer.a(Ver.o)
 .note.GNU-stack
                0x0000000000000000        0x0 App/LEDManager/src/libLEDManager.a(LEDManager.o)
 .note.GNU-stack
                0x0000000000000000        0x0 /vagrant/workspace/PM_FW_COMMON/Srv/Scheduler/lib/CORE1/cagOsCORE1-0.a(sysCacheSb.o)

.PPC.EMB.apuinfo
                0x0000000000000000       0x28
 .PPC.EMB.apuinfo
                0x0000000000000000       0x18 ./App/Main/src/RTSTaskExeEntryBin0.o
 .PPC.EMB.apuinfo
                0x0000000000000018       0x18 ./App/Main/src/DiagTaskExeEntryBin0.o
 .PPC.EMB.apuinfo
                0x0000000000000030       0x18 ./App/Main/src/FileTaskExeEntryBin0.o
 .PPC.EMB.apuinfo
                0x0000000000000048       0x18 ./App/Main/src/CommTaskExeEntryBin0.o
 .PPC.EMB.apuinfo
                0x0000000000000060       0x18 ../PM_FW_COMMON/Srv/Scheduler/lib/CORE1/cagOsCORE1-0.a(sysCpuALib.o)
 .PPC.EMB.apuinfo
                0x0000000000000078       0x18 ../PM_FW_COMMON/Srv/Scheduler/lib/CORE1/cagOsCORE1-0.a(sysCpuLib.o)
 .PPC.EMB.apuinfo
                0x0000000000000090       0x18 ../PM_FW_COMMON/Srv/Scheduler/lib/CORE1/cagOsCORE1-0.a(sysE500Tlb.o)
 .PPC.EMB.apuinfo
                0x00000000000000a8       0x18 ../PM_FW_COMMON/Srv/Scheduler/lib/CORE1/cagOsCORE1-0.a(sysEntry.o)
 .PPC.EMB.apuinfo
                0x00000000000000c0       0x18 ../PM_FW_COMMON/Srv/Scheduler/lib/CORE1/cagOsCORE1-0.a(sysExcArchALib.o)
 .PPC.EMB.apuinfo
                0x00000000000000d8       0x18 ../PM_FW_COMMON/Srv/Scheduler/lib/CORE1/cagOsCORE1-0.a(sysExcArchLib.o)
 .PPC.EMB.apuinfo
                0x00000000000000f0       0x18 ../PM_FW_COMMON/Srv/Scheduler/lib/CORE1/cagOsCORE1-0.a(sysExcLib.o)
 .PPC.EMB.apuinfo
                0x0000000000000108       0x1c ../PM_FW_COMMON/Srv/Scheduler/lib/CORE1/cagOsCORE1-0.a(sysGpio.o)
 .PPC.EMB.apuinfo
                0x0000000000000124       0x18 ../PM_FW_COMMON/Srv/Scheduler/lib/CORE1/cagOsCORE1-0.a(sysInt.o)
 .PPC.EMB.apuinfo
                0x000000000000013c       0x18 ../PM_FW_COMMON/Srv/Scheduler/lib/CORE1/cagOsCORE1-0.a(sysL2Cache.o)
 .PPC.EMB.apuinfo
                0x0000000000000154       0x18 ../PM_FW_COMMON/Srv/Scheduler/lib/CORE1/cagOsCORE1-0.a(sysOsSwitchLib.o)
 .PPC.EMB.apuinfo
                0x000000000000016c       0x1c ../PM_FW_COMMON/Srv/Scheduler/lib/CORE1/cagOsCORE1-0.a(sysPic.o)
 .PPC.EMB.apuinfo
                0x0000000000000188       0x18 ../PM_FW_COMMON/Srv/Scheduler/lib/CORE1/cagOsCORE1-0.a(sysSpeExcLib.o)
 .PPC.EMB.apuinfo
                0x00000000000001a0       0x18 ../PM_FW_COMMON/Srv/Scheduler/lib/CORE1/cagOsCORE1-0.a(sysTask.o)
 .PPC.EMB.apuinfo
                0x00000000000001b8       0x18 ../PM_FW_COMMON/Srv/Scheduler/lib/CORE1/cagOsCORE1-0.a(sysTbl.o)
 .PPC.EMB.apuinfo
                0x00000000000001d0       0x18 ../PM_FW_COMMON/Srv/Scheduler/lib/CORE1/cagOsCORE1-0.a(sysTick.o)
 .PPC.EMB.apuinfo
                0x00000000000001e8       0x18 ../PM_FW_COMMON/Srv/Scheduler/lib/CORE1/cagOsCORE1-0.a(sysTime.o)
 .PPC.EMB.apuinfo
                0x0000000000000200       0x1c ../PM_FW_COMMON/Srv/Scheduler/lib/CORE1/cagOsCORE1-0.a(update.o)
 .PPC.EMB.apuinfo
                0x000000000000021c       0x1c ../PM_FW_COMMON/Srv/Scheduler/lib/CORE1/cagOsCORE1-0.a(dfs.o)
 .PPC.EMB.apuinfo
                0x0000000000000238       0x18 ../PM_FW_COMMON/Srv/Scheduler/lib/CORE1/cagOsCORE1-0.a(hw_init.o)
 .PPC.EMB.apuinfo
                0x0000000000000250       0x18 ../PM_FW_COMMON/Srv/Scheduler/lib/CORE1/cagOsCORE1-0.a(lld.o)
 .PPC.EMB.apuinfo
                0x0000000000000268       0x18 ../PM_FW_COMMON/Srv/Scheduler/lib/CORE1/cagOsCORE1-0.a(memcpy.o)
 .PPC.EMB.apuinfo
                0x0000000000000280       0x18 ../PM_FW_COMMON/Srv/Scheduler/lib/CORE1/cagOsCORE1-0.a(memset.o)
 .PPC.EMB.apuinfo
                0x0000000000000298       0x18 ../PM_FW_COMMON/Srv/Scheduler/lib/CORE1/cagOsCORE1-0.a(ns16550.o)
 .PPC.EMB.apuinfo
                0x00000000000002b0       0x18 ../PM_FW_COMMON/Srv/Scheduler/lib/CORE1/cagOsCORE1-0.a(printk.o)
 .PPC.EMB.apuinfo
                0x00000000000002c8       0x18 ../PM_FW_COMMON/Srv/Scheduler/lib/CORE1/cagOsCORE1-0.a(sffs.o)
 .PPC.EMB.apuinfo
                0x00000000000002e0       0x18 ../PM_FW_COMMON/Srv/Scheduler/lib/CORE1/cagOsCORE1-0.a(sf.o)
 .PPC.EMB.apuinfo
                0x00000000000002f8       0x18 ../PM_FW_COMMON/Srv/Scheduler/lib/CORE1/cagOsCORE1-0.a(strcpy.o)
 .PPC.EMB.apuinfo
                0x0000000000000310       0x18 ../PM_FW_COMMON/Srv/Scheduler/lib/CORE1/cagOsCORE1-0.a(strlen.o)
 .PPC.EMB.apuinfo
                0x0000000000000328       0x18 ../PM_FW_COMMON/Srv/Scheduler/lib/CORE1/cagOsCORE1-0.a(strncpy.o)
 .PPC.EMB.apuinfo
                0x0000000000000340       0x18 ../PM_FW_COMMON/Srv/Scheduler/lib/CORE1/cagOsCORE1-0.a(sysAccess.o)
 .PPC.EMB.apuinfo
                0x0000000000000358       0x18 ../PM_FW_COMMON/Srv/Scheduler/lib/CORE1/cagOsCORE1-0.a(sysBanner.o)
 .PPC.EMB.apuinfo
                0x0000000000000370       0x18 ../PM_FW_COMMON/Srv/Scheduler/lib/CORE1/cagOsCORE1-0.a(sysBoard.o)
 .PPC.EMB.apuinfo
                0x0000000000000388       0x1c ../PM_FW_COMMON/Srv/Scheduler/lib/CORE1/cagOsCORE1-0.a(sysCacheE500Lib.o)
 .PPC.EMB.apuinfo
                0x00000000000003a4       0x18 ../PM_FW_COMMON/Srv/Scheduler/lib/CORE1/cagOsCORE1-0.a(sysCfg.o)
 .PPC.EMB.apuinfo
                0x00000000000003bc       0x18 ../PM_FW_COMMON/Srv/Scheduler/lib/CORE1/cagOsCORE1-0.a(sysCore.o)
 .PPC.EMB.apuinfo
                0x00000000000003d4       0x18 ../PM_FW_COMMON/Srv/Scheduler/lib/CORE1/cagOsCORE1-0.a(sysCpuE500ALib.o)
 .PPC.EMB.apuinfo
                0x00000000000003ec       0x1c ../PM_FW_COMMON/Srv/Scheduler/lib/CORE1/cagOsCORE1-0.a(sysCpuE500Lib.o)
 .PPC.EMB.apuinfo
                0x0000000000000408       0x18 ../PM_FW_COMMON/Srv/Scheduler/lib/CORE1/cagOsCORE1-0.a(sysDec.o)
 .PPC.EMB.apuinfo
                0x0000000000000420       0x18 ../PM_FW_COMMON/Srv/Scheduler/lib/CORE1/cagOsCORE1-0.a(sysMsg.o)
 .PPC.EMB.apuinfo
                0x0000000000000438       0x18 ../PM_FW_COMMON/Srv/Scheduler/lib/CORE1/cagOsCORE1-0.a(sysMutex.o)
 .PPC.EMB.apuinfo
                0x0000000000000450       0x18 ../PM_FW_COMMON/Srv/Scheduler/lib/CORE1/cagOsCORE1-0.a(sysOsIrq.o)
 .PPC.EMB.apuinfo
                0x0000000000000468       0x18 ../PM_FW_COMMON/Srv/Scheduler/lib/CORE1/cagOsCORE1-0.a(sysOsSwitchALib.o)
 .PPC.EMB.apuinfo
                0x0000000000000480       0x18 ../PM_FW_COMMON/Srv/Scheduler/lib/CORE1/cagOsCORE1-0.a(sysPrio.o)
 .PPC.EMB.apuinfo
                0x0000000000000498       0x18 ../PM_FW_COMMON/Srv/Scheduler/lib/CORE1/cagOsCORE1-0.a(sysQueue.o)
 .PPC.EMB.apuinfo
                0x00000000000004b0       0x18 ../PM_FW_COMMON/Srv/Scheduler/lib/CORE1/cagOsCORE1-0.a(sysSem.o)
 .PPC.EMB.apuinfo
                0x00000000000004c8       0x1c ../PM_FW_COMMON/Srv/Scheduler/lib/CORE1/cagOsCORE1-0.a(sysSpeVectorALib.o)
 .PPC.EMB.apuinfo
                0x00000000000004e4       0x1c ../PM_FW_COMMON/Srv/Scheduler/lib/CORE1/cagOsCORE1-0.a(bits.o)
 .PPC.EMB.apuinfo
                0x0000000000000500       0x18 ../PM_FW_COMMON/Srv/Scheduler/lib/CORE1/cagOsCORE1-0.a(bLib.o)
 .PPC.EMB.apuinfo
                0x0000000000000518       0x18 ../PM_FW_COMMON/Srv/Scheduler/lib/CORE1/cagOsCORE1-0.a(fpga.o)
 .PPC.EMB.apuinfo
                0x0000000000000530       0x1c ../PM_FW_COMMON/Srv/Scheduler/lib/CORE1/cagOsCORE1-0.a(fs_api.o)
 .PPC.EMB.apuinfo
                0x000000000000054c       0x18 ../PM_FW_COMMON/Srv/Scheduler/lib/CORE1/cagOsCORE1-0.a(strcmp.o)
 .PPC.EMB.apuinfo
                0x0000000000000564       0x18 ../PM_FW_COMMON/Srv/Scheduler/lib/CORE1/cagOsCORE1-0.a(sysApi.o)
 .PPC.EMB.apuinfo
                0x000000000000057c       0x1c ../PM_FW_COMMON/Srv/Scheduler/lib/CORE1/cagOsCORE1-0.a(sysCacheE500ALib.o)
 .PPC.EMB.apuinfo
                0x0000000000000598       0x18 ../PM_FW_COMMON/Srv/Scheduler/lib/CORE1/cagOsCORE1-0.a(sysCount.o)
 .PPC.EMB.apuinfo
                0x00000000000005b0       0x18 ../PM_FW_COMMON/Srv/SharedMem/src/SharedRtData.o
 .PPC.EMB.apuinfo
                0x00000000000005c8       0x18 ../PM_FW_COMMON/Srv/SharedMem/src/SharedComm.o
 .PPC.EMB.apuinfo
                0x00000000000005e0       0x18 ../PM_FW_COMMON/Srv/SharedMem/src/SharedConfig.o
 .PPC.EMB.apuinfo
                0x00000000000005f8       0x18 ../PM_FW_COMMON/Srv/SharedMem/src/SharedMem.o
 .PPC.EMB.apuinfo
                0x0000000000000610       0x18 ../PM_FW_COMMON/Srv/SharedMem/src/LED.o
 .PPC.EMB.apuinfo
                0x0000000000000628       0x18 ../PM_FW_COMMON/Srv/SharedMem/src/SharedWatchdog.o
 .PPC.EMB.apuinfo
                0x0000000000000640       0x18 ../PM_FW_COMMON/Srv/SharedMem/src/SharedHandshake.o
 .PPC.EMB.apuinfo
                0x0000000000000658       0x18 ../PM_FW_COMMON/Srv/SharedMem/src/SharedSafetyComm.o
 .PPC.EMB.apuinfo
                0x0000000000000670       0x18 ../PM_FW_COMMON/Srv/SharedMem/src/SharedSOE.o
 .PPC.EMB.apuinfo
                0x0000000000000688       0x18 ../PM_FW_COMMON/Srv/SharedMem/src/SharedDiagCode.o
 .PPC.EMB.apuinfo
                0x00000000000006a0       0x18 ./Srv/SysResource/src/SysUpdate.o
 .PPC.EMB.apuinfo
                0x00000000000006b8       0x1c /vagrant/workspace/PM_FW_COMMON/Srv/Scheduler/lib/libgcc.a(_udivdi3.o)
 .PPC.EMB.apuinfo
                0x00000000000006d4       0x1c /vagrant/workspace/PM_FW_COMMON/Srv/Scheduler/lib/libgcc.a(_umoddi3.o)
 .PPC.EMB.apuinfo
                0x00000000000006f0       0x18 /vagrant/workspace/PM_FW_COMMON/Srv/Scheduler/lib/libc.a(strncmp.o)
 .PPC.EMB.apuinfo
                0x0000000000000708       0x18 /vagrant/workspace/PM_FW_COMMON/Srv/Sys/src/libSysCommon.a(CommSysMonitor.o)
 .PPC.EMB.apuinfo
                0x0000000000000720       0x1c /vagrant/workspace/PM_FW_COMMON/Srv/Sys/src/libSysCommon.a(SysHardware.o)
 .PPC.EMB.apuinfo
                0x000000000000073c       0x1c /vagrant/workspace/PM_FW_COMMON/Srv/IPBUS/src/libIPBUS.a(IPBUS.o)
 .PPC.EMB.apuinfo
                0x0000000000000758       0x18 App/Main/src/libMain.a(main.o)
 .PPC.EMB.apuinfo
                0x0000000000000770       0x18 App/Main/src/libMain.a(Task.o)
 .PPC.EMB.apuinfo
                0x0000000000000788       0x1c App/Comm/src/libComm.a(Comm.o)
 .PPC.EMB.apuinfo
                0x00000000000007a4       0x18 App/Diag/src/libDiag.a(Diag.o)
 .PPC.EMB.apuinfo
                0x00000000000007bc       0x18 App/FileManager/src/libFileManager.a(FileManager.o)
 .PPC.EMB.apuinfo
                0x00000000000007d4       0x18 App/Manager/src/libManager.a(Manager.o)
 .PPC.EMB.apuinfo
                0x00000000000007ec       0x18 App/Manager/src/libManager.a(Key.o)
 .PPC.EMB.apuinfo
                0x0000000000000804       0x18 App/Manager/src/libManager.a(Watchdog.o)
 .PPC.EMB.apuinfo
                0x000000000000081c       0x18 App/Monitor/src/libMonitor.a(Monitor.o)
 .PPC.EMB.apuinfo
                0x0000000000000834       0x20 App/ProjectConfig/src/libProjectConfig.a(Config.o)
 .PPC.EMB.apuinfo
                0x0000000000000854       0x1c App/Sync/src/libSync.a(Sync.o)
 .PPC.EMB.apuinfo
                0x0000000000000870       0x18 App/SysStateManager/src/libSysStateManager.a(StateMngt.o)
 .PPC.EMB.apuinfo
                0x0000000000000888       0x18 Srv/CommProtocol/src/libCMBusProtocol.a(CMBusProtocol.o)
 .PPC.EMB.apuinfo
                0x00000000000008a0       0x18 Srv/CommProtocol/src/libCMBusProtocol.a(CMTable.o)
 .PPC.EMB.apuinfo
                0x00000000000008b8       0x18 Srv/SysResource/src/libSys.a(SysCfgFile.o)
 .PPC.EMB.apuinfo
                0x00000000000008d0       0x18 Srv/SysResource/src/libSys.a(SysCMBus.o)
 .PPC.EMB.apuinfo
                0x00000000000008e8       0x18 Srv/SysResource/src/libSys.a(SysCommon.o)
 .PPC.EMB.apuinfo
                0x0000000000000900       0x18 Srv/SysResource/src/libSys.a(SysFileManager.o)
 .PPC.EMB.apuinfo
                0x0000000000000918       0x18 Srv/SysResource/src/libSys.a(SysModbus.o)
 .PPC.EMB.apuinfo
                0x0000000000000930       0x18 Srv/SysResource/src/libSys.a(SysP2P.o)
 .PPC.EMB.apuinfo
                0x0000000000000948       0x18 Srv/SysResource/src/libSys.a(SysRTData.o)
 .PPC.EMB.apuinfo
                0x0000000000000960       0x1c Srv/SysResource/src/libSys.a(SysMonitor.o)
 .PPC.EMB.apuinfo
                0x000000000000097c       0x18 Srv/SysResource/src/libSys.a(SysSync.o)
 .PPC.EMB.apuinfo
                0x0000000000000994       0x18 Srv/SysResource/src/libSys.a(SysStateMngt.o)
 .PPC.EMB.apuinfo
                0x00000000000009ac       0x18 Srv/SysResource/src/libSys.a(SysPMConfig.o)
 .PPC.EMB.apuinfo
                0x00000000000009c4       0x18 /vagrant/workspace/PM_FW_COMMON/Srv/Scheduler/lib/CORE1/cagOsCORE1-0.a(cmbus.o)
 .PPC.EMB.apuinfo
                0x00000000000009dc       0x18 /vagrant/workspace/PM_FW_COMMON/Srv/Scheduler/lib/CORE1/cagOsCORE1-0.a(ipbus.o)
 .PPC.EMB.apuinfo
                0x00000000000009f4       0x1c /vagrant/workspace/PM_FW_COMMON/Srv/Scheduler/lib/CORE1/cagOsCORE1-0.a(pcie.o)
 .PPC.EMB.apuinfo
                0x0000000000000a10       0x18 /vagrant/workspace/PM_FW_COMMON/Srv/Scheduler/lib/CORE1/cagOsCORE1-0.a(pmbus.o)
 .PPC.EMB.apuinfo
                0x0000000000000a28       0x1c /vagrant/workspace/PM_FW_COMMON/Srv/Scheduler/lib/libgcc.a(_divdi3.o)
 .PPC.EMB.apuinfo
                0x0000000000000a44       0x1c /vagrant/workspace/PM_FW_COMMON/Srv/Scheduler/lib/libgcc.a(_moddi3.o)
 .PPC.EMB.apuinfo
                0x0000000000000a60       0x18 /vagrant/workspace/PM_FW_COMMON/Srv/SharedMem/src/libSharedMem.a(SharedRetain.o)
 .PPC.EMB.apuinfo
                0x0000000000000a78       0x18 /vagrant/workspace/PM_FW_COMMON/Srv/Algrithm/src/libAlgrithm.a(Algrithm.o)
 .PPC.EMB.apuinfo
                0x0000000000000a90       0x18 /vagrant/workspace/PM_FW_COMMON/Srv/Diag/src/libCDiag.a(DiagCommon.o)
 .PPC.EMB.apuinfo
                0x0000000000000aa8       0x18 /vagrant/workspace/PM_FW_COMMON/Srv/Diag/src/libCDiag.a(BoardDiag.o)
 .PPC.EMB.apuinfo
                0x0000000000000ac0       0x18 /vagrant/workspace/PM_FW_COMMON/Srv/Diag/src/libCDiag.a(ExceptionTest.o)
 .PPC.EMB.apuinfo
                0x0000000000000ad8       0x18 /vagrant/workspace/PM_FW_COMMON/Srv/Diag/src/libCDiag.a(DataCacheTest.o)
 .PPC.EMB.apuinfo
                0x0000000000000af0       0x18 /vagrant/workspace/PM_FW_COMMON/Srv/Diag/src/libCDiag.a(CPUTest.o)
 .PPC.EMB.apuinfo
                0x0000000000000b08       0x18 /vagrant/workspace/PM_FW_COMMON/Srv/Diag/src/libCDiag.a(CodeTest.o)
 .PPC.EMB.apuinfo
                0x0000000000000b20       0x18 /vagrant/workspace/PM_FW_COMMON/Srv/Diag/src/libCDiag.a(SysTest.o)
 .PPC.EMB.apuinfo
                0x0000000000000b38       0x18 /vagrant/workspace/PM_FW_COMMON/Srv/Diag/src/libCDiag.a(RamTest.o)
 .PPC.EMB.apuinfo
                0x0000000000000b50       0x18 /vagrant/workspace/PM_FW_COMMON/Srv/Log/src/libLog.a(Log.o)
 .PPC.EMB.apuinfo
                0x0000000000000b68       0x18 /vagrant/workspace/PM_FW_COMMON/Srv/Log/src/libLog.a(LogCore0.o)
 .PPC.EMB.apuinfo
                0x0000000000000b80       0x18 /vagrant/workspace/PM_FW_COMMON/Srv/Log/src/libLog.a(LogCore1.o)
 .PPC.EMB.apuinfo
                0x0000000000000b98       0x18 /vagrant/workspace/PM_FW_COMMON/Srv/Log/src/libLog.a(LogUser.o)
 .PPC.EMB.apuinfo
                0x0000000000000bb0       0x18 /vagrant/workspace/PM_FW_COMMON/Srv/PMBUS/src/libPMBUS.a(PMBUS.o)
 .PPC.EMB.apuinfo
                0x0000000000000bc8       0x18 /vagrant/workspace/PM_FW_COMMON/Srv/SafetyProtocol/src/libSafetyProtocol.a(P2PSafetyComm.o)
 .PPC.EMB.apuinfo
                0x0000000000000be0       0x18 /vagrant/workspace/PM_FW_COMMON/Srv/SafetyProtocol/src/libSafetyProtocol.a(SafetyCommon.o)
 .PPC.EMB.apuinfo
                0x0000000000000bf8       0x18 /vagrant/workspace/PM_FW_COMMON/Srv/Sys/src/libSysCommon.a(CommSysCommom.o)
 .PPC.EMB.apuinfo
                0x0000000000000c10       0x18 /vagrant/workspace/PM_FW_COMMON/Srv/Sys/src/libSysCommon.a(CommSysConfig.o)
 .PPC.EMB.apuinfo
                0x0000000000000c28       0x18 /vagrant/workspace/PM_FW_COMMON/Srv/Sys/src/libSysCommon.a(CommSysSync.o)
 .PPC.EMB.apuinfo
                0x0000000000000c40       0x18 /vagrant/workspace/PM_FW_COMMON/Srv/Ver/src/libVer.a(Ver.o)
 .PPC.EMB.apuinfo
                0x0000000000000c58       0x18 App/LEDManager/src/libLEDManager.a(LEDManager.o)
 .PPC.EMB.apuinfo
                0x0000000000000c70       0x18 /vagrant/workspace/PM_FW_COMMON/Srv/Scheduler/lib/CORE1/cagOsCORE1-0.a(sysCacheSb.o)
 .PPC.EMB.apuinfo
                0x0000000000000c88       0x18 /vagrant/workspace/PM_FW_COMMON/Srv/Diag/asm/libAsmDiag.a(BPU_cond_branch_test_bca.o)
 .PPC.EMB.apuinfo
                0x0000000000000ca0       0x18 /vagrant/workspace/PM_FW_COMMON/Srv/Diag/asm/libAsmDiag.a(BPU_cond_branch_test_bcla.o)
 .PPC.EMB.apuinfo
                0x0000000000000cb8       0x18 /vagrant/workspace/PM_FW_COMMON/Srv/Diag/asm/libAsmDiag.a(BPU_cond_branch_test.o)
 .PPC.EMB.apuinfo
                0x0000000000000cd0       0x18 /vagrant/workspace/PM_FW_COMMON/Srv/Diag/asm/libAsmDiag.a(BPU_uncond_branch_test_ba_bla.o)
 .PPC.EMB.apuinfo
                0x0000000000000ce8       0x18 /vagrant/workspace/PM_FW_COMMON/Srv/Diag/asm/libAsmDiag.a(BPU_uncond_branch_test.o)
 .PPC.EMB.apuinfo
                0x0000000000000d00       0x18 /vagrant/workspace/PM_FW_COMMON/Srv/Diag/asm/libAsmDiag.a(cr_test.o)
 .PPC.EMB.apuinfo
                0x0000000000000d18       0x18 /vagrant/workspace/PM_FW_COMMON/Srv/Diag/asm/libAsmDiag.a(data_cache_test.o)
 .PPC.EMB.apuinfo
                0x0000000000000d30       0x18 /vagrant/workspace/PM_FW_COMMON/Srv/Diag/asm/libAsmDiag.a(GPR_interword_test.o)
 .PPC.EMB.apuinfo
                0x0000000000000d48       0x18 /vagrant/workspace/PM_FW_COMMON/Srv/Diag/asm/libAsmDiag.a(GPR_intraword_test.o)
 .PPC.EMB.apuinfo
                0x0000000000000d60       0x18 /vagrant/workspace/PM_FW_COMMON/Srv/Diag/asm/libAsmDiag.a(IU1_test.o)
 .PPC.EMB.apuinfo
                0x0000000000000d78       0x18 /vagrant/workspace/PM_FW_COMMON/Srv/Diag/asm/libAsmDiag.a(IU2_test.o)
 .PPC.EMB.apuinfo
                0x0000000000000d90       0x18 /vagrant/workspace/PM_FW_COMMON/Srv/Diag/asm/libAsmDiag.a(lr_test.o)
 .PPC.EMB.apuinfo
                0x0000000000000da8       0x18 /vagrant/workspace/PM_FW_COMMON/Srv/Diag/asm/libAsmDiag.a(LSU_data_test.o)
 .PPC.EMB.apuinfo
                0x0000000000000dc0       0x18 /vagrant/workspace/PM_FW_COMMON/Srv/Diag/asm/libAsmDiag.a(LSU_ea_calc_test.o)
 .PPC.EMB.apuinfo
                0x0000000000000dd8       0x18 /vagrant/workspace/PM_FW_COMMON/Srv/Diag/asm/libAsmDiag.a(SPR_interword_test.o)
 .PPC.EMB.apuinfo
                0x0000000000000df0       0x18 /vagrant/workspace/PM_FW_COMMON/Srv/Diag/asm/libAsmDiag.a(SPR_intraword_test.o)
 .PPC.EMB.apuinfo
                0x0000000000000e08       0x18 /vagrant/workspace/PM_FW_COMMON/Srv/Diag/asm/libAsmDiag.a(SPRG_test.o)
 .PPC.EMB.apuinfo
                0x0000000000000e20       0x18 /vagrant/workspace/PM_FW_COMMON/Srv/Diag/asm/libAsmDiag.a(Pipeline_test.o)

.gnu.attributes
                0x0000000000000000       0x12
 .gnu.attributes
                0x0000000000000000       0x10 ../PM_FW_COMMON/Srv/Scheduler/lib/CORE1/cagOsCORE1-0.a(printk.o)
 .gnu.attributes
                0x0000000000000010       0x10 Srv/SysResource/src/libSys.a(SysCommon.o)
 .gnu.attributes
                0x0000000000000020       0x10 Srv/SysResource/src/libSys.a(SysMonitor.o)

.debug_frame    0x0000000000000000     0xca84
 .debug_frame   0x0000000000000000       0x34 ./App/Main/src/RTSTaskExeEntryBin0.o
 .debug_frame   0x0000000000000034       0x34 ./App/Main/src/DiagTaskExeEntryBin0.o
 .debug_frame   0x0000000000000068       0x34 ./App/Main/src/FileTaskExeEntryBin0.o
 .debug_frame   0x000000000000009c       0x34 ./App/Main/src/CommTaskExeEntryBin0.o
 .debug_frame   0x00000000000000d0      0x180 ../PM_FW_COMMON/Srv/Scheduler/lib/CORE1/cagOsCORE1-0.a(sysCpuLib.o)
 .debug_frame   0x0000000000000250       0xd8 ../PM_FW_COMMON/Srv/Scheduler/lib/CORE1/cagOsCORE1-0.a(sysEntry.o)
 .debug_frame   0x0000000000000328      0x114 ../PM_FW_COMMON/Srv/Scheduler/lib/CORE1/cagOsCORE1-0.a(sysExcArchLib.o)
 .debug_frame   0x000000000000043c       0xa8 ../PM_FW_COMMON/Srv/Scheduler/lib/CORE1/cagOsCORE1-0.a(sysExcLib.o)
 .debug_frame   0x00000000000004e4      0x10c ../PM_FW_COMMON/Srv/Scheduler/lib/CORE1/cagOsCORE1-0.a(sysGpio.o)
 .debug_frame   0x00000000000005f0       0xac ../PM_FW_COMMON/Srv/Scheduler/lib/CORE1/cagOsCORE1-0.a(sysInt.o)
 .debug_frame   0x000000000000069c       0xc4 ../PM_FW_COMMON/Srv/Scheduler/lib/CORE1/cagOsCORE1-0.a(sysL2Cache.o)
 .debug_frame   0x0000000000000760      0x19c ../PM_FW_COMMON/Srv/Scheduler/lib/CORE1/cagOsCORE1-0.a(sysOsSwitchLib.o)
 .debug_frame   0x00000000000008fc      0x114 ../PM_FW_COMMON/Srv/Scheduler/lib/CORE1/cagOsCORE1-0.a(sysPic.o)
 .debug_frame   0x0000000000000a10       0x34 ../PM_FW_COMMON/Srv/Scheduler/lib/CORE1/cagOsCORE1-0.a(sysSpeExcLib.o)
 .debug_frame   0x0000000000000a44      0x29c ../PM_FW_COMMON/Srv/Scheduler/lib/CORE1/cagOsCORE1-0.a(sysTask.o)
 .debug_frame   0x0000000000000ce0       0xfc ../PM_FW_COMMON/Srv/Scheduler/lib/CORE1/cagOsCORE1-0.a(sysTbl.o)
 .debug_frame   0x0000000000000ddc      0x118 ../PM_FW_COMMON/Srv/Scheduler/lib/CORE1/cagOsCORE1-0.a(sysTick.o)
 .debug_frame   0x0000000000000ef4       0xcc ../PM_FW_COMMON/Srv/Scheduler/lib/CORE1/cagOsCORE1-0.a(sysTime.o)
 .debug_frame   0x0000000000000fc0      0x11c ../PM_FW_COMMON/Srv/Scheduler/lib/CORE1/cagOsCORE1-0.a(update.o)
 .debug_frame   0x00000000000010dc      0x13c ../PM_FW_COMMON/Srv/Scheduler/lib/CORE1/cagOsCORE1-0.a(dfs.o)
 .debug_frame   0x0000000000001218       0xd0 ../PM_FW_COMMON/Srv/Scheduler/lib/CORE1/cagOsCORE1-0.a(hw_init.o)
 .debug_frame   0x00000000000012e8      0x51c ../PM_FW_COMMON/Srv/Scheduler/lib/CORE1/cagOsCORE1-0.a(lld.o)
 .debug_frame   0x0000000000001804       0x34 ../PM_FW_COMMON/Srv/Scheduler/lib/CORE1/cagOsCORE1-0.a(memcpy.o)
 .debug_frame   0x0000000000001838       0x34 ../PM_FW_COMMON/Srv/Scheduler/lib/CORE1/cagOsCORE1-0.a(memset.o)
 .debug_frame   0x000000000000186c       0xcc ../PM_FW_COMMON/Srv/Scheduler/lib/CORE1/cagOsCORE1-0.a(ns16550.o)
 .debug_frame   0x0000000000001938      0x1b4 ../PM_FW_COMMON/Srv/Scheduler/lib/CORE1/cagOsCORE1-0.a(printk.o)
 .debug_frame   0x0000000000001aec      0x604 ../PM_FW_COMMON/Srv/Scheduler/lib/CORE1/cagOsCORE1-0.a(sffs.o)
 .debug_frame   0x00000000000020f0      0x118 ../PM_FW_COMMON/Srv/Scheduler/lib/CORE1/cagOsCORE1-0.a(sf.o)
 .debug_frame   0x0000000000002208       0x34 ../PM_FW_COMMON/Srv/Scheduler/lib/CORE1/cagOsCORE1-0.a(strcpy.o)
 .debug_frame   0x000000000000223c       0x34 ../PM_FW_COMMON/Srv/Scheduler/lib/CORE1/cagOsCORE1-0.a(strlen.o)
 .debug_frame   0x0000000000002270       0x34 ../PM_FW_COMMON/Srv/Scheduler/lib/CORE1/cagOsCORE1-0.a(strncpy.o)
 .debug_frame   0x00000000000022a4       0x5c ../PM_FW_COMMON/Srv/Scheduler/lib/CORE1/cagOsCORE1-0.a(sysBanner.o)
 .debug_frame   0x0000000000002300      0x240 ../PM_FW_COMMON/Srv/Scheduler/lib/CORE1/cagOsCORE1-0.a(sysBoard.o)
 .debug_frame   0x0000000000002540      0x1c0 ../PM_FW_COMMON/Srv/Scheduler/lib/CORE1/cagOsCORE1-0.a(sysCacheE500Lib.o)
 .debug_frame   0x0000000000002700       0x34 ../PM_FW_COMMON/Srv/Scheduler/lib/CORE1/cagOsCORE1-0.a(sysCfg.o)
 .debug_frame   0x0000000000002734      0x4cc ../PM_FW_COMMON/Srv/Scheduler/lib/CORE1/cagOsCORE1-0.a(sysCore.o)
 .debug_frame   0x0000000000002c00       0xa8 ../PM_FW_COMMON/Srv/Scheduler/lib/CORE1/cagOsCORE1-0.a(sysCpuE500Lib.o)
 .debug_frame   0x0000000000002ca8       0x50 ../PM_FW_COMMON/Srv/Scheduler/lib/CORE1/cagOsCORE1-0.a(sysDec.o)
 .debug_frame   0x0000000000002cf8       0xc4 ../PM_FW_COMMON/Srv/Scheduler/lib/CORE1/cagOsCORE1-0.a(sysMsg.o)
 .debug_frame   0x0000000000002dbc      0x1ac ../PM_FW_COMMON/Srv/Scheduler/lib/CORE1/cagOsCORE1-0.a(sysMutex.o)
 .debug_frame   0x0000000000002f68       0xa0 ../PM_FW_COMMON/Srv/Scheduler/lib/CORE1/cagOsCORE1-0.a(sysPrio.o)
 .debug_frame   0x0000000000003008      0x168 ../PM_FW_COMMON/Srv/Scheduler/lib/CORE1/cagOsCORE1-0.a(sysQueue.o)
 .debug_frame   0x0000000000003170      0x164 ../PM_FW_COMMON/Srv/Scheduler/lib/CORE1/cagOsCORE1-0.a(sysSem.o)
 .debug_frame   0x00000000000032d4       0xa0 ../PM_FW_COMMON/Srv/Scheduler/lib/CORE1/cagOsCORE1-0.a(bits.o)
 .debug_frame   0x0000000000003374      0x234 ../PM_FW_COMMON/Srv/Scheduler/lib/CORE1/cagOsCORE1-0.a(bLib.o)
 .debug_frame   0x00000000000035a8       0x58 ../PM_FW_COMMON/Srv/Scheduler/lib/CORE1/cagOsCORE1-0.a(fpga.o)
 .debug_frame   0x0000000000003600      0x40c ../PM_FW_COMMON/Srv/Scheduler/lib/CORE1/cagOsCORE1-0.a(fs_api.o)
 .debug_frame   0x0000000000003a0c       0x34 ../PM_FW_COMMON/Srv/Scheduler/lib/CORE1/cagOsCORE1-0.a(strcmp.o)
 .debug_frame   0x0000000000003a40      0x408 ../PM_FW_COMMON/Srv/Scheduler/lib/CORE1/cagOsCORE1-0.a(sysApi.o)
 .debug_frame   0x0000000000003e48       0x58 ../PM_FW_COMMON/Srv/Scheduler/lib/CORE1/cagOsCORE1-0.a(sysCount.o)
 .debug_frame   0x0000000000003ea0       0x7c ../PM_FW_COMMON/Srv/SharedMem/src/SharedRtData.o
 .debug_frame   0x0000000000003f1c       0x84 ../PM_FW_COMMON/Srv/SharedMem/src/SharedComm.o
 .debug_frame   0x0000000000003fa0      0xf44 ../PM_FW_COMMON/Srv/SharedMem/src/SharedConfig.o
 .debug_frame   0x0000000000004ee4      0x1c0 ../PM_FW_COMMON/Srv/SharedMem/src/SharedMem.o
 .debug_frame   0x00000000000050a4       0xa4 ../PM_FW_COMMON/Srv/SharedMem/src/LED.o
 .debug_frame   0x0000000000005148       0x7c ../PM_FW_COMMON/Srv/SharedMem/src/SharedWatchdog.o
 .debug_frame   0x00000000000051c4       0xc4 ../PM_FW_COMMON/Srv/SharedMem/src/SharedHandshake.o
 .debug_frame   0x0000000000005288      0x5d4 ../PM_FW_COMMON/Srv/SharedMem/src/SharedSafetyComm.o
 .debug_frame   0x000000000000585c      0x1f8 ../PM_FW_COMMON/Srv/SharedMem/src/SharedSOE.o
 .debug_frame   0x0000000000005a54       0x34 ../PM_FW_COMMON/Srv/SharedMem/src/SharedDiagCode.o
 .debug_frame   0x0000000000005a88       0x34 ./Srv/SysResource/src/SysUpdate.o
 .debug_frame   0x0000000000005abc       0xe8 /vagrant/workspace/PM_FW_COMMON/Srv/Sys/src/libSysCommon.a(CommSysMonitor.o)
 .debug_frame   0x0000000000005ba4      0x6e0 /vagrant/workspace/PM_FW_COMMON/Srv/Sys/src/libSysCommon.a(SysHardware.o)
 .debug_frame   0x0000000000006284      0xa28 /vagrant/workspace/PM_FW_COMMON/Srv/IPBUS/src/libIPBUS.a(IPBUS.o)
 .debug_frame   0x0000000000006cac       0x34 App/Main/src/libMain.a(main.o)
 .debug_frame   0x0000000000006ce0      0x1ac App/Main/src/libMain.a(Task.o)
 .debug_frame   0x0000000000006e8c      0x9c0 App/Comm/src/libComm.a(Comm.o)
 .debug_frame   0x000000000000784c       0xa4 App/Diag/src/libDiag.a(Diag.o)
 .debug_frame   0x00000000000078f0      0x288 App/FileManager/src/libFileManager.a(FileManager.o)
 .debug_frame   0x0000000000007b78       0x58 App/Manager/src/libManager.a(Manager.o)
 .debug_frame   0x0000000000007bd0       0x5c App/Manager/src/libManager.a(Key.o)
 .debug_frame   0x0000000000007c2c       0xa0 App/Manager/src/libManager.a(Watchdog.o)
 .debug_frame   0x0000000000007ccc       0x7c App/Monitor/src/libMonitor.a(Monitor.o)
 .debug_frame   0x0000000000007d48      0x664 App/ProjectConfig/src/libProjectConfig.a(Config.o)
 .debug_frame   0x00000000000083ac      0x6b4 App/Sync/src/libSync.a(Sync.o)
 .debug_frame   0x0000000000008a60      0x3cc App/SysStateManager/src/libSysStateManager.a(StateMngt.o)
 .debug_frame   0x0000000000008e2c      0x480 Srv/CommProtocol/src/libCMBusProtocol.a(CMBusProtocol.o)
 .debug_frame   0x00000000000092ac       0xc8 Srv/CommProtocol/src/libCMBusProtocol.a(CMTable.o)
 .debug_frame   0x0000000000009374      0x6b4 Srv/SysResource/src/libSys.a(SysCfgFile.o)
 .debug_frame   0x0000000000009a28       0xa8 Srv/SysResource/src/libSys.a(SysCMBus.o)
 .debug_frame   0x0000000000009ad0      0x494 Srv/SysResource/src/libSys.a(SysCommon.o)
 .debug_frame   0x0000000000009f64      0x20c Srv/SysResource/src/libSys.a(SysFileManager.o)
 .debug_frame   0x000000000000a170       0xa8 Srv/SysResource/src/libSys.a(SysModbus.o)
 .debug_frame   0x000000000000a218       0xa8 Srv/SysResource/src/libSys.a(SysP2P.o)
 .debug_frame   0x000000000000a2c0      0x15c Srv/SysResource/src/libSys.a(SysRTData.o)
 .debug_frame   0x000000000000a41c      0x1ec Srv/SysResource/src/libSys.a(SysMonitor.o)
 .debug_frame   0x000000000000a608      0x4a4 Srv/SysResource/src/libSys.a(SysSync.o)
 .debug_frame   0x000000000000aaac      0x1e4 Srv/SysResource/src/libSys.a(SysStateMngt.o)
 .debug_frame   0x000000000000ac90       0x7c Srv/SysResource/src/libSys.a(SysPMConfig.o)
 .debug_frame   0x000000000000ad0c      0x10c /vagrant/workspace/PM_FW_COMMON/Srv/Scheduler/lib/CORE1/cagOsCORE1-0.a(cmbus.o)
 .debug_frame   0x000000000000ae18       0x60 /vagrant/workspace/PM_FW_COMMON/Srv/Scheduler/lib/CORE1/cagOsCORE1-0.a(ipbus.o)
 .debug_frame   0x000000000000ae78      0x174 /vagrant/workspace/PM_FW_COMMON/Srv/Scheduler/lib/CORE1/cagOsCORE1-0.a(pcie.o)
 .debug_frame   0x000000000000afec      0x180 /vagrant/workspace/PM_FW_COMMON/Srv/Scheduler/lib/CORE1/cagOsCORE1-0.a(pmbus.o)
 .debug_frame   0x000000000000b16c      0x19c /vagrant/workspace/PM_FW_COMMON/Srv/SharedMem/src/libSharedMem.a(SharedRetain.o)
 .debug_frame   0x000000000000b308       0x58 /vagrant/workspace/PM_FW_COMMON/Srv/Algrithm/src/libAlgrithm.a(Algrithm.o)
 .debug_frame   0x000000000000b360      0x208 /vagrant/workspace/PM_FW_COMMON/Srv/Diag/src/libCDiag.a(DiagCommon.o)
 .debug_frame   0x000000000000b568      0x230 /vagrant/workspace/PM_FW_COMMON/Srv/Diag/src/libCDiag.a(BoardDiag.o)
 .debug_frame   0x000000000000b798       0x7c /vagrant/workspace/PM_FW_COMMON/Srv/Diag/src/libCDiag.a(ExceptionTest.o)
 .debug_frame   0x000000000000b814      0x184 /vagrant/workspace/PM_FW_COMMON/Srv/Diag/src/libCDiag.a(DataCacheTest.o)
 .debug_frame   0x000000000000b998      0x320 /vagrant/workspace/PM_FW_COMMON/Srv/Diag/src/libCDiag.a(CPUTest.o)
 .debug_frame   0x000000000000bcb8       0x60 /vagrant/workspace/PM_FW_COMMON/Srv/Diag/src/libCDiag.a(CodeTest.o)
 .debug_frame   0x000000000000bd18       0x58 /vagrant/workspace/PM_FW_COMMON/Srv/Diag/src/libCDiag.a(SysTest.o)
 .debug_frame   0x000000000000bd70      0x18c /vagrant/workspace/PM_FW_COMMON/Srv/Diag/src/libCDiag.a(RamTest.o)
 .debug_frame   0x000000000000befc       0x7c /vagrant/workspace/PM_FW_COMMON/Srv/Log/src/libLog.a(Log.o)
 .debug_frame   0x000000000000bf78       0xd0 /vagrant/workspace/PM_FW_COMMON/Srv/Log/src/libLog.a(LogCore0.o)
 .debug_frame   0x000000000000c048       0xd0 /vagrant/workspace/PM_FW_COMMON/Srv/Log/src/libLog.a(LogCore1.o)
 .debug_frame   0x000000000000c118      0x164 /vagrant/workspace/PM_FW_COMMON/Srv/Log/src/libLog.a(LogUser.o)
 .debug_frame   0x000000000000c27c       0x84 /vagrant/workspace/PM_FW_COMMON/Srv/PMBUS/src/libPMBUS.a(PMBUS.o)
 .debug_frame   0x000000000000c300      0x3f0 /vagrant/workspace/PM_FW_COMMON/Srv/SafetyProtocol/src/libSafetyProtocol.a(P2PSafetyComm.o)
 .debug_frame   0x000000000000c6f0       0xc4 /vagrant/workspace/PM_FW_COMMON/Srv/SafetyProtocol/src/libSafetyProtocol.a(SafetyCommon.o)
 .debug_frame   0x000000000000c7b4       0xc4 /vagrant/workspace/PM_FW_COMMON/Srv/Sys/src/libSysCommon.a(CommSysCommom.o)
 .debug_frame   0x000000000000c878       0x34 /vagrant/workspace/PM_FW_COMMON/Srv/Sys/src/libSysCommon.a(CommSysConfig.o)
 .debug_frame   0x000000000000c8ac       0xcc /vagrant/workspace/PM_FW_COMMON/Srv/Sys/src/libSysCommon.a(CommSysSync.o)
 .debug_frame   0x000000000000c978       0x5c /vagrant/workspace/PM_FW_COMMON/Srv/Ver/src/libVer.a(Ver.o)
 .debug_frame   0x000000000000c9d4       0x58 App/LEDManager/src/libLEDManager.a(LEDManager.o)
 .debug_frame   0x000000000000ca2c       0x58 /vagrant/workspace/PM_FW_COMMON/Srv/Scheduler/lib/CORE1/cagOsCORE1-0.a(sysCacheSb.o)

.debug_loc      0x0000000000000000     0x28a2
 .debug_loc     0x0000000000000000      0xacf /vagrant/workspace/PM_FW_COMMON/Srv/Scheduler/lib/libgcc.a(_udivdi3.o)
 .debug_loc     0x0000000000000acf      0x9e5 /vagrant/workspace/PM_FW_COMMON/Srv/Scheduler/lib/libgcc.a(_umoddi3.o)
 .debug_loc     0x00000000000014b4      0xa19 /vagrant/workspace/PM_FW_COMMON/Srv/Scheduler/lib/libgcc.a(_divdi3.o)
 .debug_loc     0x0000000000001ecd      0x9d5 /vagrant/workspace/PM_FW_COMMON/Srv/Scheduler/lib/libgcc.a(_moddi3.o)
